
serialSDSH1xFreeRTOS.elf:     file format elf32-avr

Sections:
Idx Name          Size      VMA       LMA       File off  Algn
  0 .data         0000004c  00800100  0000672a  000067be  2**0
                  CONTENTS, ALLOC, LOAD, DATA
  1 .text         0000672a  00000000  00000000  00000094  2**1
                  CONTENTS, ALLOC, LOAD, READONLY, CODE
  2 .bss          0000073f  0080014c  0080014c  0000680a  2**0
                  ALLOC
  3 .comment      00000011  00000000  00000000  0000680a  2**0
                  CONTENTS, READONLY
  4 .note.gnu.avr.deviceinfo 00000040  00000000  00000000  0000681c  2**2
                  CONTENTS, READONLY
  5 .debug_info   000005f4  00000000  00000000  0000685c  2**0
                  CONTENTS, READONLY, DEBUGGING
  6 .debug_abbrev 000005a2  00000000  00000000  00006e50  2**0
                  CONTENTS, READONLY, DEBUGGING
  7 .debug_line   0000001a  00000000  00000000  000073f2  2**0
                  CONTENTS, READONLY, DEBUGGING
  8 .debug_str    00000208  00000000  00000000  0000740c  2**0
                  CONTENTS, READONLY, DEBUGGING

Disassembly of section .text:

00000000 <__vectors>:
       0:	c9 c2       	rjmp	.+1426   	; 0x594 <__ctors_end>
       2:	00 00       	nop
       4:	0c 94 c9 25 	jmp	0x4b92	; 0x4b92 <__vector_1>
       8:	ed c2       	rjmp	.+1498   	; 0x5e4 <__bad_interrupt>
       a:	00 00       	nop
       c:	eb c2       	rjmp	.+1494   	; 0x5e4 <__bad_interrupt>
       e:	00 00       	nop
      10:	e9 c2       	rjmp	.+1490   	; 0x5e4 <__bad_interrupt>
      12:	00 00       	nop
      14:	e7 c2       	rjmp	.+1486   	; 0x5e4 <__bad_interrupt>
      16:	00 00       	nop
      18:	e5 c2       	rjmp	.+1482   	; 0x5e4 <__bad_interrupt>
      1a:	00 00       	nop
      1c:	e3 c2       	rjmp	.+1478   	; 0x5e4 <__bad_interrupt>
      1e:	00 00       	nop
      20:	e1 c2       	rjmp	.+1474   	; 0x5e4 <__bad_interrupt>
      22:	00 00       	nop
      24:	df c2       	rjmp	.+1470   	; 0x5e4 <__bad_interrupt>
      26:	00 00       	nop
      28:	dd c2       	rjmp	.+1466   	; 0x5e4 <__bad_interrupt>
      2a:	00 00       	nop
      2c:	0c 94 09 2b 	jmp	0x5612	; 0x5612 <__vector_11>
      30:	d9 c2       	rjmp	.+1458   	; 0x5e4 <__bad_interrupt>
      32:	00 00       	nop
      34:	d7 c2       	rjmp	.+1454   	; 0x5e4 <__bad_interrupt>
      36:	00 00       	nop
      38:	d5 c2       	rjmp	.+1450   	; 0x5e4 <__bad_interrupt>
      3a:	00 00       	nop
      3c:	d3 c2       	rjmp	.+1446   	; 0x5e4 <__bad_interrupt>
      3e:	00 00       	nop
      40:	d1 c2       	rjmp	.+1442   	; 0x5e4 <__bad_interrupt>
      42:	00 00       	nop
      44:	cf c2       	rjmp	.+1438   	; 0x5e4 <__bad_interrupt>
      46:	00 00       	nop
      48:	0c 94 c7 28 	jmp	0x518e	; 0x518e <__vector_18>
      4c:	0c 94 32 29 	jmp	0x5264	; 0x5264 <__vector_19>
      50:	c9 c2       	rjmp	.+1426   	; 0x5e4 <__bad_interrupt>
      52:	00 00       	nop
      54:	c7 c2       	rjmp	.+1422   	; 0x5e4 <__bad_interrupt>
      56:	00 00       	nop
      58:	c5 c2       	rjmp	.+1418   	; 0x5e4 <__bad_interrupt>
      5a:	00 00       	nop
      5c:	c3 c2       	rjmp	.+1414   	; 0x5e4 <__bad_interrupt>
      5e:	00 00       	nop
      60:	c1 c2       	rjmp	.+1410   	; 0x5e4 <__bad_interrupt>
      62:	00 00       	nop
      64:	bf c2       	rjmp	.+1406   	; 0x5e4 <__bad_interrupt>
      66:	00 00       	nop
      68:	fa 24       	eor	r15, r10
      6a:	07 25       	eor	r16, r7
      6c:	07 25       	eor	r16, r7
      6e:	60 22       	and	r6, r16
      70:	07 25       	eor	r16, r7
      72:	71 22       	and	r7, r17
      74:	07 25       	eor	r16, r7
      76:	07 25       	eor	r16, r7
      78:	b2 24       	eor	r11, r2
      7a:	df 23       	and	r29, r31
      7c:	07 25       	eor	r16, r7
      7e:	58 22       	and	r5, r24
      80:	ab 24       	eor	r10, r11
      82:	07 25       	eor	r16, r7
      84:	07 25       	eor	r16, r7
      86:	45 22       	and	r4, r21
      88:	77 22       	and	r7, r23
      8a:	44 23       	and	r20, r20

0000008c <__trampolines_end>:
      8c:	6e 61       	ori	r22, 0x1E	; 30
      8e:	6e 00       	.word	0x006e	; ????

00000090 <__c.2209>:
      90:	69 6e 66 00                                         inf.

00000094 <__c.2065>:
      94:	6d 6d 63 5f 70 6f 77 65 72 5f 6f 66 66 0d 0a 00     mmc_power_off...

000000a4 <__c.2060>:
      a4:	6d 6d 63 5f 70 6f 77 65 72 5f 6f 6e 0d 0a 00        mmc_power_on...

000000b3 <__c.2131>:
      b3:	6d 6d 63 5f 69 6e 69 74 0d 0a 00                    mmc_init...

000000be <_ZZL6put_rc7FRESULTE3__c>:
      be:	72 63 3d 25 64 0d 0a 00                             rc=%d...

000000c6 <_ZZL8put_dumpPKhmhE3__c_1>:
      c6:	0d 0a 00                                            ...

000000c9 <_ZZL8put_dumpPKhmhE3__c_0>:
      c9:	20 25 30 32 58 00                                    %02X.

000000cf <_ZZL8put_dumpPKhmhE3__c>:
      cf:	25 30 38 6c 58 3a 00                                %08lX:.

000000d6 <_ZZL8get_linePhhE3__c>:
      d6:	0d 0a 00                                            ...

000000d9 <_ZZL11TaskCommandPvE3__c_29>:
      d9:	63 61 6e 20 73 6c 65 65 70 20 4f 53 20 54 69 63     can sleep OS Tic
      e9:	6b 73 20 25 75 0d 0a 00                             ks %u...

000000f1 <_ZZL11TaskCommandPvE3__c_28>:
      f1:	20 25 30 32 64 3a 25 30 32 64 3a 25 30 32 64 20      %02d:%02d:%02d 
     101:	4d 53 4b 20 30 78 25 30 32 78 0d 0a 00              MSK 0x%02x...

0000010e <_ZZL11TaskCommandPvE3__c_27>:
     10e:	41 4c 4d 3a 20 25 30 32 64 2d 25 30 32 64 2d 25     ALM: %02d-%02d-%
     11e:	30 32 64 00                                         02d.

00000122 <_ZZL11TaskCommandPvE3__c_26>:
     122:	4f 53 20 54 69 63 6b 73 20 25 75 0d 0a 00           OS Ticks %u...

00000130 <_ZZL11TaskCommandPvE3__c_25>:
     130:	44 61 74 61 20 73 74 61 72 74 20 28 6c 62 61 29     Data start (lba)
     140:	20 3d 20 25 6c 75 0d 0a 00                           = %lu...

00000149 <_ZZL11TaskCommandPvE3__c_24>:
     149:	44 49 52 20 73 74 61 72 74 20 28 6c 62 61 2c 63     DIR start (lba,c
     159:	6c 75 73 74 6f 72 29 20 3d 20 25 6c 75 0d 0a 00     lustor) = %lu...

00000169 <_ZZL11TaskCommandPvE3__c_23>:
     169:	46 41 54 20 73 74 61 72 74 20 28 6c 62 61 29 20     FAT start (lba) 
     179:	3d 20 25 6c 75 0d 0a 00                             = %lu...

00000181 <_ZZL11TaskCommandPvE3__c_22>:
     181:	4e 75 6d 62 65 72 20 6f 66 20 63 6c 75 73 74 65     Number of cluste
     191:	72 73 20 3d 20 25 6c 75 0d 0a 00                    rs = %lu...

0000019c <_ZZL11TaskCommandPvE3__c_21>:
     19c:	53 65 63 74 6f 72 73 2f 46 41 54 20 3d 20 25 6c     Sectors/FAT = %l
     1ac:	75 0d 0a 00                                         u...

000001b0 <_ZZL11TaskCommandPvE3__c_20>:
     1b0:	52 6f 6f 74 20 44 49 52 20 65 6e 74 72 69 65 73     Root DIR entries
     1c0:	20 3d 20 25 75 0d 0a 00                              = %u...

000001c8 <_ZZL11TaskCommandPvE3__c_19>:
     1c8:	4e 75 6d 62 65 72 20 6f 66 20 46 41 54 73 20 3d     Number of FATs =
     1d8:	20 25 75 0d 0a 00                                    %u...

000001de <_ZZL11TaskCommandPvE3__c_18>:
     1de:	42 79 74 65 73 2f 43 6c 75 73 74 65 72 20 3d 20     Bytes/Cluster = 
     1ee:	25 6c 75 0d 0a 00                                   %lu...

000001f4 <_ZZL11TaskCommandPvE3__c_17>:
     1f4:	46 41 54 20 74 79 70 65 20 3d 20 25 75 0d 0a 00     FAT type = %u...

00000204 <_ZZL11TaskCommandPvE3__c_16>:
     204:	20 25 30 32 64 3a 25 30 32 64 3a 25 30 32 64 0d      %02d:%02d:%02d.
     214:	0a 00                                               ..

00000216 <_ZZL11TaskCommandPvE3__c_15>:
     216:	25 30 32 64 2d 25 30 32 64 2d 25 30 32 64 00        %02d-%02d-%02d.

00000225 <_ZZL11TaskCommandPvE3__c_14>:
     225:	20 25 30 32 64 3a 25 30 32 64 3a 25 30 32 64 0d      %02d:%02d:%02d.
     235:	0a 00                                               ..

00000237 <_ZZL11TaskCommandPvE3__c_13>:
     237:	73 65 74 20 25 30 32 64 2d 25 30 32 64 2d 25 30     set %02d-%02d-%0
     247:	32 64 00                                            2d.

0000024a <_ZZL11TaskCommandPvE3__c_12>:
     24a:	53 2f 4e 3a 20 25 73 0d 0a 00                       S/N: %s...

00000254 <_ZZL11TaskCommandPvE3__c_11>:
     254:	4d 6f 64 65 6c 3a 20 25 73 0d 0a 00                 Model: %s...

00000260 <_ZZL11TaskCommandPvE3__c_10>:
     260:	53 44 20 53 74 61 74 75 73 3a 0d 0a 00              SD Status:...

0000026d <_ZZL11TaskCommandPvE3__c_9>:
     26d:	4f 43 52 3a 0d 0a 00                                OCR:...

00000274 <_ZZL11TaskCommandPvE3__c_8>:
     274:	43 49 44 3a 0d 0a 00                                CID:...

0000027b <_ZZL11TaskCommandPvE3__c_7>:
     27b:	43 53 44 3a 0d 0a 00                                CSD:...

00000282 <_ZZL11TaskCommandPvE3__c_6>:
     282:	43 61 72 64 20 74 79 70 65 3a 20 25 75 0d 0a 00     Card type: %u...

00000292 <_ZZL11TaskCommandPvE3__c_5>:
     292:	45 72 61 73 65 20 62 6c 6f 63 6b 3a 20 25 6c 75     Erase block: %lu
     2a2:	20 73 65 63 74 6f 72 73 0d 0a 00                     sectors...

000002ad <_ZZL11TaskCommandPvE3__c_4>:
     2ad:	44 72 69 76 65 20 73 69 7a 65 3a 20 25 6c 75 20     Drive size: %lu 
     2bd:	73 65 63 74 6f 72 73 0d 0a 00                       sectors...

000002c7 <_ZZL11TaskCommandPvE3__c_3>:
     2c7:	46 72 65 65 20 48 65 61 70 20 53 69 7a 65 3a 20     Free Heap Size: 
     2d7:	25 75 0d 0a 00                                      %u...

000002dc <_ZZL11TaskCommandPvE3__c_2>:
     2dc:	6d 6f 75 6e 74 20 72 63 3d 25 64 0d 0a 00           mount rc=%d...

000002ea <_ZZL11TaskCommandPvE3__c_1>:
     2ea:	64 69 73 6b 20 69 20 72 63 3d 25 64 0d 0a 00        disk i rc=%d...

000002f9 <_ZZL11TaskCommandPvE3__c_0>:
     2f9:	72 65 61 64 20 3a 20 25 35 2e 32 66 20 43 0d 0a     read : %5.2f C..
	...

0000030a <_ZZL11TaskCommandPvE3__c>:
     30a:	43 6f 6d 6d 61 6e 64 20 74 61 73 6b 0d 0a 00        Command task...

00000319 <_ZZL11TaskReadSHTPvE3__c_13>:
     319:	74 69 6d 65 6f 75 74 0d 0a 00                       timeout...

00000323 <_ZZL11TaskReadSHTPvE3__c_12>:
     323:	66 69 6c 65 20 73 79 6e 63 20 72 63 3d 25 64 0d     file sync rc=%d.
     333:	0a 00                                               ..

00000335 <_ZZL11TaskReadSHTPvE3__c_11>:
     335:	48 54 52 20 41 75 74 6f 20 4e 65 78 74 0d 0a 00     HTR Auto Next...

00000345 <_ZZL11TaskReadSHTPvE3__c_10>:
     345:	25 30 32 64 2d 25 30 32 64 2d 25 30 32 64 20 25     %02d-%02d-%02d %
     355:	30 32 64 3a 25 30 32 64 3a 25 30 32 64 20 25 32     02d:%02d:%02d %2
     365:	64 20 25 64 20 20 74 68 20 3a 20 25 35 2e 32 66     d %d  th : %5.2f
     375:	20 43 20 25 35 2e 32 66 20 25 25 0d 0a 00            C %5.2f %%...

00000383 <_ZZL11TaskReadSHTPvE3__c_9>:
     383:	20 74 68 20 3a 20 25 35 2e 32 66 20 43 20 25 35      th : %5.2f C %5
     393:	2e 32 66 20 25 25 0d 0a 00                          .2f %%...

0000039c <_ZZL11TaskReadSHTPvE3__c_8>:
     39c:	20 25 32 64 20 25 64 20 00                           %2d %d .

000003a5 <_ZZL11TaskReadSHTPvE3__c_7>:
     3a5:	20 25 30 32 64 3a 25 30 32 64 3a 25 30 32 64 00      %02d:%02d:%02d.

000003b5 <_ZZL11TaskReadSHTPvE3__c_6>:
     3b5:	25 30 32 64 2d 25 30 32 64 2d 25 30 32 64 00        %02d-%02d-%02d.

000003c4 <_ZZL11TaskReadSHTPvE3__c_5>:
     3c4:	48 54 52 20 4f 66 66 0d 0a 00                       HTR Off...

000003ce <_ZZL11TaskReadSHTPvE3__c_4>:
     3ce:	48 54 52 20 4f 6e 0d 0a 00                          HTR On...

000003d7 <_ZZL11TaskReadSHTPvE3__c_3>:
     3d7:	66 69 6c 65 20 6f 70 65 6e 20 72 63 3d 25 64 0d     file open rc=%d.
     3e7:	0a 00                                               ..

000003e9 <_ZZL11TaskReadSHTPvE3__c_2>:
     3e9:	43 6f 75 6c 64 20 6e 6f 74 20 61 6c 6c 6f 63 61     Could not alloca
     3f9:	74 65 20 46 49 4c 20 25 64 0d 0a 00                 te FIL %d...

00000405 <_ZZL11TaskReadSHTPvE3__c_1>:
     405:	6d 6f 75 6e 74 20 72 63 3d 25 64 0d 0a 00           mount rc=%d...

00000413 <_ZZL11TaskReadSHTPvE3__c_0>:
     413:	43 6f 75 6c 64 20 6e 6f 74 20 61 6c 6c 6f 63 61     Could not alloca
     423:	74 65 20 46 41 54 46 53 0d 0a 00                    te FATFS...

0000042e <_ZZL11TaskReadSHTPvE3__c>:
     42e:	52 65 61 64 53 48 54 20 74 61 73 6b 0d 0a 00        ReadSHT task...

0000043d <_ZZ4mainE3__c_1>:
     43d:	0d 0a 46 72 65 65 20 48 65 61 70 20 53 69 7a 65     ..Free Heap Size
     44d:	3a 20 25 75 0d 0a 00                                : %u...

00000454 <_ZZ4mainE3__c_0>:
     454:	53 74 61 72 74 69 6e 67 20 73 63 68 65 64 75 6c     Starting schedul
     464:	65 72 0d 0a 00                                      er...

00000469 <_ZZ4mainE3__c>:
     469:	46 72 65 65 52 54 4f 53 20 53 44 20 53 48 54 31     FreeRTOS SD SHT1
     479:	78 20 44 53 33 32 33 34 20 31 39 3a 35 32 3a 34     x DS3234 19:52:4
     489:	32 0d 0a 00                                         2...

0000048d <_ZZ8spi_initvE3__c>:
     48d:	73 70 69 5f 69 6e 69 74 0d 0a 00 00 40 7a 10 f3     spi_init....@z..
     49d:	5a 00 a0 72 4e 18 09 00 10 a5 d4 e8 00 00 e8 76     Z..rN..........v
     4ad:	48 17 00 00 e4 0b 54 02 00 00 ca 9a 3b 00 00 00     H.....T.....;...
     4bd:	e1 f5 05 00 00 80 96 98 00 00 00 40 42 0f 00 00     ...........@B...
     4cd:	00 a0 86 01 00 00 00 10 27 00 00 00 00 e8 03 00     ........'.......
     4dd:	00 00 00 64 00 00 00 00 00 0a 00 00 00 00 00 01     ...d............
     4ed:	00 00 00 00 00 2c 76 d8 88 dc 67 4f 08 23 df c1     .....,v...gO.#..
     4fd:	df ae 59 e1 b1 b7 96 e5 e3 e4 53 c6 3a e6 51 99     ..Y.......S.:.Q.
     50d:	76 96 e8 e6 c2 84 26 eb 89 8c 9b 62 ed 40 7c 6f     v.....&....b.@|o
     51d:	fc ef bc 9c 9f 40 f2 ba a5 6f a5 f4 90 05 5a 2a     .....@...o....Z*
     52d:	f7 5c 93 6b 6c f9 67 6d c1 1b fc e0 e4 0d 47 fe     .\.kl.gm......G.
     53d:	f5 20 e6 b5 00 d0 ed 90 2e 03 00 94 35 77 05 00     . ..........5w..
     54d:	80 84 1e 08 00 00 20 4e 0a 00 00 00 c8 0c 33 33     ...... N......33
     55d:	33 33 0f 98 6e 12 83 11 41 ef 8d 21 14 89 3b e6     33..n...A..!..;.
     56d:	55 16 cf fe e6 db 18 d1 84 4b 38 1b f7 7c 1d 90     U........K8..|..
     57d:	1d a4 bb e4 24 20 32 84 72 5e 22 81 00 c9 f1 24     ....$ 2.r^"....$
     58d:	ec a1 e5 3d 27                                      ...='

00000592 <__ctors_start>:
     592:	12 26       	eor	r1, r18

00000594 <__ctors_end>:
     594:	11 24       	eor	r1, r1
     596:	1f be       	out	0x3f, r1	; 63
     598:	cf ef       	ldi	r28, 0xFF	; 255
     59a:	d8 e0       	ldi	r29, 0x08	; 8
     59c:	de bf       	out	0x3e, r29	; 62
     59e:	cd bf       	out	0x3d, r28	; 61

000005a0 <__do_copy_data>:
     5a0:	11 e0       	ldi	r17, 0x01	; 1
     5a2:	a0 e0       	ldi	r26, 0x00	; 0
     5a4:	b1 e0       	ldi	r27, 0x01	; 1
     5a6:	ea e2       	ldi	r30, 0x2A	; 42
     5a8:	f7 e6       	ldi	r31, 0x67	; 103
     5aa:	02 c0       	rjmp	.+4      	; 0x5b0 <__do_copy_data+0x10>
     5ac:	05 90       	lpm	r0, Z+
     5ae:	0d 92       	st	X+, r0
     5b0:	ac 34       	cpi	r26, 0x4C	; 76
     5b2:	b1 07       	cpc	r27, r17
     5b4:	d9 f7       	brne	.-10     	; 0x5ac <__do_copy_data+0xc>

000005b6 <__do_clear_bss>:
     5b6:	28 e0       	ldi	r18, 0x08	; 8
     5b8:	ac e4       	ldi	r26, 0x4C	; 76
     5ba:	b1 e0       	ldi	r27, 0x01	; 1
     5bc:	01 c0       	rjmp	.+2      	; 0x5c0 <.do_clear_bss_start>

000005be <.do_clear_bss_loop>:
     5be:	1d 92       	st	X+, r1

000005c0 <.do_clear_bss_start>:
     5c0:	ab 38       	cpi	r26, 0x8B	; 139
     5c2:	b2 07       	cpc	r27, r18
     5c4:	e1 f7       	brne	.-8      	; 0x5be <.do_clear_bss_loop>

000005c6 <__do_global_ctors>:
     5c6:	12 e0       	ldi	r17, 0x02	; 2
     5c8:	ca ec       	ldi	r28, 0xCA	; 202
     5ca:	d2 e0       	ldi	r29, 0x02	; 2
     5cc:	04 c0       	rjmp	.+8      	; 0x5d6 <__do_global_ctors+0x10>
     5ce:	21 97       	sbiw	r28, 0x01	; 1
     5d0:	fe 01       	movw	r30, r28
     5d2:	0e 94 d1 2f 	call	0x5fa2	; 0x5fa2 <__tablejump2__>
     5d6:	c9 3c       	cpi	r28, 0xC9	; 201
     5d8:	d1 07       	cpc	r29, r17
     5da:	c9 f7       	brne	.-14     	; 0x5ce <__do_global_ctors+0x8>
     5dc:	0e 94 0b 25 	call	0x4a16	; 0x4a16 <main>
     5e0:	0c 94 93 33 	jmp	0x6726	; 0x6726 <_exit>

000005e4 <__bad_interrupt>:
     5e4:	0d cd       	rjmp	.-1510   	; 0x0 <__vectors>

000005e6 <xatoi>:
     5e6:	0b 01       	movw	r0, r22
     5e8:	dc 01       	movw	r26, r24
     5ea:	ed 91       	ld	r30, X+
     5ec:	fd 91       	ld	r31, X+
     5ee:	22 27       	eor	r18, r18
     5f0:	33 27       	eor	r19, r19
     5f2:	44 27       	eor	r20, r20
     5f4:	55 27       	eor	r21, r21
     5f6:	e8 94       	clt
     5f8:	9a e0       	ldi	r25, 0x0A	; 10
     5fa:	01 c0       	rjmp	.+2      	; 0x5fe <xatoi+0x18>
     5fc:	31 96       	adiw	r30, 0x01	; 1
     5fe:	60 81       	ld	r22, Z
     600:	60 32       	cpi	r22, 0x20	; 32
     602:	e1 f3       	breq	.-8      	; 0x5fc <xatoi+0x16>
     604:	a8 f1       	brcs	.+106    	; 0x670 <xatoi+0x8a>
     606:	6d 32       	cpi	r22, 0x2D	; 45
     608:	11 f4       	brne	.+4      	; 0x60e <xatoi+0x28>
     60a:	68 94       	set
     60c:	f7 cf       	rjmp	.-18     	; 0x5fc <xatoi+0x16>
     60e:	6a 33       	cpi	r22, 0x3A	; 58
     610:	78 f5       	brcc	.+94     	; 0x670 <xatoi+0x8a>
     612:	60 33       	cpi	r22, 0x30	; 48
     614:	68 f1       	brcs	.+90     	; 0x670 <xatoi+0x8a>
     616:	71 f4       	brne	.+28     	; 0x634 <xatoi+0x4e>
     618:	98 e0       	ldi	r25, 0x08	; 8
     61a:	31 96       	adiw	r30, 0x01	; 1
     61c:	60 81       	ld	r22, Z
     61e:	61 32       	cpi	r22, 0x21	; 33
     620:	48 f1       	brcs	.+82     	; 0x674 <xatoi+0x8e>
     622:	62 36       	cpi	r22, 0x62	; 98
     624:	11 f4       	brne	.+4      	; 0x62a <xatoi+0x44>
     626:	92 e0       	ldi	r25, 0x02	; 2
     628:	03 c0       	rjmp	.+6      	; 0x630 <xatoi+0x4a>
     62a:	68 37       	cpi	r22, 0x78	; 120
     62c:	19 f4       	brne	.+6      	; 0x634 <xatoi+0x4e>
     62e:	90 e1       	ldi	r25, 0x10	; 16
     630:	31 96       	adiw	r30, 0x01	; 1
     632:	60 81       	ld	r22, Z
     634:	61 32       	cpi	r22, 0x21	; 33
     636:	f0 f0       	brcs	.+60     	; 0x674 <xatoi+0x8e>
     638:	61 36       	cpi	r22, 0x61	; 97
     63a:	08 f0       	brcs	.+2      	; 0x63e <xatoi+0x58>
     63c:	60 52       	subi	r22, 0x20	; 32
     63e:	60 53       	subi	r22, 0x30	; 48
     640:	b8 f0       	brcs	.+46     	; 0x670 <xatoi+0x8a>
     642:	6a 30       	cpi	r22, 0x0A	; 10
     644:	18 f0       	brcs	.+6      	; 0x64c <xatoi+0x66>
     646:	67 50       	subi	r22, 0x07	; 7
     648:	6a 30       	cpi	r22, 0x0A	; 10
     64a:	90 f0       	brcs	.+36     	; 0x670 <xatoi+0x8a>
     64c:	69 17       	cp	r22, r25
     64e:	80 f4       	brcc	.+32     	; 0x670 <xatoi+0x8a>
     650:	81 e2       	ldi	r24, 0x21	; 33
     652:	77 1b       	sub	r23, r23
     654:	08 f4       	brcc	.+2      	; 0x658 <xatoi+0x72>
     656:	79 0f       	add	r23, r25
     658:	76 95       	lsr	r23
     65a:	57 95       	ror	r21
     65c:	47 95       	ror	r20
     65e:	37 95       	ror	r19
     660:	27 95       	ror	r18
     662:	8a 95       	dec	r24
     664:	b9 f7       	brne	.-18     	; 0x654 <xatoi+0x6e>
     666:	26 0f       	add	r18, r22
     668:	38 1f       	adc	r19, r24
     66a:	48 1f       	adc	r20, r24
     66c:	58 1f       	adc	r21, r24
     66e:	e0 cf       	rjmp	.-64     	; 0x630 <xatoi+0x4a>
     670:	80 e0       	ldi	r24, 0x00	; 0
     672:	01 c0       	rjmp	.+2      	; 0x676 <xatoi+0x90>
     674:	81 e0       	ldi	r24, 0x01	; 1
     676:	4e f4       	brtc	.+18     	; 0x68a <xatoi+0xa4>
     678:	66 27       	eor	r22, r22
     67a:	20 95       	com	r18
     67c:	30 95       	com	r19
     67e:	40 95       	com	r20
     680:	50 95       	com	r21
     682:	26 1f       	adc	r18, r22
     684:	36 1f       	adc	r19, r22
     686:	46 1f       	adc	r20, r22
     688:	56 1f       	adc	r21, r22
     68a:	fe 93       	st	-X, r31
     68c:	ee 93       	st	-X, r30
     68e:	d0 01       	movw	r26, r0
     690:	2d 93       	st	X+, r18
     692:	3d 93       	st	X+, r19
     694:	4d 93       	st	X+, r20
     696:	5d 93       	st	X+, r21
     698:	11 24       	eor	r1, r1
     69a:	08 95       	ret

0000069c <vfprintf>:
     69c:	a3 e1       	ldi	r26, 0x13	; 19
     69e:	b0 e0       	ldi	r27, 0x00	; 0
     6a0:	e4 e5       	ldi	r30, 0x54	; 84
     6a2:	f3 e0       	ldi	r31, 0x03	; 3
     6a4:	0c 94 e1 2f 	jmp	0x5fc2	; 0x5fc2 <__prologue_saves__>
     6a8:	6c 01       	movw	r12, r24
     6aa:	4b 01       	movw	r8, r22
     6ac:	2a 01       	movw	r4, r20
     6ae:	fc 01       	movw	r30, r24
     6b0:	17 82       	std	Z+7, r1	; 0x07
     6b2:	16 82       	std	Z+6, r1	; 0x06
     6b4:	83 81       	ldd	r24, Z+3	; 0x03
     6b6:	81 ff       	sbrs	r24, 1
     6b8:	43 c3       	rjmp	.+1670   	; 0xd40 <__stack+0x441>
     6ba:	ae 01       	movw	r20, r28
     6bc:	4f 5f       	subi	r20, 0xFF	; 255
     6be:	5f 4f       	sbci	r21, 0xFF	; 255
     6c0:	3a 01       	movw	r6, r20
     6c2:	f6 01       	movw	r30, r12
     6c4:	93 81       	ldd	r25, Z+3	; 0x03
     6c6:	f4 01       	movw	r30, r8
     6c8:	93 fd       	sbrc	r25, 3
     6ca:	85 91       	lpm	r24, Z+
     6cc:	93 ff       	sbrs	r25, 3
     6ce:	81 91       	ld	r24, Z+
     6d0:	4f 01       	movw	r8, r30
     6d2:	88 23       	and	r24, r24
     6d4:	09 f4       	brne	.+2      	; 0x6d8 <vfprintf+0x3c>
     6d6:	30 c3       	rjmp	.+1632   	; 0xd38 <__stack+0x439>
     6d8:	85 32       	cpi	r24, 0x25	; 37
     6da:	39 f4       	brne	.+14     	; 0x6ea <vfprintf+0x4e>
     6dc:	93 fd       	sbrc	r25, 3
     6de:	85 91       	lpm	r24, Z+
     6e0:	93 ff       	sbrs	r25, 3
     6e2:	81 91       	ld	r24, Z+
     6e4:	4f 01       	movw	r8, r30
     6e6:	85 32       	cpi	r24, 0x25	; 37
     6e8:	39 f4       	brne	.+14     	; 0x6f8 <vfprintf+0x5c>
     6ea:	b6 01       	movw	r22, r12
     6ec:	90 e0       	ldi	r25, 0x00	; 0
     6ee:	0e 94 a5 32 	call	0x654a	; 0x654a <fputc>
     6f2:	52 01       	movw	r10, r4
     6f4:	25 01       	movw	r4, r10
     6f6:	e5 cf       	rjmp	.-54     	; 0x6c2 <vfprintf+0x26>
     6f8:	10 e0       	ldi	r17, 0x00	; 0
     6fa:	f1 2c       	mov	r15, r1
     6fc:	20 e0       	ldi	r18, 0x00	; 0
     6fe:	20 32       	cpi	r18, 0x20	; 32
     700:	a0 f4       	brcc	.+40     	; 0x72a <vfprintf+0x8e>
     702:	8b 32       	cpi	r24, 0x2B	; 43
     704:	69 f0       	breq	.+26     	; 0x720 <vfprintf+0x84>
     706:	30 f4       	brcc	.+12     	; 0x714 <vfprintf+0x78>
     708:	80 32       	cpi	r24, 0x20	; 32
     70a:	59 f0       	breq	.+22     	; 0x722 <vfprintf+0x86>
     70c:	83 32       	cpi	r24, 0x23	; 35
     70e:	69 f4       	brne	.+26     	; 0x72a <vfprintf+0x8e>
     710:	20 61       	ori	r18, 0x10	; 16
     712:	2c c0       	rjmp	.+88     	; 0x76c <vfprintf+0xd0>
     714:	8d 32       	cpi	r24, 0x2D	; 45
     716:	39 f0       	breq	.+14     	; 0x726 <vfprintf+0x8a>
     718:	80 33       	cpi	r24, 0x30	; 48
     71a:	39 f4       	brne	.+14     	; 0x72a <vfprintf+0x8e>
     71c:	21 60       	ori	r18, 0x01	; 1
     71e:	26 c0       	rjmp	.+76     	; 0x76c <vfprintf+0xd0>
     720:	22 60       	ori	r18, 0x02	; 2
     722:	24 60       	ori	r18, 0x04	; 4
     724:	23 c0       	rjmp	.+70     	; 0x76c <vfprintf+0xd0>
     726:	28 60       	ori	r18, 0x08	; 8
     728:	21 c0       	rjmp	.+66     	; 0x76c <vfprintf+0xd0>
     72a:	27 fd       	sbrc	r18, 7
     72c:	27 c0       	rjmp	.+78     	; 0x77c <vfprintf+0xe0>
     72e:	30 ed       	ldi	r19, 0xD0	; 208
     730:	38 0f       	add	r19, r24
     732:	3a 30       	cpi	r19, 0x0A	; 10
     734:	78 f4       	brcc	.+30     	; 0x754 <vfprintf+0xb8>
     736:	26 ff       	sbrs	r18, 6
     738:	06 c0       	rjmp	.+12     	; 0x746 <vfprintf+0xaa>
     73a:	fa e0       	ldi	r31, 0x0A	; 10
     73c:	1f 9f       	mul	r17, r31
     73e:	30 0d       	add	r19, r0
     740:	11 24       	eor	r1, r1
     742:	13 2f       	mov	r17, r19
     744:	13 c0       	rjmp	.+38     	; 0x76c <vfprintf+0xd0>
     746:	4a e0       	ldi	r20, 0x0A	; 10
     748:	f4 9e       	mul	r15, r20
     74a:	30 0d       	add	r19, r0
     74c:	11 24       	eor	r1, r1
     74e:	f3 2e       	mov	r15, r19
     750:	20 62       	ori	r18, 0x20	; 32
     752:	0c c0       	rjmp	.+24     	; 0x76c <vfprintf+0xd0>
     754:	8e 32       	cpi	r24, 0x2E	; 46
     756:	21 f4       	brne	.+8      	; 0x760 <vfprintf+0xc4>
     758:	26 fd       	sbrc	r18, 6
     75a:	ee c2       	rjmp	.+1500   	; 0xd38 <__stack+0x439>
     75c:	20 64       	ori	r18, 0x40	; 64
     75e:	06 c0       	rjmp	.+12     	; 0x76c <vfprintf+0xd0>
     760:	8c 36       	cpi	r24, 0x6C	; 108
     762:	11 f4       	brne	.+4      	; 0x768 <vfprintf+0xcc>
     764:	20 68       	ori	r18, 0x80	; 128
     766:	02 c0       	rjmp	.+4      	; 0x76c <vfprintf+0xd0>
     768:	88 36       	cpi	r24, 0x68	; 104
     76a:	41 f4       	brne	.+16     	; 0x77c <vfprintf+0xe0>
     76c:	f4 01       	movw	r30, r8
     76e:	93 fd       	sbrc	r25, 3
     770:	85 91       	lpm	r24, Z+
     772:	93 ff       	sbrs	r25, 3
     774:	81 91       	ld	r24, Z+
     776:	4f 01       	movw	r8, r30
     778:	81 11       	cpse	r24, r1
     77a:	c1 cf       	rjmp	.-126    	; 0x6fe <vfprintf+0x62>
     77c:	9b eb       	ldi	r25, 0xBB	; 187
     77e:	98 0f       	add	r25, r24
     780:	93 30       	cpi	r25, 0x03	; 3
     782:	18 f4       	brcc	.+6      	; 0x78a <vfprintf+0xee>
     784:	20 61       	ori	r18, 0x10	; 16
     786:	80 5e       	subi	r24, 0xE0	; 224
     788:	06 c0       	rjmp	.+12     	; 0x796 <vfprintf+0xfa>
     78a:	9b e9       	ldi	r25, 0x9B	; 155
     78c:	98 0f       	add	r25, r24
     78e:	93 30       	cpi	r25, 0x03	; 3
     790:	08 f0       	brcs	.+2      	; 0x794 <vfprintf+0xf8>
     792:	71 c1       	rjmp	.+738    	; 0xa76 <__stack+0x177>
     794:	2f 7e       	andi	r18, 0xEF	; 239
     796:	26 ff       	sbrs	r18, 6
     798:	16 e0       	ldi	r17, 0x06	; 6
     79a:	2f 73       	andi	r18, 0x3F	; 63
     79c:	32 2e       	mov	r3, r18
     79e:	85 36       	cpi	r24, 0x65	; 101
     7a0:	19 f4       	brne	.+6      	; 0x7a8 <vfprintf+0x10c>
     7a2:	20 64       	ori	r18, 0x40	; 64
     7a4:	32 2e       	mov	r3, r18
     7a6:	08 c0       	rjmp	.+16     	; 0x7b8 <vfprintf+0x11c>
     7a8:	86 36       	cpi	r24, 0x66	; 102
     7aa:	21 f4       	brne	.+8      	; 0x7b4 <vfprintf+0x118>
     7ac:	f2 2f       	mov	r31, r18
     7ae:	f0 68       	ori	r31, 0x80	; 128
     7b0:	3f 2e       	mov	r3, r31
     7b2:	02 c0       	rjmp	.+4      	; 0x7b8 <vfprintf+0x11c>
     7b4:	11 11       	cpse	r17, r1
     7b6:	11 50       	subi	r17, 0x01	; 1
     7b8:	37 fe       	sbrs	r3, 7
     7ba:	07 c0       	rjmp	.+14     	; 0x7ca <vfprintf+0x12e>
     7bc:	1c 33       	cpi	r17, 0x3C	; 60
     7be:	50 f4       	brcc	.+20     	; 0x7d4 <vfprintf+0x138>
     7c0:	ee 24       	eor	r14, r14
     7c2:	e3 94       	inc	r14
     7c4:	e1 0e       	add	r14, r17
     7c6:	27 e0       	ldi	r18, 0x07	; 7
     7c8:	0b c0       	rjmp	.+22     	; 0x7e0 <vfprintf+0x144>
     7ca:	18 30       	cpi	r17, 0x08	; 8
     7cc:	38 f0       	brcs	.+14     	; 0x7dc <vfprintf+0x140>
     7ce:	27 e0       	ldi	r18, 0x07	; 7
     7d0:	17 e0       	ldi	r17, 0x07	; 7
     7d2:	05 c0       	rjmp	.+10     	; 0x7de <vfprintf+0x142>
     7d4:	27 e0       	ldi	r18, 0x07	; 7
     7d6:	4c e3       	ldi	r20, 0x3C	; 60
     7d8:	e4 2e       	mov	r14, r20
     7da:	02 c0       	rjmp	.+4      	; 0x7e0 <vfprintf+0x144>
     7dc:	21 2f       	mov	r18, r17
     7de:	e1 2c       	mov	r14, r1
     7e0:	52 01       	movw	r10, r4
     7e2:	44 e0       	ldi	r20, 0x04	; 4
     7e4:	a4 0e       	add	r10, r20
     7e6:	b1 1c       	adc	r11, r1
     7e8:	f2 01       	movw	r30, r4
     7ea:	60 81       	ld	r22, Z
     7ec:	71 81       	ldd	r23, Z+1	; 0x01
     7ee:	82 81       	ldd	r24, Z+2	; 0x02
     7f0:	93 81       	ldd	r25, Z+3	; 0x03
     7f2:	0e 2d       	mov	r16, r14
     7f4:	a3 01       	movw	r20, r6
     7f6:	0e 94 ae 31 	call	0x635c	; 0x635c <__ftoa_engine>
     7fa:	2c 01       	movw	r4, r24
     7fc:	09 81       	ldd	r16, Y+1	; 0x01
     7fe:	00 ff       	sbrs	r16, 0
     800:	02 c0       	rjmp	.+4      	; 0x806 <vfprintf+0x16a>
     802:	03 ff       	sbrs	r16, 3
     804:	07 c0       	rjmp	.+14     	; 0x814 <vfprintf+0x178>
     806:	31 fc       	sbrc	r3, 1
     808:	08 c0       	rjmp	.+16     	; 0x81a <vfprintf+0x17e>
     80a:	32 fe       	sbrs	r3, 2
     80c:	09 c0       	rjmp	.+18     	; 0x820 <vfprintf+0x184>
     80e:	30 e2       	ldi	r19, 0x20	; 32
     810:	23 2e       	mov	r2, r19
     812:	07 c0       	rjmp	.+14     	; 0x822 <vfprintf+0x186>
     814:	2d e2       	ldi	r18, 0x2D	; 45
     816:	22 2e       	mov	r2, r18
     818:	04 c0       	rjmp	.+8      	; 0x822 <vfprintf+0x186>
     81a:	9b e2       	ldi	r25, 0x2B	; 43
     81c:	29 2e       	mov	r2, r25
     81e:	01 c0       	rjmp	.+2      	; 0x822 <vfprintf+0x186>
     820:	21 2c       	mov	r2, r1
     822:	80 2f       	mov	r24, r16
     824:	8c 70       	andi	r24, 0x0C	; 12
     826:	19 f0       	breq	.+6      	; 0x82e <vfprintf+0x192>
     828:	21 10       	cpse	r2, r1
     82a:	68 c2       	rjmp	.+1232   	; 0xcfc <__stack+0x3fd>
     82c:	a8 c2       	rjmp	.+1360   	; 0xd7e <__stack+0x47f>
     82e:	37 fe       	sbrs	r3, 7
     830:	0f c0       	rjmp	.+30     	; 0x850 <vfprintf+0x1b4>
     832:	e4 0c       	add	r14, r4
     834:	04 ff       	sbrs	r16, 4
     836:	04 c0       	rjmp	.+8      	; 0x840 <vfprintf+0x1a4>
     838:	8a 81       	ldd	r24, Y+2	; 0x02
     83a:	81 33       	cpi	r24, 0x31	; 49
     83c:	09 f4       	brne	.+2      	; 0x840 <vfprintf+0x1a4>
     83e:	ea 94       	dec	r14
     840:	1e 14       	cp	r1, r14
     842:	74 f5       	brge	.+92     	; 0x8a0 <vfprintf+0x204>
     844:	f8 e0       	ldi	r31, 0x08	; 8
     846:	fe 15       	cp	r31, r14
     848:	78 f5       	brcc	.+94     	; 0x8a8 <vfprintf+0x20c>
     84a:	88 e0       	ldi	r24, 0x08	; 8
     84c:	e8 2e       	mov	r14, r24
     84e:	2c c0       	rjmp	.+88     	; 0x8a8 <vfprintf+0x20c>
     850:	36 fc       	sbrc	r3, 6
     852:	2a c0       	rjmp	.+84     	; 0x8a8 <vfprintf+0x20c>
     854:	81 2f       	mov	r24, r17
     856:	90 e0       	ldi	r25, 0x00	; 0
     858:	84 15       	cp	r24, r4
     85a:	95 05       	cpc	r25, r5
     85c:	9c f0       	brlt	.+38     	; 0x884 <vfprintf+0x1e8>
     85e:	2c ef       	ldi	r18, 0xFC	; 252
     860:	42 16       	cp	r4, r18
     862:	2f ef       	ldi	r18, 0xFF	; 255
     864:	52 06       	cpc	r5, r18
     866:	74 f0       	brlt	.+28     	; 0x884 <vfprintf+0x1e8>
     868:	43 2d       	mov	r20, r3
     86a:	40 68       	ori	r20, 0x80	; 128
     86c:	34 2e       	mov	r3, r20
     86e:	0a c0       	rjmp	.+20     	; 0x884 <vfprintf+0x1e8>
     870:	e2 e0       	ldi	r30, 0x02	; 2
     872:	f0 e0       	ldi	r31, 0x00	; 0
     874:	ec 0f       	add	r30, r28
     876:	fd 1f       	adc	r31, r29
     878:	e1 0f       	add	r30, r17
     87a:	f1 1d       	adc	r31, r1
     87c:	80 81       	ld	r24, Z
     87e:	80 33       	cpi	r24, 0x30	; 48
     880:	19 f4       	brne	.+6      	; 0x888 <vfprintf+0x1ec>
     882:	11 50       	subi	r17, 0x01	; 1
     884:	11 11       	cpse	r17, r1
     886:	f4 cf       	rjmp	.-24     	; 0x870 <vfprintf+0x1d4>
     888:	37 fe       	sbrs	r3, 7
     88a:	0e c0       	rjmp	.+28     	; 0x8a8 <vfprintf+0x20c>
     88c:	ee 24       	eor	r14, r14
     88e:	e3 94       	inc	r14
     890:	e1 0e       	add	r14, r17
     892:	81 2f       	mov	r24, r17
     894:	90 e0       	ldi	r25, 0x00	; 0
     896:	48 16       	cp	r4, r24
     898:	59 06       	cpc	r5, r25
     89a:	2c f4       	brge	.+10     	; 0x8a6 <vfprintf+0x20a>
     89c:	14 19       	sub	r17, r4
     89e:	04 c0       	rjmp	.+8      	; 0x8a8 <vfprintf+0x20c>
     8a0:	ee 24       	eor	r14, r14
     8a2:	e3 94       	inc	r14
     8a4:	01 c0       	rjmp	.+2      	; 0x8a8 <vfprintf+0x20c>
     8a6:	10 e0       	ldi	r17, 0x00	; 0
     8a8:	37 fe       	sbrs	r3, 7
     8aa:	06 c0       	rjmp	.+12     	; 0x8b8 <vfprintf+0x21c>
     8ac:	14 14       	cp	r1, r4
     8ae:	15 04       	cpc	r1, r5
     8b0:	34 f4       	brge	.+12     	; 0x8be <vfprintf+0x222>
     8b2:	c2 01       	movw	r24, r4
     8b4:	01 96       	adiw	r24, 0x01	; 1
     8b6:	05 c0       	rjmp	.+10     	; 0x8c2 <vfprintf+0x226>
     8b8:	85 e0       	ldi	r24, 0x05	; 5
     8ba:	90 e0       	ldi	r25, 0x00	; 0
     8bc:	02 c0       	rjmp	.+4      	; 0x8c2 <vfprintf+0x226>
     8be:	81 e0       	ldi	r24, 0x01	; 1
     8c0:	90 e0       	ldi	r25, 0x00	; 0
     8c2:	21 10       	cpse	r2, r1
     8c4:	01 96       	adiw	r24, 0x01	; 1
     8c6:	11 23       	and	r17, r17
     8c8:	31 f0       	breq	.+12     	; 0x8d6 <vfprintf+0x23a>
     8ca:	21 2f       	mov	r18, r17
     8cc:	30 e0       	ldi	r19, 0x00	; 0
     8ce:	2f 5f       	subi	r18, 0xFF	; 255
     8d0:	3f 4f       	sbci	r19, 0xFF	; 255
     8d2:	82 0f       	add	r24, r18
     8d4:	93 1f       	adc	r25, r19
     8d6:	2f 2d       	mov	r18, r15
     8d8:	30 e0       	ldi	r19, 0x00	; 0
     8da:	82 17       	cp	r24, r18
     8dc:	93 07       	cpc	r25, r19
     8de:	14 f4       	brge	.+4      	; 0x8e4 <vfprintf+0x248>
     8e0:	f8 1a       	sub	r15, r24
     8e2:	01 c0       	rjmp	.+2      	; 0x8e6 <vfprintf+0x24a>
     8e4:	f1 2c       	mov	r15, r1
     8e6:	83 2d       	mov	r24, r3
     8e8:	89 70       	andi	r24, 0x09	; 9
     8ea:	49 f4       	brne	.+18     	; 0x8fe <vfprintf+0x262>
     8ec:	ff 20       	and	r15, r15
     8ee:	39 f0       	breq	.+14     	; 0x8fe <vfprintf+0x262>
     8f0:	b6 01       	movw	r22, r12
     8f2:	80 e2       	ldi	r24, 0x20	; 32
     8f4:	90 e0       	ldi	r25, 0x00	; 0
     8f6:	0e 94 a5 32 	call	0x654a	; 0x654a <fputc>
     8fa:	fa 94       	dec	r15
     8fc:	f7 cf       	rjmp	.-18     	; 0x8ec <vfprintf+0x250>
     8fe:	22 20       	and	r2, r2
     900:	29 f0       	breq	.+10     	; 0x90c <__stack+0xd>
     902:	b6 01       	movw	r22, r12
     904:	82 2d       	mov	r24, r2
     906:	90 e0       	ldi	r25, 0x00	; 0
     908:	0e 94 a5 32 	call	0x654a	; 0x654a <fputc>
     90c:	33 fc       	sbrc	r3, 3
     90e:	09 c0       	rjmp	.+18     	; 0x922 <__stack+0x23>
     910:	ff 20       	and	r15, r15
     912:	39 f0       	breq	.+14     	; 0x922 <__stack+0x23>
     914:	b6 01       	movw	r22, r12
     916:	80 e3       	ldi	r24, 0x30	; 48
     918:	90 e0       	ldi	r25, 0x00	; 0
     91a:	0e 94 a5 32 	call	0x654a	; 0x654a <fputc>
     91e:	fa 94       	dec	r15
     920:	f7 cf       	rjmp	.-18     	; 0x910 <__stack+0x11>
     922:	37 fe       	sbrs	r3, 7
     924:	5a c0       	rjmp	.+180    	; 0x9da <__stack+0xdb>
     926:	94 2d       	mov	r25, r4
     928:	85 2d       	mov	r24, r5
     92a:	57 fe       	sbrs	r5, 7
     92c:	02 c0       	rjmp	.+4      	; 0x932 <__stack+0x33>
     92e:	90 e0       	ldi	r25, 0x00	; 0
     930:	80 e0       	ldi	r24, 0x00	; 0
     932:	29 2e       	mov	r2, r25
     934:	38 2e       	mov	r3, r24
     936:	20 e0       	ldi	r18, 0x00	; 0
     938:	30 e0       	ldi	r19, 0x00	; 0
     93a:	a2 01       	movw	r20, r4
     93c:	4e 19       	sub	r20, r14
     93e:	51 09       	sbc	r21, r1
     940:	5d 87       	std	Y+13, r21	; 0x0d
     942:	4c 87       	std	Y+12, r20	; 0x0c
     944:	a2 01       	movw	r20, r4
     946:	42 19       	sub	r20, r2
     948:	53 09       	sbc	r21, r3
     94a:	5f 87       	std	Y+15, r21	; 0x0f
     94c:	4e 87       	std	Y+14, r20	; 0x0e
     94e:	61 2f       	mov	r22, r17
     950:	70 e0       	ldi	r23, 0x00	; 0
     952:	44 27       	eor	r20, r20
     954:	55 27       	eor	r21, r21
     956:	46 1b       	sub	r20, r22
     958:	57 0b       	sbc	r21, r23
     95a:	59 8b       	std	Y+17, r21	; 0x11
     95c:	48 8b       	std	Y+16, r20	; 0x10
     95e:	5f ef       	ldi	r21, 0xFF	; 255
     960:	25 16       	cp	r2, r21
     962:	35 06       	cpc	r3, r21
     964:	49 f4       	brne	.+18     	; 0x978 <__stack+0x79>
     966:	b6 01       	movw	r22, r12
     968:	8e e2       	ldi	r24, 0x2E	; 46
     96a:	90 e0       	ldi	r25, 0x00	; 0
     96c:	2a 8b       	std	Y+18, r18	; 0x12
     96e:	3b 8b       	std	Y+19, r19	; 0x13
     970:	0e 94 a5 32 	call	0x654a	; 0x654a <fputc>
     974:	3b 89       	ldd	r19, Y+19	; 0x13
     976:	2a 89       	ldd	r18, Y+18	; 0x12
     978:	42 14       	cp	r4, r2
     97a:	53 04       	cpc	r5, r3
     97c:	6c f0       	brlt	.+26     	; 0x998 <__stack+0x99>
     97e:	4c 85       	ldd	r20, Y+12	; 0x0c
     980:	5d 85       	ldd	r21, Y+13	; 0x0d
     982:	42 15       	cp	r20, r2
     984:	53 05       	cpc	r21, r3
     986:	44 f4       	brge	.+16     	; 0x998 <__stack+0x99>
     988:	ee 85       	ldd	r30, Y+14	; 0x0e
     98a:	ff 85       	ldd	r31, Y+15	; 0x0f
     98c:	e2 0f       	add	r30, r18
     98e:	f3 1f       	adc	r31, r19
     990:	e6 0d       	add	r30, r6
     992:	f7 1d       	adc	r31, r7
     994:	81 81       	ldd	r24, Z+1	; 0x01
     996:	01 c0       	rjmp	.+2      	; 0x99a <__stack+0x9b>
     998:	80 e3       	ldi	r24, 0x30	; 48
     99a:	51 e0       	ldi	r21, 0x01	; 1
     99c:	25 1a       	sub	r2, r21
     99e:	31 08       	sbc	r3, r1
     9a0:	2f 5f       	subi	r18, 0xFF	; 255
     9a2:	3f 4f       	sbci	r19, 0xFF	; 255
     9a4:	48 89       	ldd	r20, Y+16	; 0x10
     9a6:	59 89       	ldd	r21, Y+17	; 0x11
     9a8:	24 16       	cp	r2, r20
     9aa:	35 06       	cpc	r3, r21
     9ac:	4c f0       	brlt	.+18     	; 0x9c0 <__stack+0xc1>
     9ae:	b6 01       	movw	r22, r12
     9b0:	90 e0       	ldi	r25, 0x00	; 0
     9b2:	2a 8b       	std	Y+18, r18	; 0x12
     9b4:	3b 8b       	std	Y+19, r19	; 0x13
     9b6:	0e 94 a5 32 	call	0x654a	; 0x654a <fputc>
     9ba:	2a 89       	ldd	r18, Y+18	; 0x12
     9bc:	3b 89       	ldd	r19, Y+19	; 0x13
     9be:	cf cf       	rjmp	.-98     	; 0x95e <__stack+0x5f>
     9c0:	24 14       	cp	r2, r4
     9c2:	35 04       	cpc	r3, r5
     9c4:	39 f4       	brne	.+14     	; 0x9d4 <__stack+0xd5>
     9c6:	9a 81       	ldd	r25, Y+2	; 0x02
     9c8:	96 33       	cpi	r25, 0x36	; 54
     9ca:	18 f4       	brcc	.+6      	; 0x9d2 <__stack+0xd3>
     9cc:	95 33       	cpi	r25, 0x35	; 53
     9ce:	11 f4       	brne	.+4      	; 0x9d4 <__stack+0xd5>
     9d0:	04 ff       	sbrs	r16, 4
     9d2:	81 e3       	ldi	r24, 0x31	; 49
     9d4:	b6 01       	movw	r22, r12
     9d6:	90 e0       	ldi	r25, 0x00	; 0
     9d8:	4b c0       	rjmp	.+150    	; 0xa70 <__stack+0x171>
     9da:	8a 81       	ldd	r24, Y+2	; 0x02
     9dc:	81 33       	cpi	r24, 0x31	; 49
     9de:	09 f0       	breq	.+2      	; 0x9e2 <__stack+0xe3>
     9e0:	0f 7e       	andi	r16, 0xEF	; 239
     9e2:	b6 01       	movw	r22, r12
     9e4:	90 e0       	ldi	r25, 0x00	; 0
     9e6:	0e 94 a5 32 	call	0x654a	; 0x654a <fputc>
     9ea:	11 11       	cpse	r17, r1
     9ec:	05 c0       	rjmp	.+10     	; 0x9f8 <__stack+0xf9>
     9ee:	34 fc       	sbrc	r3, 4
     9f0:	18 c0       	rjmp	.+48     	; 0xa22 <__stack+0x123>
     9f2:	85 e6       	ldi	r24, 0x65	; 101
     9f4:	90 e0       	ldi	r25, 0x00	; 0
     9f6:	17 c0       	rjmp	.+46     	; 0xa26 <__stack+0x127>
     9f8:	b6 01       	movw	r22, r12
     9fa:	8e e2       	ldi	r24, 0x2E	; 46
     9fc:	90 e0       	ldi	r25, 0x00	; 0
     9fe:	0e 94 a5 32 	call	0x654a	; 0x654a <fputc>
     a02:	82 e0       	ldi	r24, 0x02	; 2
     a04:	ee 24       	eor	r14, r14
     a06:	e3 94       	inc	r14
     a08:	e8 0e       	add	r14, r24
     a0a:	f3 01       	movw	r30, r6
     a0c:	e8 0f       	add	r30, r24
     a0e:	f1 1d       	adc	r31, r1
     a10:	80 81       	ld	r24, Z
     a12:	b6 01       	movw	r22, r12
     a14:	90 e0       	ldi	r25, 0x00	; 0
     a16:	0e 94 a5 32 	call	0x654a	; 0x654a <fputc>
     a1a:	11 50       	subi	r17, 0x01	; 1
     a1c:	8e 2d       	mov	r24, r14
     a1e:	91 f7       	brne	.-28     	; 0xa04 <__stack+0x105>
     a20:	e6 cf       	rjmp	.-52     	; 0x9ee <__stack+0xef>
     a22:	85 e4       	ldi	r24, 0x45	; 69
     a24:	90 e0       	ldi	r25, 0x00	; 0
     a26:	b6 01       	movw	r22, r12
     a28:	0e 94 a5 32 	call	0x654a	; 0x654a <fputc>
     a2c:	57 fc       	sbrc	r5, 7
     a2e:	05 c0       	rjmp	.+10     	; 0xa3a <__stack+0x13b>
     a30:	41 14       	cp	r4, r1
     a32:	51 04       	cpc	r5, r1
     a34:	39 f4       	brne	.+14     	; 0xa44 <__stack+0x145>
     a36:	04 ff       	sbrs	r16, 4
     a38:	05 c0       	rjmp	.+10     	; 0xa44 <__stack+0x145>
     a3a:	51 94       	neg	r5
     a3c:	41 94       	neg	r4
     a3e:	51 08       	sbc	r5, r1
     a40:	8d e2       	ldi	r24, 0x2D	; 45
     a42:	01 c0       	rjmp	.+2      	; 0xa46 <__stack+0x147>
     a44:	8b e2       	ldi	r24, 0x2B	; 43
     a46:	b6 01       	movw	r22, r12
     a48:	90 e0       	ldi	r25, 0x00	; 0
     a4a:	0e 94 a5 32 	call	0x654a	; 0x654a <fputc>
     a4e:	80 e3       	ldi	r24, 0x30	; 48
     a50:	9a e0       	ldi	r25, 0x0A	; 10
     a52:	49 16       	cp	r4, r25
     a54:	51 04       	cpc	r5, r1
     a56:	2c f0       	brlt	.+10     	; 0xa62 <__stack+0x163>
     a58:	8f 5f       	subi	r24, 0xFF	; 255
     a5a:	5a e0       	ldi	r21, 0x0A	; 10
     a5c:	45 1a       	sub	r4, r21
     a5e:	51 08       	sbc	r5, r1
     a60:	f7 cf       	rjmp	.-18     	; 0xa50 <__stack+0x151>
     a62:	b6 01       	movw	r22, r12
     a64:	90 e0       	ldi	r25, 0x00	; 0
     a66:	0e 94 a5 32 	call	0x654a	; 0x654a <fputc>
     a6a:	b6 01       	movw	r22, r12
     a6c:	c2 01       	movw	r24, r4
     a6e:	c0 96       	adiw	r24, 0x30	; 48
     a70:	0e 94 a5 32 	call	0x654a	; 0x654a <fputc>
     a74:	57 c1       	rjmp	.+686    	; 0xd24 <__stack+0x425>
     a76:	83 36       	cpi	r24, 0x63	; 99
     a78:	31 f0       	breq	.+12     	; 0xa86 <__stack+0x187>
     a7a:	83 37       	cpi	r24, 0x73	; 115
     a7c:	79 f0       	breq	.+30     	; 0xa9c <__stack+0x19d>
     a7e:	83 35       	cpi	r24, 0x53	; 83
     a80:	09 f0       	breq	.+2      	; 0xa84 <__stack+0x185>
     a82:	58 c0       	rjmp	.+176    	; 0xb34 <__stack+0x235>
     a84:	21 c0       	rjmp	.+66     	; 0xac8 <__stack+0x1c9>
     a86:	52 01       	movw	r10, r4
     a88:	e2 e0       	ldi	r30, 0x02	; 2
     a8a:	ae 0e       	add	r10, r30
     a8c:	b1 1c       	adc	r11, r1
     a8e:	f2 01       	movw	r30, r4
     a90:	80 81       	ld	r24, Z
     a92:	89 83       	std	Y+1, r24	; 0x01
     a94:	01 e0       	ldi	r16, 0x01	; 1
     a96:	10 e0       	ldi	r17, 0x00	; 0
     a98:	23 01       	movw	r4, r6
     a9a:	14 c0       	rjmp	.+40     	; 0xac4 <__stack+0x1c5>
     a9c:	52 01       	movw	r10, r4
     a9e:	f2 e0       	ldi	r31, 0x02	; 2
     aa0:	af 0e       	add	r10, r31
     aa2:	b1 1c       	adc	r11, r1
     aa4:	f2 01       	movw	r30, r4
     aa6:	40 80       	ld	r4, Z
     aa8:	51 80       	ldd	r5, Z+1	; 0x01
     aaa:	26 ff       	sbrs	r18, 6
     aac:	03 c0       	rjmp	.+6      	; 0xab4 <__stack+0x1b5>
     aae:	61 2f       	mov	r22, r17
     ab0:	70 e0       	ldi	r23, 0x00	; 0
     ab2:	02 c0       	rjmp	.+4      	; 0xab8 <__stack+0x1b9>
     ab4:	6f ef       	ldi	r22, 0xFF	; 255
     ab6:	7f ef       	ldi	r23, 0xFF	; 255
     ab8:	c2 01       	movw	r24, r4
     aba:	2a 8b       	std	Y+18, r18	; 0x12
     abc:	0e 94 9a 32 	call	0x6534	; 0x6534 <strnlen>
     ac0:	8c 01       	movw	r16, r24
     ac2:	2a 89       	ldd	r18, Y+18	; 0x12
     ac4:	2f 77       	andi	r18, 0x7F	; 127
     ac6:	15 c0       	rjmp	.+42     	; 0xaf2 <__stack+0x1f3>
     ac8:	52 01       	movw	r10, r4
     aca:	f2 e0       	ldi	r31, 0x02	; 2
     acc:	af 0e       	add	r10, r31
     ace:	b1 1c       	adc	r11, r1
     ad0:	f2 01       	movw	r30, r4
     ad2:	40 80       	ld	r4, Z
     ad4:	51 80       	ldd	r5, Z+1	; 0x01
     ad6:	26 ff       	sbrs	r18, 6
     ad8:	03 c0       	rjmp	.+6      	; 0xae0 <__stack+0x1e1>
     ada:	61 2f       	mov	r22, r17
     adc:	70 e0       	ldi	r23, 0x00	; 0
     ade:	02 c0       	rjmp	.+4      	; 0xae4 <__stack+0x1e5>
     ae0:	6f ef       	ldi	r22, 0xFF	; 255
     ae2:	7f ef       	ldi	r23, 0xFF	; 255
     ae4:	c2 01       	movw	r24, r4
     ae6:	2a 8b       	std	Y+18, r18	; 0x12
     ae8:	0e 94 8f 32 	call	0x651e	; 0x651e <strnlen_P>
     aec:	8c 01       	movw	r16, r24
     aee:	2a 89       	ldd	r18, Y+18	; 0x12
     af0:	20 68       	ori	r18, 0x80	; 128
     af2:	32 2e       	mov	r3, r18
     af4:	23 fd       	sbrc	r18, 3
     af6:	1a c0       	rjmp	.+52     	; 0xb2c <__stack+0x22d>
     af8:	8f 2d       	mov	r24, r15
     afa:	90 e0       	ldi	r25, 0x00	; 0
     afc:	08 17       	cp	r16, r24
     afe:	19 07       	cpc	r17, r25
     b00:	a8 f4       	brcc	.+42     	; 0xb2c <__stack+0x22d>
     b02:	b6 01       	movw	r22, r12
     b04:	80 e2       	ldi	r24, 0x20	; 32
     b06:	90 e0       	ldi	r25, 0x00	; 0
     b08:	0e 94 a5 32 	call	0x654a	; 0x654a <fputc>
     b0c:	fa 94       	dec	r15
     b0e:	f4 cf       	rjmp	.-24     	; 0xaf8 <__stack+0x1f9>
     b10:	f2 01       	movw	r30, r4
     b12:	37 fc       	sbrc	r3, 7
     b14:	85 91       	lpm	r24, Z+
     b16:	37 fe       	sbrs	r3, 7
     b18:	81 91       	ld	r24, Z+
     b1a:	2f 01       	movw	r4, r30
     b1c:	b6 01       	movw	r22, r12
     b1e:	90 e0       	ldi	r25, 0x00	; 0
     b20:	0e 94 a5 32 	call	0x654a	; 0x654a <fputc>
     b24:	f1 10       	cpse	r15, r1
     b26:	fa 94       	dec	r15
     b28:	01 50       	subi	r16, 0x01	; 1
     b2a:	11 09       	sbc	r17, r1
     b2c:	01 15       	cp	r16, r1
     b2e:	11 05       	cpc	r17, r1
     b30:	79 f7       	brne	.-34     	; 0xb10 <__stack+0x211>
     b32:	f8 c0       	rjmp	.+496    	; 0xd24 <__stack+0x425>
     b34:	84 36       	cpi	r24, 0x64	; 100
     b36:	11 f0       	breq	.+4      	; 0xb3c <__stack+0x23d>
     b38:	89 36       	cpi	r24, 0x69	; 105
     b3a:	59 f5       	brne	.+86     	; 0xb92 <__stack+0x293>
     b3c:	52 01       	movw	r10, r4
     b3e:	27 ff       	sbrs	r18, 7
     b40:	09 c0       	rjmp	.+18     	; 0xb54 <__stack+0x255>
     b42:	f4 e0       	ldi	r31, 0x04	; 4
     b44:	af 0e       	add	r10, r31
     b46:	b1 1c       	adc	r11, r1
     b48:	f2 01       	movw	r30, r4
     b4a:	60 81       	ld	r22, Z
     b4c:	71 81       	ldd	r23, Z+1	; 0x01
     b4e:	82 81       	ldd	r24, Z+2	; 0x02
     b50:	93 81       	ldd	r25, Z+3	; 0x03
     b52:	0a c0       	rjmp	.+20     	; 0xb68 <__stack+0x269>
     b54:	f2 e0       	ldi	r31, 0x02	; 2
     b56:	af 0e       	add	r10, r31
     b58:	b1 1c       	adc	r11, r1
     b5a:	f2 01       	movw	r30, r4
     b5c:	60 81       	ld	r22, Z
     b5e:	71 81       	ldd	r23, Z+1	; 0x01
     b60:	07 2e       	mov	r0, r23
     b62:	00 0c       	add	r0, r0
     b64:	88 0b       	sbc	r24, r24
     b66:	99 0b       	sbc	r25, r25
     b68:	2f 76       	andi	r18, 0x6F	; 111
     b6a:	32 2e       	mov	r3, r18
     b6c:	97 ff       	sbrs	r25, 7
     b6e:	09 c0       	rjmp	.+18     	; 0xb82 <__stack+0x283>
     b70:	90 95       	com	r25
     b72:	80 95       	com	r24
     b74:	70 95       	com	r23
     b76:	61 95       	neg	r22
     b78:	7f 4f       	sbci	r23, 0xFF	; 255
     b7a:	8f 4f       	sbci	r24, 0xFF	; 255
     b7c:	9f 4f       	sbci	r25, 0xFF	; 255
     b7e:	20 68       	ori	r18, 0x80	; 128
     b80:	32 2e       	mov	r3, r18
     b82:	2a e0       	ldi	r18, 0x0A	; 10
     b84:	30 e0       	ldi	r19, 0x00	; 0
     b86:	a3 01       	movw	r20, r6
     b88:	0e 94 35 33 	call	0x666a	; 0x666a <__ultoa_invert>
     b8c:	e8 2e       	mov	r14, r24
     b8e:	e6 18       	sub	r14, r6
     b90:	3f c0       	rjmp	.+126    	; 0xc10 <__stack+0x311>
     b92:	02 2f       	mov	r16, r18
     b94:	85 37       	cpi	r24, 0x75	; 117
     b96:	21 f4       	brne	.+8      	; 0xba0 <__stack+0x2a1>
     b98:	0f 7e       	andi	r16, 0xEF	; 239
     b9a:	2a e0       	ldi	r18, 0x0A	; 10
     b9c:	30 e0       	ldi	r19, 0x00	; 0
     b9e:	1d c0       	rjmp	.+58     	; 0xbda <__stack+0x2db>
     ba0:	09 7f       	andi	r16, 0xF9	; 249
     ba2:	8f 36       	cpi	r24, 0x6F	; 111
     ba4:	91 f0       	breq	.+36     	; 0xbca <__stack+0x2cb>
     ba6:	18 f4       	brcc	.+6      	; 0xbae <__stack+0x2af>
     ba8:	88 35       	cpi	r24, 0x58	; 88
     baa:	59 f0       	breq	.+22     	; 0xbc2 <__stack+0x2c3>
     bac:	c5 c0       	rjmp	.+394    	; 0xd38 <__stack+0x439>
     bae:	80 37       	cpi	r24, 0x70	; 112
     bb0:	19 f0       	breq	.+6      	; 0xbb8 <__stack+0x2b9>
     bb2:	88 37       	cpi	r24, 0x78	; 120
     bb4:	11 f0       	breq	.+4      	; 0xbba <__stack+0x2bb>
     bb6:	c0 c0       	rjmp	.+384    	; 0xd38 <__stack+0x439>
     bb8:	00 61       	ori	r16, 0x10	; 16
     bba:	04 ff       	sbrs	r16, 4
     bbc:	09 c0       	rjmp	.+18     	; 0xbd0 <__stack+0x2d1>
     bbe:	04 60       	ori	r16, 0x04	; 4
     bc0:	07 c0       	rjmp	.+14     	; 0xbd0 <__stack+0x2d1>
     bc2:	24 ff       	sbrs	r18, 4
     bc4:	08 c0       	rjmp	.+16     	; 0xbd6 <__stack+0x2d7>
     bc6:	06 60       	ori	r16, 0x06	; 6
     bc8:	06 c0       	rjmp	.+12     	; 0xbd6 <__stack+0x2d7>
     bca:	28 e0       	ldi	r18, 0x08	; 8
     bcc:	30 e0       	ldi	r19, 0x00	; 0
     bce:	05 c0       	rjmp	.+10     	; 0xbda <__stack+0x2db>
     bd0:	20 e1       	ldi	r18, 0x10	; 16
     bd2:	30 e0       	ldi	r19, 0x00	; 0
     bd4:	02 c0       	rjmp	.+4      	; 0xbda <__stack+0x2db>
     bd6:	20 e1       	ldi	r18, 0x10	; 16
     bd8:	32 e0       	ldi	r19, 0x02	; 2
     bda:	52 01       	movw	r10, r4
     bdc:	07 ff       	sbrs	r16, 7
     bde:	09 c0       	rjmp	.+18     	; 0xbf2 <__stack+0x2f3>
     be0:	f4 e0       	ldi	r31, 0x04	; 4
     be2:	af 0e       	add	r10, r31
     be4:	b1 1c       	adc	r11, r1
     be6:	f2 01       	movw	r30, r4
     be8:	60 81       	ld	r22, Z
     bea:	71 81       	ldd	r23, Z+1	; 0x01
     bec:	82 81       	ldd	r24, Z+2	; 0x02
     bee:	93 81       	ldd	r25, Z+3	; 0x03
     bf0:	08 c0       	rjmp	.+16     	; 0xc02 <__stack+0x303>
     bf2:	f2 e0       	ldi	r31, 0x02	; 2
     bf4:	af 0e       	add	r10, r31
     bf6:	b1 1c       	adc	r11, r1
     bf8:	f2 01       	movw	r30, r4
     bfa:	60 81       	ld	r22, Z
     bfc:	71 81       	ldd	r23, Z+1	; 0x01
     bfe:	80 e0       	ldi	r24, 0x00	; 0
     c00:	90 e0       	ldi	r25, 0x00	; 0
     c02:	a3 01       	movw	r20, r6
     c04:	0e 94 35 33 	call	0x666a	; 0x666a <__ultoa_invert>
     c08:	e8 2e       	mov	r14, r24
     c0a:	e6 18       	sub	r14, r6
     c0c:	0f 77       	andi	r16, 0x7F	; 127
     c0e:	30 2e       	mov	r3, r16
     c10:	36 fe       	sbrs	r3, 6
     c12:	0b c0       	rjmp	.+22     	; 0xc2a <__stack+0x32b>
     c14:	33 2d       	mov	r19, r3
     c16:	3e 7f       	andi	r19, 0xFE	; 254
     c18:	e1 16       	cp	r14, r17
     c1a:	50 f4       	brcc	.+20     	; 0xc30 <__stack+0x331>
     c1c:	34 fe       	sbrs	r3, 4
     c1e:	0a c0       	rjmp	.+20     	; 0xc34 <__stack+0x335>
     c20:	32 fc       	sbrc	r3, 2
     c22:	08 c0       	rjmp	.+16     	; 0xc34 <__stack+0x335>
     c24:	33 2d       	mov	r19, r3
     c26:	3e 7e       	andi	r19, 0xEE	; 238
     c28:	05 c0       	rjmp	.+10     	; 0xc34 <__stack+0x335>
     c2a:	0e 2d       	mov	r16, r14
     c2c:	33 2d       	mov	r19, r3
     c2e:	03 c0       	rjmp	.+6      	; 0xc36 <__stack+0x337>
     c30:	0e 2d       	mov	r16, r14
     c32:	01 c0       	rjmp	.+2      	; 0xc36 <__stack+0x337>
     c34:	01 2f       	mov	r16, r17
     c36:	34 ff       	sbrs	r19, 4
     c38:	0c c0       	rjmp	.+24     	; 0xc52 <__stack+0x353>
     c3a:	fe 01       	movw	r30, r28
     c3c:	ee 0d       	add	r30, r14
     c3e:	f1 1d       	adc	r31, r1
     c40:	80 81       	ld	r24, Z
     c42:	80 33       	cpi	r24, 0x30	; 48
     c44:	11 f4       	brne	.+4      	; 0xc4a <__stack+0x34b>
     c46:	39 7e       	andi	r19, 0xE9	; 233
     c48:	08 c0       	rjmp	.+16     	; 0xc5a <__stack+0x35b>
     c4a:	32 ff       	sbrs	r19, 2
     c4c:	05 c0       	rjmp	.+10     	; 0xc58 <__stack+0x359>
     c4e:	0e 5f       	subi	r16, 0xFE	; 254
     c50:	04 c0       	rjmp	.+8      	; 0xc5a <__stack+0x35b>
     c52:	83 2f       	mov	r24, r19
     c54:	86 78       	andi	r24, 0x86	; 134
     c56:	09 f0       	breq	.+2      	; 0xc5a <__stack+0x35b>
     c58:	0f 5f       	subi	r16, 0xFF	; 255
     c5a:	33 fd       	sbrc	r19, 3
     c5c:	13 c0       	rjmp	.+38     	; 0xc84 <__stack+0x385>
     c5e:	30 ff       	sbrs	r19, 0
     c60:	06 c0       	rjmp	.+12     	; 0xc6e <__stack+0x36f>
     c62:	1e 2d       	mov	r17, r14
     c64:	0f 15       	cp	r16, r15
     c66:	18 f4       	brcc	.+6      	; 0xc6e <__stack+0x36f>
     c68:	1f 0d       	add	r17, r15
     c6a:	10 1b       	sub	r17, r16
     c6c:	0f 2d       	mov	r16, r15
     c6e:	0f 15       	cp	r16, r15
     c70:	68 f4       	brcc	.+26     	; 0xc8c <__stack+0x38d>
     c72:	b6 01       	movw	r22, r12
     c74:	80 e2       	ldi	r24, 0x20	; 32
     c76:	90 e0       	ldi	r25, 0x00	; 0
     c78:	3b 8b       	std	Y+19, r19	; 0x13
     c7a:	0e 94 a5 32 	call	0x654a	; 0x654a <fputc>
     c7e:	0f 5f       	subi	r16, 0xFF	; 255
     c80:	3b 89       	ldd	r19, Y+19	; 0x13
     c82:	f5 cf       	rjmp	.-22     	; 0xc6e <__stack+0x36f>
     c84:	0f 15       	cp	r16, r15
     c86:	10 f4       	brcc	.+4      	; 0xc8c <__stack+0x38d>
     c88:	f0 1a       	sub	r15, r16
     c8a:	01 c0       	rjmp	.+2      	; 0xc8e <__stack+0x38f>
     c8c:	f1 2c       	mov	r15, r1
     c8e:	34 ff       	sbrs	r19, 4
     c90:	12 c0       	rjmp	.+36     	; 0xcb6 <__stack+0x3b7>
     c92:	b6 01       	movw	r22, r12
     c94:	80 e3       	ldi	r24, 0x30	; 48
     c96:	90 e0       	ldi	r25, 0x00	; 0
     c98:	3b 8b       	std	Y+19, r19	; 0x13
     c9a:	0e 94 a5 32 	call	0x654a	; 0x654a <fputc>
     c9e:	3b 89       	ldd	r19, Y+19	; 0x13
     ca0:	32 ff       	sbrs	r19, 2
     ca2:	17 c0       	rjmp	.+46     	; 0xcd2 <__stack+0x3d3>
     ca4:	31 fd       	sbrc	r19, 1
     ca6:	03 c0       	rjmp	.+6      	; 0xcae <__stack+0x3af>
     ca8:	88 e7       	ldi	r24, 0x78	; 120
     caa:	90 e0       	ldi	r25, 0x00	; 0
     cac:	02 c0       	rjmp	.+4      	; 0xcb2 <__stack+0x3b3>
     cae:	88 e5       	ldi	r24, 0x58	; 88
     cb0:	90 e0       	ldi	r25, 0x00	; 0
     cb2:	b6 01       	movw	r22, r12
     cb4:	0c c0       	rjmp	.+24     	; 0xcce <__stack+0x3cf>
     cb6:	83 2f       	mov	r24, r19
     cb8:	86 78       	andi	r24, 0x86	; 134
     cba:	59 f0       	breq	.+22     	; 0xcd2 <__stack+0x3d3>
     cbc:	31 ff       	sbrs	r19, 1
     cbe:	02 c0       	rjmp	.+4      	; 0xcc4 <__stack+0x3c5>
     cc0:	8b e2       	ldi	r24, 0x2B	; 43
     cc2:	01 c0       	rjmp	.+2      	; 0xcc6 <__stack+0x3c7>
     cc4:	80 e2       	ldi	r24, 0x20	; 32
     cc6:	37 fd       	sbrc	r19, 7
     cc8:	8d e2       	ldi	r24, 0x2D	; 45
     cca:	b6 01       	movw	r22, r12
     ccc:	90 e0       	ldi	r25, 0x00	; 0
     cce:	0e 94 a5 32 	call	0x654a	; 0x654a <fputc>
     cd2:	e1 16       	cp	r14, r17
     cd4:	38 f4       	brcc	.+14     	; 0xce4 <__stack+0x3e5>
     cd6:	b6 01       	movw	r22, r12
     cd8:	80 e3       	ldi	r24, 0x30	; 48
     cda:	90 e0       	ldi	r25, 0x00	; 0
     cdc:	0e 94 a5 32 	call	0x654a	; 0x654a <fputc>
     ce0:	11 50       	subi	r17, 0x01	; 1
     ce2:	f7 cf       	rjmp	.-18     	; 0xcd2 <__stack+0x3d3>
     ce4:	ea 94       	dec	r14
     ce6:	f3 01       	movw	r30, r6
     ce8:	ee 0d       	add	r30, r14
     cea:	f1 1d       	adc	r31, r1
     cec:	80 81       	ld	r24, Z
     cee:	b6 01       	movw	r22, r12
     cf0:	90 e0       	ldi	r25, 0x00	; 0
     cf2:	0e 94 a5 32 	call	0x654a	; 0x654a <fputc>
     cf6:	e1 10       	cpse	r14, r1
     cf8:	f5 cf       	rjmp	.-22     	; 0xce4 <__stack+0x3e5>
     cfa:	14 c0       	rjmp	.+40     	; 0xd24 <__stack+0x425>
     cfc:	f4 e0       	ldi	r31, 0x04	; 4
     cfe:	ff 15       	cp	r31, r15
     d00:	58 f5       	brcc	.+86     	; 0xd58 <__stack+0x459>
     d02:	84 e0       	ldi	r24, 0x04	; 4
     d04:	f8 1a       	sub	r15, r24
     d06:	33 fe       	sbrs	r3, 3
     d08:	1e c0       	rjmp	.+60     	; 0xd46 <__stack+0x447>
     d0a:	21 10       	cpse	r2, r1
     d0c:	26 c0       	rjmp	.+76     	; 0xd5a <__stack+0x45b>
     d0e:	03 ff       	sbrs	r16, 3
     d10:	2a c0       	rjmp	.+84     	; 0xd66 <__stack+0x467>
     d12:	0c e8       	ldi	r16, 0x8C	; 140
     d14:	10 e0       	ldi	r17, 0x00	; 0
     d16:	f3 2d       	mov	r31, r3
     d18:	f0 71       	andi	r31, 0x10	; 16
     d1a:	3f 2e       	mov	r3, r31
     d1c:	f8 01       	movw	r30, r16
     d1e:	84 91       	lpm	r24, Z
     d20:	81 11       	cpse	r24, r1
     d22:	24 c0       	rjmp	.+72     	; 0xd6c <__stack+0x46d>
     d24:	ff 20       	and	r15, r15
     d26:	09 f4       	brne	.+2      	; 0xd2a <__stack+0x42b>
     d28:	e5 cc       	rjmp	.-1590   	; 0x6f4 <vfprintf+0x58>
     d2a:	b6 01       	movw	r22, r12
     d2c:	80 e2       	ldi	r24, 0x20	; 32
     d2e:	90 e0       	ldi	r25, 0x00	; 0
     d30:	0e 94 a5 32 	call	0x654a	; 0x654a <fputc>
     d34:	fa 94       	dec	r15
     d36:	f6 cf       	rjmp	.-20     	; 0xd24 <__stack+0x425>
     d38:	f6 01       	movw	r30, r12
     d3a:	86 81       	ldd	r24, Z+6	; 0x06
     d3c:	97 81       	ldd	r25, Z+7	; 0x07
     d3e:	26 c0       	rjmp	.+76     	; 0xd8c <__stack+0x48d>
     d40:	8f ef       	ldi	r24, 0xFF	; 255
     d42:	9f ef       	ldi	r25, 0xFF	; 255
     d44:	23 c0       	rjmp	.+70     	; 0xd8c <__stack+0x48d>
     d46:	b6 01       	movw	r22, r12
     d48:	80 e2       	ldi	r24, 0x20	; 32
     d4a:	90 e0       	ldi	r25, 0x00	; 0
     d4c:	0e 94 a5 32 	call	0x654a	; 0x654a <fputc>
     d50:	fa 94       	dec	r15
     d52:	f1 10       	cpse	r15, r1
     d54:	f8 cf       	rjmp	.-16     	; 0xd46 <__stack+0x447>
     d56:	d9 cf       	rjmp	.-78     	; 0xd0a <__stack+0x40b>
     d58:	f1 2c       	mov	r15, r1
     d5a:	b6 01       	movw	r22, r12
     d5c:	82 2d       	mov	r24, r2
     d5e:	90 e0       	ldi	r25, 0x00	; 0
     d60:	0e 94 a5 32 	call	0x654a	; 0x654a <fputc>
     d64:	d4 cf       	rjmp	.-88     	; 0xd0e <__stack+0x40f>
     d66:	00 e9       	ldi	r16, 0x90	; 144
     d68:	10 e0       	ldi	r17, 0x00	; 0
     d6a:	d5 cf       	rjmp	.-86     	; 0xd16 <__stack+0x417>
     d6c:	31 10       	cpse	r3, r1
     d6e:	80 52       	subi	r24, 0x20	; 32
     d70:	b6 01       	movw	r22, r12
     d72:	90 e0       	ldi	r25, 0x00	; 0
     d74:	0e 94 a5 32 	call	0x654a	; 0x654a <fputc>
     d78:	0f 5f       	subi	r16, 0xFF	; 255
     d7a:	1f 4f       	sbci	r17, 0xFF	; 255
     d7c:	cf cf       	rjmp	.-98     	; 0xd1c <__stack+0x41d>
     d7e:	23 e0       	ldi	r18, 0x03	; 3
     d80:	2f 15       	cp	r18, r15
     d82:	10 f4       	brcc	.+4      	; 0xd88 <__stack+0x489>
     d84:	83 e0       	ldi	r24, 0x03	; 3
     d86:	be cf       	rjmp	.-132    	; 0xd04 <__stack+0x405>
     d88:	f1 2c       	mov	r15, r1
     d8a:	c1 cf       	rjmp	.-126    	; 0xd0e <__stack+0x40f>
     d8c:	63 96       	adiw	r28, 0x13	; 19
     d8e:	e2 e1       	ldi	r30, 0x12	; 18
     d90:	0c 94 fd 2f 	jmp	0x5ffa	; 0x5ffa <__epilogue_restores__>

00000d94 <disk_status>:
     d94:	81 11       	cpse	r24, r1
     d96:	02 c0       	rjmp	.+4      	; 0xd9c <disk_status+0x8>
     d98:	0c 94 d3 18 	jmp	0x31a6	; 0x31a6 <mmc_disk_status>
     d9c:	81 e0       	ldi	r24, 0x01	; 1
     d9e:	08 95       	ret

00000da0 <disk_initialize>:
     da0:	81 11       	cpse	r24, r1
     da2:	02 c0       	rjmp	.+4      	; 0xda8 <disk_initialize+0x8>
     da4:	0c 94 0b 18 	jmp	0x3016	; 0x3016 <mmc_disk_initialize>
     da8:	81 e0       	ldi	r24, 0x01	; 1
     daa:	08 95       	ret

00000dac <disk_read>:
     dac:	0f 93       	push	r16
     dae:	1f 93       	push	r17
     db0:	fb 01       	movw	r30, r22
     db2:	ba 01       	movw	r22, r20
     db4:	a9 01       	movw	r20, r18
     db6:	98 01       	movw	r18, r16
     db8:	81 11       	cpse	r24, r1
     dba:	05 c0       	rjmp	.+10     	; 0xdc6 <disk_read+0x1a>
     dbc:	cf 01       	movw	r24, r30
     dbe:	1f 91       	pop	r17
     dc0:	0f 91       	pop	r16
     dc2:	0c 94 d6 18 	jmp	0x31ac	; 0x31ac <mmc_disk_read>
     dc6:	84 e0       	ldi	r24, 0x04	; 4
     dc8:	1f 91       	pop	r17
     dca:	0f 91       	pop	r16
     dcc:	08 95       	ret

00000dce <disk_write>:
     dce:	0f 93       	push	r16
     dd0:	1f 93       	push	r17
     dd2:	fb 01       	movw	r30, r22
     dd4:	ba 01       	movw	r22, r20
     dd6:	a9 01       	movw	r20, r18
     dd8:	98 01       	movw	r18, r16
     dda:	81 11       	cpse	r24, r1
     ddc:	05 c0       	rjmp	.+10     	; 0xde8 <disk_write+0x1a>
     dde:	cf 01       	movw	r24, r30
     de0:	1f 91       	pop	r17
     de2:	0f 91       	pop	r16
     de4:	0c 94 18 19 	jmp	0x3230	; 0x3230 <mmc_disk_write>
     de8:	84 e0       	ldi	r24, 0x04	; 4
     dea:	1f 91       	pop	r17
     dec:	0f 91       	pop	r16
     dee:	08 95       	ret

00000df0 <disk_ioctl>:
     df0:	96 2f       	mov	r25, r22
     df2:	81 11       	cpse	r24, r1
     df4:	04 c0       	rjmp	.+8      	; 0xdfe <disk_ioctl+0xe>
     df6:	ba 01       	movw	r22, r20
     df8:	89 2f       	mov	r24, r25
     dfa:	0c 94 7f 19 	jmp	0x32fe	; 0x32fe <mmc_disk_ioctl>
     dfe:	84 e0       	ldi	r24, 0x04	; 4
     e00:	08 95       	ret

00000e02 <disk_timerproc>:
     e02:	0c 94 30 1b 	jmp	0x3660	; 0x3660 <mmc_disk_timerproc>

00000e06 <ld_dword>:
     e06:	fc 01       	movw	r30, r24
     e08:	63 81       	ldd	r22, Z+3	; 0x03
     e0a:	86 2f       	mov	r24, r22
     e0c:	90 e0       	ldi	r25, 0x00	; 0
     e0e:	a0 e0       	ldi	r26, 0x00	; 0
     e10:	b0 e0       	ldi	r27, 0x00	; 0
     e12:	ba 2f       	mov	r27, r26
     e14:	a9 2f       	mov	r26, r25
     e16:	98 2f       	mov	r25, r24
     e18:	88 27       	eor	r24, r24
     e1a:	22 81       	ldd	r18, Z+2	; 0x02
     e1c:	82 2b       	or	r24, r18
     e1e:	ba 2f       	mov	r27, r26
     e20:	a9 2f       	mov	r26, r25
     e22:	98 2f       	mov	r25, r24
     e24:	88 27       	eor	r24, r24
     e26:	21 81       	ldd	r18, Z+1	; 0x01
     e28:	82 2b       	or	r24, r18
     e2a:	ba 2f       	mov	r27, r26
     e2c:	a9 2f       	mov	r26, r25
     e2e:	98 2f       	mov	r25, r24
     e30:	88 27       	eor	r24, r24
     e32:	20 81       	ld	r18, Z
     e34:	bc 01       	movw	r22, r24
     e36:	cd 01       	movw	r24, r26
     e38:	62 2b       	or	r22, r18
     e3a:	08 95       	ret

00000e3c <st_dword>:
     e3c:	fc 01       	movw	r30, r24
     e3e:	40 83       	st	Z, r20
     e40:	51 83       	std	Z+1, r21	; 0x01
     e42:	62 83       	std	Z+2, r22	; 0x02
     e44:	73 83       	std	Z+3, r23	; 0x03
     e46:	08 95       	ret

00000e48 <clust2sect>:
     e48:	0f 93       	push	r16
     e4a:	1f 93       	push	r17
     e4c:	fc 01       	movw	r30, r24
     e4e:	9a 01       	movw	r18, r20
     e50:	ab 01       	movw	r20, r22
     e52:	22 50       	subi	r18, 0x02	; 2
     e54:	31 09       	sbc	r19, r1
     e56:	41 09       	sbc	r20, r1
     e58:	51 09       	sbc	r21, r1
     e5a:	83 89       	ldd	r24, Z+19	; 0x13
     e5c:	94 89       	ldd	r25, Z+20	; 0x14
     e5e:	a5 89       	ldd	r26, Z+21	; 0x15
     e60:	b6 89       	ldd	r27, Z+22	; 0x16
     e62:	02 97       	sbiw	r24, 0x02	; 2
     e64:	a1 09       	sbc	r26, r1
     e66:	b1 09       	sbc	r27, r1
     e68:	28 17       	cp	r18, r24
     e6a:	39 07       	cpc	r19, r25
     e6c:	4a 07       	cpc	r20, r26
     e6e:	5b 07       	cpc	r21, r27
     e70:	68 f4       	brcc	.+26     	; 0xe8c <clust2sect+0x44>
     e72:	a1 85       	ldd	r26, Z+9	; 0x09
     e74:	b2 85       	ldd	r27, Z+10	; 0x0a
     e76:	0e 94 d7 2f 	call	0x5fae	; 0x5fae <__muluhisi3>
     e7a:	07 a1       	ldd	r16, Z+39	; 0x27
     e7c:	10 a5       	ldd	r17, Z+40	; 0x28
     e7e:	21 a5       	ldd	r18, Z+41	; 0x29
     e80:	32 a5       	ldd	r19, Z+42	; 0x2a
     e82:	60 0f       	add	r22, r16
     e84:	71 1f       	adc	r23, r17
     e86:	82 1f       	adc	r24, r18
     e88:	93 1f       	adc	r25, r19
     e8a:	03 c0       	rjmp	.+6      	; 0xe92 <clust2sect+0x4a>
     e8c:	60 e0       	ldi	r22, 0x00	; 0
     e8e:	70 e0       	ldi	r23, 0x00	; 0
     e90:	cb 01       	movw	r24, r22
     e92:	1f 91       	pop	r17
     e94:	0f 91       	pop	r16
     e96:	08 95       	ret

00000e98 <get_ldnumber>:
     e98:	fc 01       	movw	r30, r24
     e9a:	20 81       	ld	r18, Z
     e9c:	31 81       	ldd	r19, Z+1	; 0x01
     e9e:	21 15       	cp	r18, r1
     ea0:	31 05       	cpc	r19, r1
     ea2:	b1 f0       	breq	.+44     	; 0xed0 <get_ldnumber+0x38>
     ea4:	f9 01       	movw	r30, r18
     ea6:	bf 01       	movw	r22, r30
     ea8:	41 91       	ld	r20, Z+
     eaa:	41 32       	cpi	r20, 0x21	; 33
     eac:	70 f0       	brcs	.+28     	; 0xeca <get_ldnumber+0x32>
     eae:	4a 33       	cpi	r20, 0x3A	; 58
     eb0:	d1 f7       	brne	.-12     	; 0xea6 <get_ldnumber+0xe>
     eb2:	f9 01       	movw	r30, r18
     eb4:	41 91       	ld	r20, Z+
     eb6:	6e 17       	cp	r22, r30
     eb8:	7f 07       	cpc	r23, r31
     eba:	51 f4       	brne	.+20     	; 0xed0 <get_ldnumber+0x38>
     ebc:	40 33       	cpi	r20, 0x30	; 48
     ebe:	41 f4       	brne	.+16     	; 0xed0 <get_ldnumber+0x38>
     ec0:	2e 5f       	subi	r18, 0xFE	; 254
     ec2:	3f 4f       	sbci	r19, 0xFF	; 255
     ec4:	fc 01       	movw	r30, r24
     ec6:	31 83       	std	Z+1, r19	; 0x01
     ec8:	20 83       	st	Z, r18
     eca:	80 e0       	ldi	r24, 0x00	; 0
     ecc:	90 e0       	ldi	r25, 0x00	; 0
     ece:	08 95       	ret
     ed0:	8f ef       	ldi	r24, 0xFF	; 255
     ed2:	9f ef       	ldi	r25, 0xFF	; 255
     ed4:	08 95       	ret

00000ed6 <validate>:
     ed6:	0f 93       	push	r16
     ed8:	1f 93       	push	r17
     eda:	cf 93       	push	r28
     edc:	df 93       	push	r29
     ede:	ec 01       	movw	r28, r24
     ee0:	8b 01       	movw	r16, r22
     ee2:	89 2b       	or	r24, r25
     ee4:	29 f4       	brne	.+10     	; 0xef0 <validate+0x1a>
     ee6:	f8 01       	movw	r30, r16
     ee8:	11 82       	std	Z+1, r1	; 0x01
     eea:	10 82       	st	Z, r1
     eec:	89 e0       	ldi	r24, 0x09	; 9
     eee:	18 c0       	rjmp	.+48     	; 0xf20 <validate+0x4a>
     ef0:	e8 81       	ld	r30, Y
     ef2:	f9 81       	ldd	r31, Y+1	; 0x01
     ef4:	30 97       	sbiw	r30, 0x00	; 0
     ef6:	b9 f3       	breq	.-18     	; 0xee6 <validate+0x10>
     ef8:	80 81       	ld	r24, Z
     efa:	88 23       	and	r24, r24
     efc:	a1 f3       	breq	.-24     	; 0xee6 <validate+0x10>
     efe:	25 81       	ldd	r18, Z+5	; 0x05
     f00:	36 81       	ldd	r19, Z+6	; 0x06
     f02:	8a 81       	ldd	r24, Y+2	; 0x02
     f04:	9b 81       	ldd	r25, Y+3	; 0x03
     f06:	28 17       	cp	r18, r24
     f08:	39 07       	cpc	r19, r25
     f0a:	69 f7       	brne	.-38     	; 0xee6 <validate+0x10>
     f0c:	81 81       	ldd	r24, Z+1	; 0x01
     f0e:	42 df       	rcall	.-380    	; 0xd94 <disk_status>
     f10:	80 fd       	sbrc	r24, 0
     f12:	e9 cf       	rjmp	.-46     	; 0xee6 <validate+0x10>
     f14:	88 81       	ld	r24, Y
     f16:	99 81       	ldd	r25, Y+1	; 0x01
     f18:	f8 01       	movw	r30, r16
     f1a:	91 83       	std	Z+1, r25	; 0x01
     f1c:	80 83       	st	Z, r24
     f1e:	80 e0       	ldi	r24, 0x00	; 0
     f20:	df 91       	pop	r29
     f22:	cf 91       	pop	r28
     f24:	1f 91       	pop	r17
     f26:	0f 91       	pop	r16
     f28:	08 95       	ret

00000f2a <mem_cpy.part.0>:
     f2a:	fb 01       	movw	r30, r22
     f2c:	48 0f       	add	r20, r24
     f2e:	59 1f       	adc	r21, r25
     f30:	21 91       	ld	r18, Z+
     f32:	dc 01       	movw	r26, r24
     f34:	2d 93       	st	X+, r18
     f36:	cd 01       	movw	r24, r26
     f38:	a4 17       	cp	r26, r20
     f3a:	b5 07       	cpc	r27, r21
     f3c:	c9 f7       	brne	.-14     	; 0xf30 <mem_cpy.part.0+0x6>
     f3e:	08 95       	ret

00000f40 <ld_clust.isra.1>:
     f40:	fb 01       	movw	r30, r22
     f42:	43 8d       	ldd	r20, Z+27	; 0x1b
     f44:	50 e0       	ldi	r21, 0x00	; 0
     f46:	54 2f       	mov	r21, r20
     f48:	44 27       	eor	r20, r20
     f4a:	92 8d       	ldd	r25, Z+26	; 0x1a
     f4c:	49 2b       	or	r20, r25
     f4e:	60 e0       	ldi	r22, 0x00	; 0
     f50:	70 e0       	ldi	r23, 0x00	; 0
     f52:	83 30       	cpi	r24, 0x03	; 3
     f54:	79 f4       	brne	.+30     	; 0xf74 <ld_clust.isra.1+0x34>
     f56:	85 89       	ldd	r24, Z+21	; 0x15
     f58:	90 e0       	ldi	r25, 0x00	; 0
     f5a:	98 2f       	mov	r25, r24
     f5c:	88 27       	eor	r24, r24
     f5e:	24 89       	ldd	r18, Z+20	; 0x14
     f60:	82 2b       	or	r24, r18
     f62:	a0 e0       	ldi	r26, 0x00	; 0
     f64:	b0 e0       	ldi	r27, 0x00	; 0
     f66:	dc 01       	movw	r26, r24
     f68:	99 27       	eor	r25, r25
     f6a:	88 27       	eor	r24, r24
     f6c:	48 2b       	or	r20, r24
     f6e:	59 2b       	or	r21, r25
     f70:	6a 2b       	or	r22, r26
     f72:	7b 2b       	or	r23, r27
     f74:	cb 01       	movw	r24, r22
     f76:	ba 01       	movw	r22, r20
     f78:	08 95       	ret

00000f7a <st_clust.isra.2>:
     f7a:	fb 01       	movw	r30, r22
     f7c:	22 8f       	std	Z+26, r18	; 0x1a
     f7e:	33 8f       	std	Z+27, r19	; 0x1b
     f80:	dc 01       	movw	r26, r24
     f82:	8c 91       	ld	r24, X
     f84:	83 30       	cpi	r24, 0x03	; 3
     f86:	29 f4       	brne	.+10     	; 0xf92 <st_clust.isra.2+0x18>
     f88:	ca 01       	movw	r24, r20
     f8a:	aa 27       	eor	r26, r26
     f8c:	bb 27       	eor	r27, r27
     f8e:	84 8b       	std	Z+20, r24	; 0x14
     f90:	95 8b       	std	Z+21, r25	; 0x15
     f92:	08 95       	ret

00000f94 <sync_window.part.4>:
     f94:	8f 92       	push	r8
     f96:	9f 92       	push	r9
     f98:	af 92       	push	r10
     f9a:	bf 92       	push	r11
     f9c:	cf 92       	push	r12
     f9e:	df 92       	push	r13
     fa0:	ef 92       	push	r14
     fa2:	ff 92       	push	r15
     fa4:	0f 93       	push	r16
     fa6:	1f 93       	push	r17
     fa8:	cf 93       	push	r28
     faa:	df 93       	push	r29
     fac:	ec 01       	movw	r28, r24
     fae:	8b a4       	ldd	r8, Y+43	; 0x2b
     fb0:	9c a4       	ldd	r9, Y+44	; 0x2c
     fb2:	ad a4       	ldd	r10, Y+45	; 0x2d
     fb4:	be a4       	ldd	r11, Y+46	; 0x2e
     fb6:	6c 01       	movw	r12, r24
     fb8:	8f e2       	ldi	r24, 0x2F	; 47
     fba:	c8 0e       	add	r12, r24
     fbc:	d1 1c       	adc	r13, r1
     fbe:	01 e0       	ldi	r16, 0x01	; 1
     fc0:	10 e0       	ldi	r17, 0x00	; 0
     fc2:	a5 01       	movw	r20, r10
     fc4:	94 01       	movw	r18, r8
     fc6:	b6 01       	movw	r22, r12
     fc8:	89 81       	ldd	r24, Y+1	; 0x01
     fca:	01 df       	rcall	.-510    	; 0xdce <disk_write>
     fcc:	81 11       	cpse	r24, r1
     fce:	2f c0       	rjmp	.+94     	; 0x102e <sync_window.part.4+0x9a>
     fd0:	1b 82       	std	Y+3, r1	; 0x03
     fd2:	8f 8d       	ldd	r24, Y+31	; 0x1f
     fd4:	98 a1       	ldd	r25, Y+32	; 0x20
     fd6:	a9 a1       	ldd	r26, Y+33	; 0x21
     fd8:	ba a1       	ldd	r27, Y+34	; 0x22
     fda:	b5 01       	movw	r22, r10
     fdc:	a4 01       	movw	r20, r8
     fde:	48 1b       	sub	r20, r24
     fe0:	59 0b       	sbc	r21, r25
     fe2:	6a 0b       	sbc	r22, r26
     fe4:	7b 0b       	sbc	r23, r27
     fe6:	8f 89       	ldd	r24, Y+23	; 0x17
     fe8:	98 8d       	ldd	r25, Y+24	; 0x18
     fea:	a9 8d       	ldd	r26, Y+25	; 0x19
     fec:	ba 8d       	ldd	r27, Y+26	; 0x1a
     fee:	48 17       	cp	r20, r24
     ff0:	59 07       	cpc	r21, r25
     ff2:	6a 07       	cpc	r22, r26
     ff4:	7b 07       	cpc	r23, r27
     ff6:	10 f0       	brcs	.+4      	; 0xffc <sync_window.part.4+0x68>
     ff8:	80 e0       	ldi	r24, 0x00	; 0
     ffa:	1a c0       	rjmp	.+52     	; 0x1030 <sync_window.part.4+0x9c>
     ffc:	ea 80       	ldd	r14, Y+2	; 0x02
     ffe:	f1 2c       	mov	r15, r1
    1000:	82 e0       	ldi	r24, 0x02	; 2
    1002:	e8 16       	cp	r14, r24
    1004:	f1 04       	cpc	r15, r1
    1006:	c0 f3       	brcs	.-16     	; 0xff8 <sync_window.part.4+0x64>
    1008:	8f 89       	ldd	r24, Y+23	; 0x17
    100a:	98 8d       	ldd	r25, Y+24	; 0x18
    100c:	a9 8d       	ldd	r26, Y+25	; 0x19
    100e:	ba 8d       	ldd	r27, Y+26	; 0x1a
    1010:	88 0e       	add	r8, r24
    1012:	99 1e       	adc	r9, r25
    1014:	aa 1e       	adc	r10, r26
    1016:	bb 1e       	adc	r11, r27
    1018:	01 e0       	ldi	r16, 0x01	; 1
    101a:	10 e0       	ldi	r17, 0x00	; 0
    101c:	a5 01       	movw	r20, r10
    101e:	94 01       	movw	r18, r8
    1020:	b6 01       	movw	r22, r12
    1022:	89 81       	ldd	r24, Y+1	; 0x01
    1024:	d4 de       	rcall	.-600    	; 0xdce <disk_write>
    1026:	81 e0       	ldi	r24, 0x01	; 1
    1028:	e8 1a       	sub	r14, r24
    102a:	f1 08       	sbc	r15, r1
    102c:	e9 cf       	rjmp	.-46     	; 0x1000 <sync_window.part.4+0x6c>
    102e:	81 e0       	ldi	r24, 0x01	; 1
    1030:	df 91       	pop	r29
    1032:	cf 91       	pop	r28
    1034:	1f 91       	pop	r17
    1036:	0f 91       	pop	r16
    1038:	ff 90       	pop	r15
    103a:	ef 90       	pop	r14
    103c:	df 90       	pop	r13
    103e:	cf 90       	pop	r12
    1040:	bf 90       	pop	r11
    1042:	af 90       	pop	r10
    1044:	9f 90       	pop	r9
    1046:	8f 90       	pop	r8
    1048:	08 95       	ret

0000104a <sync_window>:
    104a:	fc 01       	movw	r30, r24
    104c:	23 81       	ldd	r18, Z+3	; 0x03
    104e:	21 11       	cpse	r18, r1
    1050:	a1 cf       	rjmp	.-190    	; 0xf94 <sync_window.part.4>
    1052:	80 e0       	ldi	r24, 0x00	; 0
    1054:	08 95       	ret

00001056 <move_window>:
    1056:	8f 92       	push	r8
    1058:	9f 92       	push	r9
    105a:	af 92       	push	r10
    105c:	bf 92       	push	r11
    105e:	ff 92       	push	r15
    1060:	0f 93       	push	r16
    1062:	1f 93       	push	r17
    1064:	cf 93       	push	r28
    1066:	df 93       	push	r29
    1068:	ec 01       	movw	r28, r24
    106a:	4a 01       	movw	r8, r20
    106c:	5b 01       	movw	r10, r22
    106e:	8b a5       	ldd	r24, Y+43	; 0x2b
    1070:	9c a5       	ldd	r25, Y+44	; 0x2c
    1072:	ad a5       	ldd	r26, Y+45	; 0x2d
    1074:	be a5       	ldd	r27, Y+46	; 0x2e
    1076:	48 17       	cp	r20, r24
    1078:	59 07       	cpc	r21, r25
    107a:	6a 07       	cpc	r22, r26
    107c:	7b 07       	cpc	r23, r27
    107e:	d9 f0       	breq	.+54     	; 0x10b6 <move_window+0x60>
    1080:	ce 01       	movw	r24, r28
    1082:	e3 df       	rcall	.-58     	; 0x104a <sync_window>
    1084:	f8 2e       	mov	r15, r24
    1086:	81 11       	cpse	r24, r1
    1088:	17 c0       	rjmp	.+46     	; 0x10b8 <move_window+0x62>
    108a:	01 e0       	ldi	r16, 0x01	; 1
    108c:	10 e0       	ldi	r17, 0x00	; 0
    108e:	a5 01       	movw	r20, r10
    1090:	94 01       	movw	r18, r8
    1092:	be 01       	movw	r22, r28
    1094:	61 5d       	subi	r22, 0xD1	; 209
    1096:	7f 4f       	sbci	r23, 0xFF	; 255
    1098:	89 81       	ldd	r24, Y+1	; 0x01
    109a:	88 de       	rcall	.-752    	; 0xdac <disk_read>
    109c:	88 23       	and	r24, r24
    109e:	31 f0       	breq	.+12     	; 0x10ac <move_window+0x56>
    10a0:	ff 24       	eor	r15, r15
    10a2:	f3 94       	inc	r15
    10a4:	88 24       	eor	r8, r8
    10a6:	8a 94       	dec	r8
    10a8:	98 2c       	mov	r9, r8
    10aa:	54 01       	movw	r10, r8
    10ac:	8b a6       	std	Y+43, r8	; 0x2b
    10ae:	9c a6       	std	Y+44, r9	; 0x2c
    10b0:	ad a6       	std	Y+45, r10	; 0x2d
    10b2:	be a6       	std	Y+46, r11	; 0x2e
    10b4:	01 c0       	rjmp	.+2      	; 0x10b8 <move_window+0x62>
    10b6:	f1 2c       	mov	r15, r1
    10b8:	8f 2d       	mov	r24, r15
    10ba:	df 91       	pop	r29
    10bc:	cf 91       	pop	r28
    10be:	1f 91       	pop	r17
    10c0:	0f 91       	pop	r16
    10c2:	ff 90       	pop	r15
    10c4:	bf 90       	pop	r11
    10c6:	af 90       	pop	r10
    10c8:	9f 90       	pop	r9
    10ca:	8f 90       	pop	r8
    10cc:	08 95       	ret

000010ce <check_fs>:
    10ce:	cf 93       	push	r28
    10d0:	df 93       	push	r29
    10d2:	ec 01       	movw	r28, r24
    10d4:	1b 82       	std	Y+3, r1	; 0x03
    10d6:	8f ef       	ldi	r24, 0xFF	; 255
    10d8:	9f ef       	ldi	r25, 0xFF	; 255
    10da:	dc 01       	movw	r26, r24
    10dc:	8b a7       	std	Y+43, r24	; 0x2b
    10de:	9c a7       	std	Y+44, r25	; 0x2c
    10e0:	ad a7       	std	Y+45, r26	; 0x2d
    10e2:	be a7       	std	Y+46, r27	; 0x2e
    10e4:	ce 01       	movw	r24, r28
    10e6:	b7 df       	rcall	.-146    	; 0x1056 <move_window>
    10e8:	81 11       	cpse	r24, r1
    10ea:	2b c0       	rjmp	.+86     	; 0x1142 <check_fs+0x74>
    10ec:	fe 01       	movw	r30, r28
    10ee:	e2 5d       	subi	r30, 0xD2	; 210
    10f0:	fd 4f       	sbci	r31, 0xFD	; 253
    10f2:	80 81       	ld	r24, Z
    10f4:	90 e0       	ldi	r25, 0x00	; 0
    10f6:	98 2f       	mov	r25, r24
    10f8:	88 27       	eor	r24, r24
    10fa:	31 97       	sbiw	r30, 0x01	; 1
    10fc:	20 81       	ld	r18, Z
    10fe:	82 2b       	or	r24, r18
    1100:	85 35       	cpi	r24, 0x55	; 85
    1102:	9a 4a       	sbci	r25, 0xAA	; 170
    1104:	01 f5       	brne	.+64     	; 0x1146 <check_fs+0x78>
    1106:	8f a5       	ldd	r24, Y+47	; 0x2f
    1108:	89 3e       	cpi	r24, 0xE9	; 233
    110a:	29 f0       	breq	.+10     	; 0x1116 <check_fs+0x48>
    110c:	8b 3e       	cpi	r24, 0xEB	; 235
    110e:	f9 f4       	brne	.+62     	; 0x114e <check_fs+0x80>
    1110:	89 a9       	ldd	r24, Y+49	; 0x31
    1112:	80 39       	cpi	r24, 0x90	; 144
    1114:	e1 f4       	brne	.+56     	; 0x114e <check_fs+0x80>
    1116:	ce 01       	movw	r24, r28
    1118:	8b 59       	subi	r24, 0x9B	; 155
    111a:	9f 4f       	sbci	r25, 0xFF	; 255
    111c:	74 de       	rcall	.-792    	; 0xe06 <ld_dword>
    111e:	dc 01       	movw	r26, r24
    1120:	cb 01       	movw	r24, r22
    1122:	bb 27       	eor	r27, r27
    1124:	86 34       	cpi	r24, 0x46	; 70
    1126:	91 44       	sbci	r25, 0x41	; 65
    1128:	a4 45       	sbci	r26, 0x54	; 84
    112a:	b1 05       	cpc	r27, r1
    112c:	71 f0       	breq	.+28     	; 0x114a <check_fs+0x7c>
    112e:	ce 01       	movw	r24, r28
    1130:	8f 57       	subi	r24, 0x7F	; 127
    1132:	9f 4f       	sbci	r25, 0xFF	; 255
    1134:	68 de       	rcall	.-816    	; 0xe06 <ld_dword>
    1136:	66 34       	cpi	r22, 0x46	; 70
    1138:	71 44       	sbci	r23, 0x41	; 65
    113a:	84 45       	sbci	r24, 0x54	; 84
    113c:	93 43       	sbci	r25, 0x33	; 51
    113e:	39 f4       	brne	.+14     	; 0x114e <check_fs+0x80>
    1140:	04 c0       	rjmp	.+8      	; 0x114a <check_fs+0x7c>
    1142:	84 e0       	ldi	r24, 0x04	; 4
    1144:	05 c0       	rjmp	.+10     	; 0x1150 <check_fs+0x82>
    1146:	83 e0       	ldi	r24, 0x03	; 3
    1148:	03 c0       	rjmp	.+6      	; 0x1150 <check_fs+0x82>
    114a:	80 e0       	ldi	r24, 0x00	; 0
    114c:	01 c0       	rjmp	.+2      	; 0x1150 <check_fs+0x82>
    114e:	82 e0       	ldi	r24, 0x02	; 2
    1150:	df 91       	pop	r29
    1152:	cf 91       	pop	r28
    1154:	08 95       	ret

00001156 <find_volume>:
    1156:	2f 92       	push	r2
    1158:	3f 92       	push	r3
    115a:	4f 92       	push	r4
    115c:	5f 92       	push	r5
    115e:	6f 92       	push	r6
    1160:	7f 92       	push	r7
    1162:	8f 92       	push	r8
    1164:	9f 92       	push	r9
    1166:	af 92       	push	r10
    1168:	bf 92       	push	r11
    116a:	cf 92       	push	r12
    116c:	df 92       	push	r13
    116e:	ef 92       	push	r14
    1170:	ff 92       	push	r15
    1172:	0f 93       	push	r16
    1174:	1f 93       	push	r17
    1176:	cf 93       	push	r28
    1178:	df 93       	push	r29
    117a:	cd b7       	in	r28, 0x3d	; 61
    117c:	de b7       	in	r29, 0x3e	; 62
    117e:	6e 97       	sbiw	r28, 0x1e	; 30
    1180:	0f b6       	in	r0, 0x3f	; 63
    1182:	f8 94       	cli
    1184:	de bf       	out	0x3e, r29	; 62
    1186:	0f be       	out	0x3f, r0	; 63
    1188:	cd bf       	out	0x3d, r28	; 61
    118a:	7b 01       	movw	r14, r22
    118c:	db 01       	movw	r26, r22
    118e:	1d 92       	st	X+, r1
    1190:	1c 92       	st	X, r1
    1192:	4e 8f       	std	Y+30, r20	; 0x1e
    1194:	81 de       	rcall	.-766    	; 0xe98 <get_ldnumber>
    1196:	6c 01       	movw	r12, r24
    1198:	4e 8d       	ldd	r20, Y+30	; 0x1e
    119a:	97 fd       	sbrc	r25, 7
    119c:	4b c2       	rjmp	.+1174   	; 0x1634 <find_volume+0x4de>
    119e:	fc 01       	movw	r30, r24
    11a0:	ee 0f       	add	r30, r30
    11a2:	ff 1f       	adc	r31, r31
    11a4:	e2 5b       	subi	r30, 0xB2	; 178
    11a6:	fe 4f       	sbci	r31, 0xFE	; 254
    11a8:	00 81       	ld	r16, Z
    11aa:	11 81       	ldd	r17, Z+1	; 0x01
    11ac:	01 15       	cp	r16, r1
    11ae:	11 05       	cpc	r17, r1
    11b0:	09 f4       	brne	.+2      	; 0x11b4 <find_volume+0x5e>
    11b2:	42 c2       	rjmp	.+1156   	; 0x1638 <find_volume+0x4e2>
    11b4:	f7 01       	movw	r30, r14
    11b6:	11 83       	std	Z+1, r17	; 0x01
    11b8:	00 83       	st	Z, r16
    11ba:	4e 7f       	andi	r20, 0xFE	; 254
    11bc:	f4 2e       	mov	r15, r20
    11be:	d8 01       	movw	r26, r16
    11c0:	8c 91       	ld	r24, X
    11c2:	88 23       	and	r24, r24
    11c4:	61 f0       	breq	.+24     	; 0x11de <find_volume+0x88>
    11c6:	11 96       	adiw	r26, 0x01	; 1
    11c8:	8c 91       	ld	r24, X
    11ca:	e4 dd       	rcall	.-1080   	; 0xd94 <disk_status>
    11cc:	80 fd       	sbrc	r24, 0
    11ce:	07 c0       	rjmp	.+14     	; 0x11de <find_volume+0x88>
    11d0:	ff 20       	and	r15, r15
    11d2:	09 f4       	brne	.+2      	; 0x11d6 <find_volume+0x80>
    11d4:	33 c2       	rjmp	.+1126   	; 0x163c <find_volume+0x4e6>
    11d6:	82 ff       	sbrs	r24, 2
    11d8:	31 c2       	rjmp	.+1122   	; 0x163c <find_volume+0x4e6>
    11da:	8a e0       	ldi	r24, 0x0A	; 10
    11dc:	37 c2       	rjmp	.+1134   	; 0x164c <find_volume+0x4f6>
    11de:	f8 01       	movw	r30, r16
    11e0:	10 82       	st	Z, r1
    11e2:	c1 82       	std	Z+1, r12	; 0x01
    11e4:	8c 2d       	mov	r24, r12
    11e6:	dc dd       	rcall	.-1096   	; 0xda0 <disk_initialize>
    11e8:	80 fd       	sbrc	r24, 0
    11ea:	2a c2       	rjmp	.+1108   	; 0x1640 <find_volume+0x4ea>
    11ec:	ff 20       	and	r15, r15
    11ee:	11 f0       	breq	.+4      	; 0x11f4 <find_volume+0x9e>
    11f0:	82 fd       	sbrc	r24, 2
    11f2:	f3 cf       	rjmp	.-26     	; 0x11da <find_volume+0x84>
    11f4:	40 e0       	ldi	r20, 0x00	; 0
    11f6:	50 e0       	ldi	r21, 0x00	; 0
    11f8:	ba 01       	movw	r22, r20
    11fa:	c8 01       	movw	r24, r16
    11fc:	68 df       	rcall	.-304    	; 0x10ce <check_fs>
    11fe:	82 30       	cpi	r24, 0x02	; 2
    1200:	09 f0       	breq	.+2      	; 0x1204 <find_volume+0xae>
    1202:	41 c0       	rjmp	.+130    	; 0x1286 <find_volume+0x130>
    1204:	9e 01       	movw	r18, r28
    1206:	2f 5f       	subi	r18, 0xFF	; 255
    1208:	3f 4f       	sbci	r19, 0xFF	; 255
    120a:	69 01       	movw	r12, r18
    120c:	78 01       	movw	r14, r16
    120e:	3b e0       	ldi	r19, 0x0B	; 11
    1210:	e3 1a       	sub	r14, r19
    1212:	3e ef       	ldi	r19, 0xFE	; 254
    1214:	f3 0a       	sbc	r15, r19
    1216:	48 01       	movw	r8, r16
    1218:	4b ec       	ldi	r20, 0xCB	; 203
    121a:	84 1a       	sub	r8, r20
    121c:	4d ef       	ldi	r20, 0xFD	; 253
    121e:	94 0a       	sbc	r9, r20
    1220:	56 01       	movw	r10, r12
    1222:	f7 01       	movw	r30, r14
    1224:	34 97       	sbiw	r30, 0x04	; 4
    1226:	80 81       	ld	r24, Z
    1228:	88 23       	and	r24, r24
    122a:	19 f0       	breq	.+6      	; 0x1232 <find_volume+0xdc>
    122c:	c7 01       	movw	r24, r14
    122e:	eb dd       	rcall	.-1066   	; 0xe06 <ld_dword>
    1230:	03 c0       	rjmp	.+6      	; 0x1238 <find_volume+0xe2>
    1232:	60 e0       	ldi	r22, 0x00	; 0
    1234:	70 e0       	ldi	r23, 0x00	; 0
    1236:	cb 01       	movw	r24, r22
    1238:	d5 01       	movw	r26, r10
    123a:	6d 93       	st	X+, r22
    123c:	7d 93       	st	X+, r23
    123e:	8d 93       	st	X+, r24
    1240:	9d 93       	st	X+, r25
    1242:	5d 01       	movw	r10, r26
    1244:	b0 e1       	ldi	r27, 0x10	; 16
    1246:	eb 0e       	add	r14, r27
    1248:	f1 1c       	adc	r15, r1
    124a:	e8 14       	cp	r14, r8
    124c:	f9 04       	cpc	r15, r9
    124e:	49 f7       	brne	.-46     	; 0x1222 <find_volume+0xcc>
    1250:	7e 01       	movw	r14, r28
    1252:	e1 e1       	ldi	r30, 0x11	; 17
    1254:	ee 0e       	add	r14, r30
    1256:	f1 1c       	adc	r15, r1
    1258:	d6 01       	movw	r26, r12
    125a:	4d 90       	ld	r4, X+
    125c:	5d 90       	ld	r5, X+
    125e:	6d 90       	ld	r6, X+
    1260:	7d 90       	ld	r7, X+
    1262:	6d 01       	movw	r12, r26
    1264:	41 14       	cp	r4, r1
    1266:	51 04       	cpc	r5, r1
    1268:	61 04       	cpc	r6, r1
    126a:	71 04       	cpc	r7, r1
    126c:	39 f0       	breq	.+14     	; 0x127c <find_volume+0x126>
    126e:	b3 01       	movw	r22, r6
    1270:	a2 01       	movw	r20, r4
    1272:	c8 01       	movw	r24, r16
    1274:	2c df       	rcall	.-424    	; 0x10ce <check_fs>
    1276:	82 30       	cpi	r24, 0x02	; 2
    1278:	10 f4       	brcc	.+4      	; 0x127e <find_volume+0x128>
    127a:	0f c0       	rjmp	.+30     	; 0x129a <find_volume+0x144>
    127c:	83 e0       	ldi	r24, 0x03	; 3
    127e:	ce 14       	cp	r12, r14
    1280:	df 04       	cpc	r13, r15
    1282:	51 f7       	brne	.-44     	; 0x1258 <find_volume+0x102>
    1284:	df c1       	rjmp	.+958    	; 0x1644 <find_volume+0x4ee>
    1286:	41 2c       	mov	r4, r1
    1288:	51 2c       	mov	r5, r1
    128a:	32 01       	movw	r6, r4
    128c:	84 30       	cpi	r24, 0x04	; 4
    128e:	09 f4       	brne	.+2      	; 0x1292 <find_volume+0x13c>
    1290:	dc c1       	rjmp	.+952    	; 0x164a <find_volume+0x4f4>
    1292:	82 30       	cpi	r24, 0x02	; 2
    1294:	10 f0       	brcs	.+4      	; 0x129a <find_volume+0x144>
    1296:	8d e0       	ldi	r24, 0x0D	; 13
    1298:	d9 c1       	rjmp	.+946    	; 0x164c <find_volume+0x4f6>
    129a:	f8 01       	movw	r30, r16
    129c:	83 ad       	ldd	r24, Z+59	; 0x3b
    129e:	90 e0       	ldi	r25, 0x00	; 0
    12a0:	98 2f       	mov	r25, r24
    12a2:	88 27       	eor	r24, r24
    12a4:	22 ad       	ldd	r18, Z+58	; 0x3a
    12a6:	82 2b       	or	r24, r18
    12a8:	81 15       	cp	r24, r1
    12aa:	92 40       	sbci	r25, 0x02	; 2
    12ac:	a1 f7       	brne	.-24     	; 0x1296 <find_volume+0x140>
    12ae:	f8 01       	movw	r30, r16
    12b0:	ea 5b       	subi	r30, 0xBA	; 186
    12b2:	ff 4f       	sbci	r31, 0xFF	; 255
    12b4:	80 80       	ld	r8, Z
    12b6:	91 2c       	mov	r9, r1
    12b8:	98 2c       	mov	r9, r8
    12ba:	88 24       	eor	r8, r8
    12bc:	31 97       	sbiw	r30, 0x01	; 1
    12be:	80 81       	ld	r24, Z
    12c0:	88 2a       	or	r8, r24
    12c2:	81 14       	cp	r8, r1
    12c4:	91 04       	cpc	r9, r1
    12c6:	19 f0       	breq	.+6      	; 0x12ce <find_volume+0x178>
    12c8:	a1 2c       	mov	r10, r1
    12ca:	b1 2c       	mov	r11, r1
    12cc:	06 c0       	rjmp	.+12     	; 0x12da <find_volume+0x184>
    12ce:	c8 01       	movw	r24, r16
    12d0:	8d 5a       	subi	r24, 0xAD	; 173
    12d2:	9f 4f       	sbci	r25, 0xFF	; 255
    12d4:	98 dd       	rcall	.-1232   	; 0xe06 <ld_dword>
    12d6:	4b 01       	movw	r8, r22
    12d8:	5c 01       	movw	r10, r24
    12da:	d8 01       	movw	r26, r16
    12dc:	57 96       	adiw	r26, 0x17	; 23
    12de:	8d 92       	st	X+, r8
    12e0:	9d 92       	st	X+, r9
    12e2:	ad 92       	st	X+, r10
    12e4:	bc 92       	st	X, r11
    12e6:	5a 97       	sbiw	r26, 0x1a	; 26
    12e8:	df 96       	adiw	r26, 0x3f	; 63
    12ea:	4c 91       	ld	r20, X
    12ec:	df 97       	sbiw	r26, 0x3f	; 63
    12ee:	12 96       	adiw	r26, 0x02	; 2
    12f0:	4c 93       	st	X, r20
    12f2:	12 97       	sbiw	r26, 0x02	; 2
    12f4:	8f ef       	ldi	r24, 0xFF	; 255
    12f6:	84 0f       	add	r24, r20
    12f8:	82 30       	cpi	r24, 0x02	; 2
    12fa:	68 f6       	brcc	.-102    	; 0x1296 <find_volume+0x140>
    12fc:	dc 96       	adiw	r26, 0x3c	; 60
    12fe:	bc 91       	ld	r27, X
    1300:	b9 8b       	std	Y+17, r27	; 0x11
    1302:	8b 2f       	mov	r24, r27
    1304:	90 e0       	ldi	r25, 0x00	; 0
    1306:	f8 01       	movw	r30, r16
    1308:	92 87       	std	Z+10, r25	; 0x0a
    130a:	81 87       	std	Z+9, r24	; 0x09
    130c:	00 97       	sbiw	r24, 0x00	; 0
    130e:	19 f2       	breq	.-122    	; 0x1296 <find_volume+0x140>
    1310:	9c 01       	movw	r18, r24
    1312:	21 50       	subi	r18, 0x01	; 1
    1314:	31 09       	sbc	r19, r1
    1316:	82 23       	and	r24, r18
    1318:	93 23       	and	r25, r19
    131a:	89 2b       	or	r24, r25
    131c:	09 f0       	breq	.+2      	; 0x1320 <find_volume+0x1ca>
    131e:	bb cf       	rjmp	.-138    	; 0x1296 <find_volume+0x140>
    1320:	ef 5b       	subi	r30, 0xBF	; 191
    1322:	ff 4f       	sbci	r31, 0xFF	; 255
    1324:	80 81       	ld	r24, Z
    1326:	90 e0       	ldi	r25, 0x00	; 0
    1328:	98 2f       	mov	r25, r24
    132a:	88 27       	eor	r24, r24
    132c:	31 97       	sbiw	r30, 0x01	; 1
    132e:	20 81       	ld	r18, Z
    1330:	1c 01       	movw	r2, r24
    1332:	22 2a       	or	r2, r18
    1334:	d8 01       	movw	r26, r16
    1336:	18 96       	adiw	r26, 0x08	; 8
    1338:	3c 92       	st	X, r3
    133a:	2e 92       	st	-X, r2
    133c:	17 97       	sbiw	r26, 0x07	; 7
    133e:	c1 01       	movw	r24, r2
    1340:	8f 70       	andi	r24, 0x0F	; 15
    1342:	99 27       	eor	r25, r25
    1344:	89 2b       	or	r24, r25
    1346:	09 f0       	breq	.+2      	; 0x134a <find_volume+0x1f4>
    1348:	a6 cf       	rjmp	.-180    	; 0x1296 <find_volume+0x140>
    134a:	33 96       	adiw	r30, 0x03	; 3
    134c:	80 81       	ld	r24, Z
    134e:	90 e0       	ldi	r25, 0x00	; 0
    1350:	98 2f       	mov	r25, r24
    1352:	88 27       	eor	r24, r24
    1354:	31 97       	sbiw	r30, 0x01	; 1
    1356:	20 81       	ld	r18, Z
    1358:	82 2b       	or	r24, r18
    135a:	6c 01       	movw	r12, r24
    135c:	e1 2c       	mov	r14, r1
    135e:	f1 2c       	mov	r15, r1
    1360:	89 2b       	or	r24, r25
    1362:	41 f4       	brne	.+16     	; 0x1374 <find_volume+0x21e>
    1364:	c8 01       	movw	r24, r16
    1366:	81 5b       	subi	r24, 0xB1	; 177
    1368:	9f 4f       	sbci	r25, 0xFF	; 255
    136a:	4e 8f       	std	Y+30, r20	; 0x1e
    136c:	4c dd       	rcall	.-1384   	; 0xe06 <ld_dword>
    136e:	6b 01       	movw	r12, r22
    1370:	7c 01       	movw	r14, r24
    1372:	4e 8d       	ldd	r20, Y+30	; 0x1e
    1374:	d8 01       	movw	r26, r16
    1376:	de 96       	adiw	r26, 0x3e	; 62
    1378:	ec 91       	ld	r30, X
    137a:	de 97       	sbiw	r26, 0x3e	; 62
    137c:	f0 e0       	ldi	r31, 0x00	; 0
    137e:	fe 2f       	mov	r31, r30
    1380:	ee 27       	eor	r30, r30
    1382:	dd 96       	adiw	r26, 0x3d	; 61
    1384:	8c 91       	ld	r24, X
    1386:	e8 2b       	or	r30, r24
    1388:	30 97       	sbiw	r30, 0x00	; 0
    138a:	09 f4       	brne	.+2      	; 0x138e <find_volume+0x238>
    138c:	84 cf       	rjmp	.-248    	; 0x1296 <find_volume+0x140>
    138e:	a4 2f       	mov	r26, r20
    1390:	b0 e0       	ldi	r27, 0x00	; 0
    1392:	a5 01       	movw	r20, r10
    1394:	94 01       	movw	r18, r8
    1396:	0e 94 d7 2f 	call	0x5fae	; 0x5fae <__muluhisi3>
    139a:	6e 8b       	std	Y+22, r22	; 0x16
    139c:	7f 8b       	std	Y+23, r23	; 0x17
    139e:	88 8f       	std	Y+24, r24	; 0x18
    13a0:	99 8f       	std	Y+25, r25	; 0x19
    13a2:	9f 01       	movw	r18, r30
    13a4:	40 e0       	ldi	r20, 0x00	; 0
    13a6:	50 e0       	ldi	r21, 0x00	; 0
    13a8:	2a 8f       	std	Y+26, r18	; 0x1a
    13aa:	3b 8f       	std	Y+27, r19	; 0x1b
    13ac:	4c 8f       	std	Y+28, r20	; 0x1c
    13ae:	5d 8f       	std	Y+29, r21	; 0x1d
    13b0:	c1 01       	movw	r24, r2
    13b2:	b4 e0       	ldi	r27, 0x04	; 4
    13b4:	96 95       	lsr	r25
    13b6:	87 95       	ror	r24
    13b8:	ba 95       	dec	r27
    13ba:	e1 f7       	brne	.-8      	; 0x13b4 <find_volume+0x25e>
    13bc:	28 0f       	add	r18, r24
    13be:	39 1f       	adc	r19, r25
    13c0:	41 1d       	adc	r20, r1
    13c2:	51 1d       	adc	r21, r1
    13c4:	da 01       	movw	r26, r20
    13c6:	c9 01       	movw	r24, r18
    13c8:	2e 89       	ldd	r18, Y+22	; 0x16
    13ca:	3f 89       	ldd	r19, Y+23	; 0x17
    13cc:	48 8d       	ldd	r20, Y+24	; 0x18
    13ce:	59 8d       	ldd	r21, Y+25	; 0x19
    13d0:	28 0f       	add	r18, r24
    13d2:	39 1f       	adc	r19, r25
    13d4:	4a 1f       	adc	r20, r26
    13d6:	5b 1f       	adc	r21, r27
    13d8:	2a 8b       	std	Y+18, r18	; 0x12
    13da:	3b 8b       	std	Y+19, r19	; 0x13
    13dc:	4c 8b       	std	Y+20, r20	; 0x14
    13de:	5d 8b       	std	Y+21, r21	; 0x15
    13e0:	c2 16       	cp	r12, r18
    13e2:	d3 06       	cpc	r13, r19
    13e4:	e4 06       	cpc	r14, r20
    13e6:	f5 06       	cpc	r15, r21
    13e8:	08 f4       	brcc	.+2      	; 0x13ec <find_volume+0x296>
    13ea:	55 cf       	rjmp	.-342    	; 0x1296 <find_volume+0x140>
    13ec:	c7 01       	movw	r24, r14
    13ee:	b6 01       	movw	r22, r12
    13f0:	62 1b       	sub	r22, r18
    13f2:	73 0b       	sbc	r23, r19
    13f4:	84 0b       	sbc	r24, r20
    13f6:	95 0b       	sbc	r25, r21
    13f8:	a9 89       	ldd	r26, Y+17	; 0x11
    13fa:	2a 2f       	mov	r18, r26
    13fc:	30 e0       	ldi	r19, 0x00	; 0
    13fe:	40 e0       	ldi	r20, 0x00	; 0
    1400:	50 e0       	ldi	r21, 0x00	; 0
    1402:	0e 94 af 2f 	call	0x5f5e	; 0x5f5e <__udivmodsi4>
    1406:	21 15       	cp	r18, r1
    1408:	31 05       	cpc	r19, r1
    140a:	41 05       	cpc	r20, r1
    140c:	51 05       	cpc	r21, r1
    140e:	09 f4       	brne	.+2      	; 0x1412 <find_volume+0x2bc>
    1410:	42 cf       	rjmp	.-380    	; 0x1296 <find_volume+0x140>
    1412:	26 3f       	cpi	r18, 0xF6	; 246
    1414:	bf ef       	ldi	r27, 0xFF	; 255
    1416:	3b 07       	cpc	r19, r27
    1418:	41 05       	cpc	r20, r1
    141a:	51 05       	cpc	r21, r1
    141c:	48 f4       	brcc	.+18     	; 0x1430 <find_volume+0x2da>
    141e:	26 3f       	cpi	r18, 0xF6	; 246
    1420:	ef e0       	ldi	r30, 0x0F	; 15
    1422:	3e 07       	cpc	r19, r30
    1424:	41 05       	cpc	r20, r1
    1426:	51 05       	cpc	r21, r1
    1428:	30 f0       	brcs	.+12     	; 0x1436 <find_volume+0x2e0>
    142a:	f2 e0       	ldi	r31, 0x02	; 2
    142c:	f9 8b       	std	Y+17, r31	; 0x11
    142e:	05 c0       	rjmp	.+10     	; 0x143a <find_volume+0x2e4>
    1430:	83 e0       	ldi	r24, 0x03	; 3
    1432:	89 8b       	std	Y+17, r24	; 0x11
    1434:	02 c0       	rjmp	.+4      	; 0x143a <find_volume+0x2e4>
    1436:	91 e0       	ldi	r25, 0x01	; 1
    1438:	99 8b       	std	Y+17, r25	; 0x11
    143a:	69 01       	movw	r12, r18
    143c:	7a 01       	movw	r14, r20
    143e:	a2 e0       	ldi	r26, 0x02	; 2
    1440:	ca 0e       	add	r12, r26
    1442:	d1 1c       	adc	r13, r1
    1444:	e1 1c       	adc	r14, r1
    1446:	f1 1c       	adc	r15, r1
    1448:	f8 01       	movw	r30, r16
    144a:	c3 8a       	std	Z+19, r12	; 0x13
    144c:	d4 8a       	std	Z+20, r13	; 0x14
    144e:	e5 8a       	std	Z+21, r14	; 0x15
    1450:	f6 8a       	std	Z+22, r15	; 0x16
    1452:	43 8e       	std	Z+27, r4	; 0x1b
    1454:	54 8e       	std	Z+28, r5	; 0x1c
    1456:	65 8e       	std	Z+29, r6	; 0x1d
    1458:	76 8e       	std	Z+30, r7	; 0x1e
    145a:	8a 8d       	ldd	r24, Y+26	; 0x1a
    145c:	9b 8d       	ldd	r25, Y+27	; 0x1b
    145e:	ac 8d       	ldd	r26, Y+28	; 0x1c
    1460:	bd 8d       	ldd	r27, Y+29	; 0x1d
    1462:	84 0d       	add	r24, r4
    1464:	95 1d       	adc	r25, r5
    1466:	a6 1d       	adc	r26, r6
    1468:	b7 1d       	adc	r27, r7
    146a:	87 8f       	std	Z+31, r24	; 0x1f
    146c:	90 a3       	std	Z+32, r25	; 0x20
    146e:	a1 a3       	std	Z+33, r26	; 0x21
    1470:	b2 a3       	std	Z+34, r27	; 0x22
    1472:	4a 89       	ldd	r20, Y+18	; 0x12
    1474:	5b 89       	ldd	r21, Y+19	; 0x13
    1476:	6c 89       	ldd	r22, Y+20	; 0x14
    1478:	7d 89       	ldd	r23, Y+21	; 0x15
    147a:	44 0d       	add	r20, r4
    147c:	55 1d       	adc	r21, r5
    147e:	66 1d       	adc	r22, r6
    1480:	77 1d       	adc	r23, r7
    1482:	47 a3       	std	Z+39, r20	; 0x27
    1484:	50 a7       	std	Z+40, r21	; 0x28
    1486:	61 a7       	std	Z+41, r22	; 0x29
    1488:	72 a7       	std	Z+42, r23	; 0x2a
    148a:	f9 89       	ldd	r31, Y+17	; 0x11
    148c:	f3 30       	cpi	r31, 0x03	; 3
    148e:	19 f5       	brne	.+70     	; 0x14d6 <find_volume+0x380>
    1490:	f8 01       	movw	r30, r16
    1492:	e6 5a       	subi	r30, 0xA6	; 166
    1494:	ff 4f       	sbci	r31, 0xFF	; 255
    1496:	80 81       	ld	r24, Z
    1498:	90 e0       	ldi	r25, 0x00	; 0
    149a:	98 2f       	mov	r25, r24
    149c:	88 27       	eor	r24, r24
    149e:	31 97       	sbiw	r30, 0x01	; 1
    14a0:	20 81       	ld	r18, Z
    14a2:	82 2b       	or	r24, r18
    14a4:	89 2b       	or	r24, r25
    14a6:	09 f0       	breq	.+2      	; 0x14aa <find_volume+0x354>
    14a8:	f6 ce       	rjmp	.-532    	; 0x1296 <find_volume+0x140>
    14aa:	23 28       	or	r2, r3
    14ac:	09 f0       	breq	.+2      	; 0x14b0 <find_volume+0x35a>
    14ae:	f3 ce       	rjmp	.-538    	; 0x1296 <find_volume+0x140>
    14b0:	c8 01       	movw	r24, r16
    14b2:	85 5a       	subi	r24, 0xA5	; 165
    14b4:	9f 4f       	sbci	r25, 0xFF	; 255
    14b6:	a7 dc       	rcall	.-1714   	; 0xe06 <ld_dword>
    14b8:	d8 01       	movw	r26, r16
    14ba:	93 96       	adiw	r26, 0x23	; 35
    14bc:	6d 93       	st	X+, r22
    14be:	7d 93       	st	X+, r23
    14c0:	8d 93       	st	X+, r24
    14c2:	9c 93       	st	X, r25
    14c4:	96 97       	sbiw	r26, 0x26	; 38
    14c6:	72 e0       	ldi	r23, 0x02	; 2
    14c8:	cc 0c       	add	r12, r12
    14ca:	dd 1c       	adc	r13, r13
    14cc:	ee 1c       	adc	r14, r14
    14ce:	ff 1c       	adc	r15, r15
    14d0:	7a 95       	dec	r23
    14d2:	d1 f7       	brne	.-12     	; 0x14c8 <find_volume+0x372>
    14d4:	2d c0       	rjmp	.+90     	; 0x1530 <find_volume+0x3da>
    14d6:	23 28       	or	r2, r3
    14d8:	09 f4       	brne	.+2      	; 0x14dc <find_volume+0x386>
    14da:	dd ce       	rjmp	.-582    	; 0x1296 <find_volume+0x140>
    14dc:	2e 89       	ldd	r18, Y+22	; 0x16
    14de:	3f 89       	ldd	r19, Y+23	; 0x17
    14e0:	48 8d       	ldd	r20, Y+24	; 0x18
    14e2:	59 8d       	ldd	r21, Y+25	; 0x19
    14e4:	82 0f       	add	r24, r18
    14e6:	93 1f       	adc	r25, r19
    14e8:	a4 1f       	adc	r26, r20
    14ea:	b5 1f       	adc	r27, r21
    14ec:	f8 01       	movw	r30, r16
    14ee:	83 a3       	std	Z+35, r24	; 0x23
    14f0:	94 a3       	std	Z+36, r25	; 0x24
    14f2:	a5 a3       	std	Z+37, r26	; 0x25
    14f4:	b6 a3       	std	Z+38, r27	; 0x26
    14f6:	f9 89       	ldd	r31, Y+17	; 0x11
    14f8:	f2 30       	cpi	r31, 0x02	; 2
    14fa:	29 f4       	brne	.+10     	; 0x1506 <find_volume+0x3b0>
    14fc:	cc 0c       	add	r12, r12
    14fe:	dd 1c       	adc	r13, r13
    1500:	ee 1c       	adc	r14, r14
    1502:	ff 1c       	adc	r15, r15
    1504:	15 c0       	rjmp	.+42     	; 0x1530 <find_volume+0x3da>
    1506:	a3 e0       	ldi	r26, 0x03	; 3
    1508:	b0 e0       	ldi	r27, 0x00	; 0
    150a:	a7 01       	movw	r20, r14
    150c:	96 01       	movw	r18, r12
    150e:	0e 94 d7 2f 	call	0x5fae	; 0x5fae <__muluhisi3>
    1512:	dc 01       	movw	r26, r24
    1514:	cb 01       	movw	r24, r22
    1516:	b6 95       	lsr	r27
    1518:	a7 95       	ror	r26
    151a:	97 95       	ror	r25
    151c:	87 95       	ror	r24
    151e:	21 e0       	ldi	r18, 0x01	; 1
    1520:	c2 22       	and	r12, r18
    1522:	dd 24       	eor	r13, r13
    1524:	ee 24       	eor	r14, r14
    1526:	ff 24       	eor	r15, r15
    1528:	c8 0e       	add	r12, r24
    152a:	d9 1e       	adc	r13, r25
    152c:	ea 1e       	adc	r14, r26
    152e:	fb 1e       	adc	r15, r27
    1530:	3f ef       	ldi	r19, 0xFF	; 255
    1532:	c3 0e       	add	r12, r19
    1534:	31 e0       	ldi	r19, 0x01	; 1
    1536:	d3 1e       	adc	r13, r19
    1538:	e1 1c       	adc	r14, r1
    153a:	f1 1c       	adc	r15, r1
    153c:	49 e0       	ldi	r20, 0x09	; 9
    153e:	f6 94       	lsr	r15
    1540:	e7 94       	ror	r14
    1542:	d7 94       	ror	r13
    1544:	c7 94       	ror	r12
    1546:	4a 95       	dec	r20
    1548:	d1 f7       	brne	.-12     	; 0x153e <find_volume+0x3e8>
    154a:	8c 14       	cp	r8, r12
    154c:	9d 04       	cpc	r9, r13
    154e:	ae 04       	cpc	r10, r14
    1550:	bf 04       	cpc	r11, r15
    1552:	08 f4       	brcc	.+2      	; 0x1556 <find_volume+0x400>
    1554:	a0 ce       	rjmp	.-704    	; 0x1296 <find_volume+0x140>
    1556:	8f ef       	ldi	r24, 0xFF	; 255
    1558:	9f ef       	ldi	r25, 0xFF	; 255
    155a:	dc 01       	movw	r26, r24
    155c:	f8 01       	movw	r30, r16
    155e:	87 87       	std	Z+15, r24	; 0x0f
    1560:	90 8b       	std	Z+16, r25	; 0x10
    1562:	a1 8b       	std	Z+17, r26	; 0x11
    1564:	b2 8b       	std	Z+18, r27	; 0x12
    1566:	83 87       	std	Z+11, r24	; 0x0b
    1568:	94 87       	std	Z+12, r25	; 0x0c
    156a:	a5 87       	std	Z+13, r26	; 0x0d
    156c:	b6 87       	std	Z+14, r27	; 0x0e
    156e:	80 e8       	ldi	r24, 0x80	; 128
    1570:	84 83       	std	Z+4, r24	; 0x04
    1572:	f9 89       	ldd	r31, Y+17	; 0x11
    1574:	f3 30       	cpi	r31, 0x03	; 3
    1576:	09 f0       	breq	.+2      	; 0x157a <find_volume+0x424>
    1578:	4c c0       	rjmp	.+152    	; 0x1612 <find_volume+0x4bc>
    157a:	f8 01       	movw	r30, r16
    157c:	e0 5a       	subi	r30, 0xA0	; 160
    157e:	ff 4f       	sbci	r31, 0xFF	; 255
    1580:	80 81       	ld	r24, Z
    1582:	90 e0       	ldi	r25, 0x00	; 0
    1584:	98 2f       	mov	r25, r24
    1586:	88 27       	eor	r24, r24
    1588:	31 97       	sbiw	r30, 0x01	; 1
    158a:	20 81       	ld	r18, Z
    158c:	82 2b       	or	r24, r18
    158e:	01 97       	sbiw	r24, 0x01	; 1
    1590:	09 f0       	breq	.+2      	; 0x1594 <find_volume+0x43e>
    1592:	3f c0       	rjmp	.+126    	; 0x1612 <find_volume+0x4bc>
    1594:	b3 01       	movw	r22, r6
    1596:	a2 01       	movw	r20, r4
    1598:	4f 5f       	subi	r20, 0xFF	; 255
    159a:	5f 4f       	sbci	r21, 0xFF	; 255
    159c:	6f 4f       	sbci	r22, 0xFF	; 255
    159e:	7f 4f       	sbci	r23, 0xFF	; 255
    15a0:	c8 01       	movw	r24, r16
    15a2:	59 dd       	rcall	.-1358   	; 0x1056 <move_window>
    15a4:	81 11       	cpse	r24, r1
    15a6:	35 c0       	rjmp	.+106    	; 0x1612 <find_volume+0x4bc>
    15a8:	d8 01       	movw	r26, r16
    15aa:	14 96       	adiw	r26, 0x04	; 4
    15ac:	1c 92       	st	X, r1
    15ae:	f8 01       	movw	r30, r16
    15b0:	e2 5d       	subi	r30, 0xD2	; 210
    15b2:	fd 4f       	sbci	r31, 0xFD	; 253
    15b4:	80 81       	ld	r24, Z
    15b6:	90 e0       	ldi	r25, 0x00	; 0
    15b8:	98 2f       	mov	r25, r24
    15ba:	88 27       	eor	r24, r24
    15bc:	31 97       	sbiw	r30, 0x01	; 1
    15be:	20 81       	ld	r18, Z
    15c0:	82 2b       	or	r24, r18
    15c2:	85 35       	cpi	r24, 0x55	; 85
    15c4:	9a 4a       	sbci	r25, 0xAA	; 170
    15c6:	29 f5       	brne	.+74     	; 0x1612 <find_volume+0x4bc>
    15c8:	c8 01       	movw	r24, r16
    15ca:	8f 96       	adiw	r24, 0x2f	; 47
    15cc:	1c dc       	rcall	.-1992   	; 0xe06 <ld_dword>
    15ce:	62 35       	cpi	r22, 0x52	; 82
    15d0:	72 45       	sbci	r23, 0x52	; 82
    15d2:	81 46       	sbci	r24, 0x61	; 97
    15d4:	91 44       	sbci	r25, 0x41	; 65
    15d6:	e9 f4       	brne	.+58     	; 0x1612 <find_volume+0x4bc>
    15d8:	c8 01       	movw	r24, r16
    15da:	8d 5e       	subi	r24, 0xED	; 237
    15dc:	9d 4f       	sbci	r25, 0xFD	; 253
    15de:	13 dc       	rcall	.-2010   	; 0xe06 <ld_dword>
    15e0:	62 37       	cpi	r22, 0x72	; 114
    15e2:	72 47       	sbci	r23, 0x72	; 114
    15e4:	81 44       	sbci	r24, 0x41	; 65
    15e6:	91 46       	sbci	r25, 0x61	; 97
    15e8:	a1 f4       	brne	.+40     	; 0x1612 <find_volume+0x4bc>
    15ea:	c8 01       	movw	r24, r16
    15ec:	89 5e       	subi	r24, 0xE9	; 233
    15ee:	9d 4f       	sbci	r25, 0xFD	; 253
    15f0:	0a dc       	rcall	.-2028   	; 0xe06 <ld_dword>
    15f2:	d8 01       	movw	r26, r16
    15f4:	1f 96       	adiw	r26, 0x0f	; 15
    15f6:	6d 93       	st	X+, r22
    15f8:	7d 93       	st	X+, r23
    15fa:	8d 93       	st	X+, r24
    15fc:	9c 93       	st	X, r25
    15fe:	52 97       	sbiw	r26, 0x12	; 18
    1600:	c8 01       	movw	r24, r16
    1602:	85 5e       	subi	r24, 0xE5	; 229
    1604:	9d 4f       	sbci	r25, 0xFD	; 253
    1606:	ff db       	rcall	.-2050   	; 0xe06 <ld_dword>
    1608:	f8 01       	movw	r30, r16
    160a:	63 87       	std	Z+11, r22	; 0x0b
    160c:	74 87       	std	Z+12, r23	; 0x0c
    160e:	85 87       	std	Z+13, r24	; 0x0d
    1610:	96 87       	std	Z+14, r25	; 0x0e
    1612:	e9 89       	ldd	r30, Y+17	; 0x11
    1614:	d8 01       	movw	r26, r16
    1616:	ec 93       	st	X, r30
    1618:	80 91 4c 01 	lds	r24, 0x014C	; 0x80014c <__data_end>
    161c:	90 91 4d 01 	lds	r25, 0x014D	; 0x80014d <__data_end+0x1>
    1620:	01 96       	adiw	r24, 0x01	; 1
    1622:	90 93 4d 01 	sts	0x014D, r25	; 0x80014d <__data_end+0x1>
    1626:	80 93 4c 01 	sts	0x014C, r24	; 0x80014c <__data_end>
    162a:	16 96       	adiw	r26, 0x06	; 6
    162c:	9c 93       	st	X, r25
    162e:	8e 93       	st	-X, r24
    1630:	15 97       	sbiw	r26, 0x05	; 5
    1632:	04 c0       	rjmp	.+8      	; 0x163c <find_volume+0x4e6>
    1634:	8b e0       	ldi	r24, 0x0B	; 11
    1636:	0a c0       	rjmp	.+20     	; 0x164c <find_volume+0x4f6>
    1638:	8c e0       	ldi	r24, 0x0C	; 12
    163a:	08 c0       	rjmp	.+16     	; 0x164c <find_volume+0x4f6>
    163c:	80 e0       	ldi	r24, 0x00	; 0
    163e:	06 c0       	rjmp	.+12     	; 0x164c <find_volume+0x4f6>
    1640:	83 e0       	ldi	r24, 0x03	; 3
    1642:	04 c0       	rjmp	.+8      	; 0x164c <find_volume+0x4f6>
    1644:	84 30       	cpi	r24, 0x04	; 4
    1646:	09 f0       	breq	.+2      	; 0x164a <find_volume+0x4f4>
    1648:	26 ce       	rjmp	.-948    	; 0x1296 <find_volume+0x140>
    164a:	81 e0       	ldi	r24, 0x01	; 1
    164c:	6e 96       	adiw	r28, 0x1e	; 30
    164e:	0f b6       	in	r0, 0x3f	; 63
    1650:	f8 94       	cli
    1652:	de bf       	out	0x3e, r29	; 62
    1654:	0f be       	out	0x3f, r0	; 63
    1656:	cd bf       	out	0x3d, r28	; 61
    1658:	df 91       	pop	r29
    165a:	cf 91       	pop	r28
    165c:	1f 91       	pop	r17
    165e:	0f 91       	pop	r16
    1660:	ff 90       	pop	r15
    1662:	ef 90       	pop	r14
    1664:	df 90       	pop	r13
    1666:	cf 90       	pop	r12
    1668:	bf 90       	pop	r11
    166a:	af 90       	pop	r10
    166c:	9f 90       	pop	r9
    166e:	8f 90       	pop	r8
    1670:	7f 90       	pop	r7
    1672:	6f 90       	pop	r6
    1674:	5f 90       	pop	r5
    1676:	4f 90       	pop	r4
    1678:	3f 90       	pop	r3
    167a:	2f 90       	pop	r2
    167c:	08 95       	ret

0000167e <put_fat>:
    167e:	2f 92       	push	r2
    1680:	3f 92       	push	r3
    1682:	4f 92       	push	r4
    1684:	5f 92       	push	r5
    1686:	6f 92       	push	r6
    1688:	7f 92       	push	r7
    168a:	8f 92       	push	r8
    168c:	9f 92       	push	r9
    168e:	af 92       	push	r10
    1690:	bf 92       	push	r11
    1692:	cf 92       	push	r12
    1694:	df 92       	push	r13
    1696:	ef 92       	push	r14
    1698:	ff 92       	push	r15
    169a:	0f 93       	push	r16
    169c:	1f 93       	push	r17
    169e:	cf 93       	push	r28
    16a0:	df 93       	push	r29
    16a2:	00 d0       	rcall	.+0      	; 0x16a4 <put_fat+0x26>
    16a4:	00 d0       	rcall	.+0      	; 0x16a6 <put_fat+0x28>
    16a6:	cd b7       	in	r28, 0x3d	; 61
    16a8:	de b7       	in	r29, 0x3e	; 62
    16aa:	1c 01       	movw	r2, r24
    16ac:	6a 01       	movw	r12, r20
    16ae:	7b 01       	movw	r14, r22
    16b0:	28 01       	movw	r4, r16
    16b2:	39 01       	movw	r6, r18
    16b4:	42 30       	cpi	r20, 0x02	; 2
    16b6:	51 05       	cpc	r21, r1
    16b8:	61 05       	cpc	r22, r1
    16ba:	71 05       	cpc	r23, r1
    16bc:	08 f4       	brcc	.+2      	; 0x16c0 <put_fat+0x42>
    16be:	da c0       	rjmp	.+436    	; 0x1874 <put_fat+0x1f6>
    16c0:	fc 01       	movw	r30, r24
    16c2:	83 89       	ldd	r24, Z+19	; 0x13
    16c4:	94 89       	ldd	r25, Z+20	; 0x14
    16c6:	a5 89       	ldd	r26, Z+21	; 0x15
    16c8:	b6 89       	ldd	r27, Z+22	; 0x16
    16ca:	48 17       	cp	r20, r24
    16cc:	59 07       	cpc	r21, r25
    16ce:	6a 07       	cpc	r22, r26
    16d0:	7b 07       	cpc	r23, r27
    16d2:	08 f0       	brcs	.+2      	; 0x16d6 <put_fat+0x58>
    16d4:	cf c0       	rjmp	.+414    	; 0x1874 <put_fat+0x1f6>
    16d6:	80 81       	ld	r24, Z
    16d8:	82 30       	cpi	r24, 0x02	; 2
    16da:	09 f4       	brne	.+2      	; 0x16de <put_fat+0x60>
    16dc:	73 c0       	rjmp	.+230    	; 0x17c4 <put_fat+0x146>
    16de:	83 30       	cpi	r24, 0x03	; 3
    16e0:	09 f4       	brne	.+2      	; 0x16e4 <put_fat+0x66>
    16e2:	91 c0       	rjmp	.+290    	; 0x1806 <put_fat+0x188>
    16e4:	81 30       	cpi	r24, 0x01	; 1
    16e6:	09 f0       	breq	.+2      	; 0x16ea <put_fat+0x6c>
    16e8:	c5 c0       	rjmp	.+394    	; 0x1874 <put_fat+0x1f6>
    16ea:	5a 01       	movw	r10, r20
    16ec:	b6 94       	lsr	r11
    16ee:	a7 94       	ror	r10
    16f0:	a4 0e       	add	r10, r20
    16f2:	b5 1e       	adc	r11, r21
    16f4:	c5 01       	movw	r24, r10
    16f6:	89 2f       	mov	r24, r25
    16f8:	99 27       	eor	r25, r25
    16fa:	86 95       	lsr	r24
    16fc:	47 8d       	ldd	r20, Z+31	; 0x1f
    16fe:	50 a1       	ldd	r21, Z+32	; 0x20
    1700:	61 a1       	ldd	r22, Z+33	; 0x21
    1702:	72 a1       	ldd	r23, Z+34	; 0x22
    1704:	48 0f       	add	r20, r24
    1706:	59 1f       	adc	r21, r25
    1708:	61 1d       	adc	r22, r1
    170a:	71 1d       	adc	r23, r1
    170c:	c1 01       	movw	r24, r2
    170e:	a3 dc       	rcall	.-1722   	; 0x1056 <move_window>
    1710:	18 2f       	mov	r17, r24
    1712:	81 11       	cpse	r24, r1
    1714:	b0 c0       	rjmp	.+352    	; 0x1876 <put_fat+0x1f8>
    1716:	45 01       	movw	r8, r10
    1718:	ff ef       	ldi	r31, 0xFF	; 255
    171a:	8f 1a       	sub	r8, r31
    171c:	9f 0a       	sbc	r9, r31
    171e:	31 e0       	ldi	r19, 0x01	; 1
    1720:	b3 22       	and	r11, r19
    1722:	a2 0c       	add	r10, r2
    1724:	b3 1c       	adc	r11, r3
    1726:	d7 01       	movw	r26, r14
    1728:	c6 01       	movw	r24, r12
    172a:	81 70       	andi	r24, 0x01	; 1
    172c:	99 27       	eor	r25, r25
    172e:	aa 27       	eor	r26, r26
    1730:	bb 27       	eor	r27, r27
    1732:	89 83       	std	Y+1, r24	; 0x01
    1734:	9a 83       	std	Y+2, r25	; 0x02
    1736:	ab 83       	std	Y+3, r26	; 0x03
    1738:	bc 83       	std	Y+4, r27	; 0x04
    173a:	c0 fe       	sbrs	r12, 0
    173c:	0b c0       	rjmp	.+22     	; 0x1754 <put_fat+0xd6>
    173e:	d5 01       	movw	r26, r10
    1740:	9f 96       	adiw	r26, 0x2f	; 47
    1742:	8c 91       	ld	r24, X
    1744:	28 2f       	mov	r18, r24
    1746:	2f 70       	andi	r18, 0x0F	; 15
    1748:	b0 e1       	ldi	r27, 0x10	; 16
    174a:	4b 9e       	mul	r4, r27
    174c:	c0 01       	movw	r24, r0
    174e:	11 24       	eor	r1, r1
    1750:	82 2b       	or	r24, r18
    1752:	01 c0       	rjmp	.+2      	; 0x1756 <put_fat+0xd8>
    1754:	84 2d       	mov	r24, r4
    1756:	f5 01       	movw	r30, r10
    1758:	87 a7       	std	Z+47, r24	; 0x2f
    175a:	81 e0       	ldi	r24, 0x01	; 1
    175c:	d1 01       	movw	r26, r2
    175e:	13 96       	adiw	r26, 0x03	; 3
    1760:	8c 93       	st	X, r24
    1762:	13 97       	sbiw	r26, 0x03	; 3
    1764:	5f 96       	adiw	r26, 0x1f	; 31
    1766:	4d 91       	ld	r20, X+
    1768:	5d 91       	ld	r21, X+
    176a:	6d 91       	ld	r22, X+
    176c:	7c 91       	ld	r23, X
    176e:	92 97       	sbiw	r26, 0x22	; 34
    1770:	c4 01       	movw	r24, r8
    1772:	89 2f       	mov	r24, r25
    1774:	99 27       	eor	r25, r25
    1776:	86 95       	lsr	r24
    1778:	48 0f       	add	r20, r24
    177a:	59 1f       	adc	r21, r25
    177c:	61 1d       	adc	r22, r1
    177e:	71 1d       	adc	r23, r1
    1780:	c1 01       	movw	r24, r2
    1782:	69 dc       	rcall	.-1838   	; 0x1056 <move_window>
    1784:	18 2f       	mov	r17, r24
    1786:	81 11       	cpse	r24, r1
    1788:	76 c0       	rjmp	.+236    	; 0x1876 <put_fat+0x1f8>
    178a:	b1 e0       	ldi	r27, 0x01	; 1
    178c:	9b 22       	and	r9, r27
    178e:	f1 01       	movw	r30, r2
    1790:	e8 0d       	add	r30, r8
    1792:	f9 1d       	adc	r31, r9
    1794:	89 81       	ldd	r24, Y+1	; 0x01
    1796:	9a 81       	ldd	r25, Y+2	; 0x02
    1798:	ab 81       	ldd	r26, Y+3	; 0x03
    179a:	bc 81       	ldd	r27, Y+4	; 0x04
    179c:	89 2b       	or	r24, r25
    179e:	8a 2b       	or	r24, r26
    17a0:	8b 2b       	or	r24, r27
    17a2:	41 f0       	breq	.+16     	; 0x17b4 <put_fat+0x136>
    17a4:	54 e0       	ldi	r21, 0x04	; 4
    17a6:	76 94       	lsr	r7
    17a8:	67 94       	ror	r6
    17aa:	57 94       	ror	r5
    17ac:	47 94       	ror	r4
    17ae:	5a 95       	dec	r21
    17b0:	d1 f7       	brne	.-12     	; 0x17a6 <put_fat+0x128>
    17b2:	06 c0       	rjmp	.+12     	; 0x17c0 <put_fat+0x142>
    17b4:	47 a5       	ldd	r20, Z+47	; 0x2f
    17b6:	40 7f       	andi	r20, 0xF0	; 240
    17b8:	85 2d       	mov	r24, r5
    17ba:	8f 70       	andi	r24, 0x0F	; 15
    17bc:	44 2e       	mov	r4, r20
    17be:	48 2a       	or	r4, r24
    17c0:	47 a6       	std	Z+47, r4	; 0x2f
    17c2:	53 c0       	rjmp	.+166    	; 0x186a <put_fat+0x1ec>
    17c4:	77 27       	eor	r23, r23
    17c6:	6f 2d       	mov	r22, r15
    17c8:	5e 2d       	mov	r21, r14
    17ca:	4d 2d       	mov	r20, r13
    17cc:	f1 01       	movw	r30, r2
    17ce:	87 8d       	ldd	r24, Z+31	; 0x1f
    17d0:	90 a1       	ldd	r25, Z+32	; 0x20
    17d2:	a1 a1       	ldd	r26, Z+33	; 0x21
    17d4:	b2 a1       	ldd	r27, Z+34	; 0x22
    17d6:	48 0f       	add	r20, r24
    17d8:	59 1f       	adc	r21, r25
    17da:	6a 1f       	adc	r22, r26
    17dc:	7b 1f       	adc	r23, r27
    17de:	c1 01       	movw	r24, r2
    17e0:	3a dc       	rcall	.-1932   	; 0x1056 <move_window>
    17e2:	18 2f       	mov	r17, r24
    17e4:	81 11       	cpse	r24, r1
    17e6:	47 c0       	rjmp	.+142    	; 0x1876 <put_fat+0x1f8>
    17e8:	cc 0c       	add	r12, r12
    17ea:	dd 1c       	adc	r13, r13
    17ec:	e8 94       	clt
    17ee:	c0 f8       	bld	r12, 0
    17f0:	f1 e0       	ldi	r31, 0x01	; 1
    17f2:	df 22       	and	r13, r31
    17f4:	f1 01       	movw	r30, r2
    17f6:	ec 0d       	add	r30, r12
    17f8:	fd 1d       	adc	r31, r13
    17fa:	47 a6       	std	Z+47, r4	; 0x2f
    17fc:	f1 01       	movw	r30, r2
    17fe:	ec 0d       	add	r30, r12
    1800:	fd 1d       	adc	r31, r13
    1802:	50 aa       	std	Z+48, r5	; 0x30
    1804:	32 c0       	rjmp	.+100    	; 0x186a <put_fat+0x1ec>
    1806:	f1 01       	movw	r30, r2
    1808:	87 8d       	ldd	r24, Z+31	; 0x1f
    180a:	90 a1       	ldd	r25, Z+32	; 0x20
    180c:	a1 a1       	ldd	r26, Z+33	; 0x21
    180e:	b2 a1       	ldd	r27, Z+34	; 0x22
    1810:	27 e0       	ldi	r18, 0x07	; 7
    1812:	76 95       	lsr	r23
    1814:	67 95       	ror	r22
    1816:	57 95       	ror	r21
    1818:	47 95       	ror	r20
    181a:	2a 95       	dec	r18
    181c:	d1 f7       	brne	.-12     	; 0x1812 <put_fat+0x194>
    181e:	48 0f       	add	r20, r24
    1820:	59 1f       	adc	r21, r25
    1822:	6a 1f       	adc	r22, r26
    1824:	7b 1f       	adc	r23, r27
    1826:	c1 01       	movw	r24, r2
    1828:	16 dc       	rcall	.-2004   	; 0x1056 <move_window>
    182a:	18 2f       	mov	r17, r24
    182c:	81 11       	cpse	r24, r1
    182e:	23 c0       	rjmp	.+70     	; 0x1876 <put_fat+0x1f8>
    1830:	cc 0c       	add	r12, r12
    1832:	dd 1c       	adc	r13, r13
    1834:	cc 0c       	add	r12, r12
    1836:	dd 1c       	adc	r13, r13
    1838:	fc ef       	ldi	r31, 0xFC	; 252
    183a:	cf 22       	and	r12, r31
    183c:	f1 e0       	ldi	r31, 0x01	; 1
    183e:	df 22       	and	r13, r31
    1840:	3f e2       	ldi	r19, 0x2F	; 47
    1842:	c3 0e       	add	r12, r19
    1844:	d1 1c       	adc	r13, r1
    1846:	c2 0c       	add	r12, r2
    1848:	d3 1c       	adc	r13, r3
    184a:	c6 01       	movw	r24, r12
    184c:	dc da       	rcall	.-2632   	; 0xe06 <ld_dword>
    184e:	ab 01       	movw	r20, r22
    1850:	bc 01       	movw	r22, r24
    1852:	44 27       	eor	r20, r20
    1854:	55 27       	eor	r21, r21
    1856:	66 27       	eor	r22, r22
    1858:	70 7f       	andi	r23, 0xF0	; 240
    185a:	8f e0       	ldi	r24, 0x0F	; 15
    185c:	78 22       	and	r7, r24
    185e:	44 29       	or	r20, r4
    1860:	55 29       	or	r21, r5
    1862:	66 29       	or	r22, r6
    1864:	77 29       	or	r23, r7
    1866:	c6 01       	movw	r24, r12
    1868:	e9 da       	rcall	.-2606   	; 0xe3c <st_dword>
    186a:	81 e0       	ldi	r24, 0x01	; 1
    186c:	d1 01       	movw	r26, r2
    186e:	13 96       	adiw	r26, 0x03	; 3
    1870:	8c 93       	st	X, r24
    1872:	01 c0       	rjmp	.+2      	; 0x1876 <put_fat+0x1f8>
    1874:	12 e0       	ldi	r17, 0x02	; 2
    1876:	81 2f       	mov	r24, r17
    1878:	0f 90       	pop	r0
    187a:	0f 90       	pop	r0
    187c:	0f 90       	pop	r0
    187e:	0f 90       	pop	r0
    1880:	df 91       	pop	r29
    1882:	cf 91       	pop	r28
    1884:	1f 91       	pop	r17
    1886:	0f 91       	pop	r16
    1888:	ff 90       	pop	r15
    188a:	ef 90       	pop	r14
    188c:	df 90       	pop	r13
    188e:	cf 90       	pop	r12
    1890:	bf 90       	pop	r11
    1892:	af 90       	pop	r10
    1894:	9f 90       	pop	r9
    1896:	8f 90       	pop	r8
    1898:	7f 90       	pop	r7
    189a:	6f 90       	pop	r6
    189c:	5f 90       	pop	r5
    189e:	4f 90       	pop	r4
    18a0:	3f 90       	pop	r3
    18a2:	2f 90       	pop	r2
    18a4:	08 95       	ret

000018a6 <get_fat.isra.8>:
    18a6:	af 92       	push	r10
    18a8:	bf 92       	push	r11
    18aa:	cf 92       	push	r12
    18ac:	df 92       	push	r13
    18ae:	ef 92       	push	r14
    18b0:	ff 92       	push	r15
    18b2:	0f 93       	push	r16
    18b4:	1f 93       	push	r17
    18b6:	cf 93       	push	r28
    18b8:	df 93       	push	r29
    18ba:	8c 01       	movw	r16, r24
    18bc:	6a 01       	movw	r12, r20
    18be:	7b 01       	movw	r14, r22
    18c0:	42 30       	cpi	r20, 0x02	; 2
    18c2:	51 05       	cpc	r21, r1
    18c4:	61 05       	cpc	r22, r1
    18c6:	71 05       	cpc	r23, r1
    18c8:	08 f4       	brcc	.+2      	; 0x18cc <get_fat.isra.8+0x26>
    18ca:	a3 c0       	rjmp	.+326    	; 0x1a12 <get_fat.isra.8+0x16c>
    18cc:	f8 01       	movw	r30, r16
    18ce:	83 89       	ldd	r24, Z+19	; 0x13
    18d0:	94 89       	ldd	r25, Z+20	; 0x14
    18d2:	a5 89       	ldd	r26, Z+21	; 0x15
    18d4:	b6 89       	ldd	r27, Z+22	; 0x16
    18d6:	48 17       	cp	r20, r24
    18d8:	59 07       	cpc	r21, r25
    18da:	6a 07       	cpc	r22, r26
    18dc:	7b 07       	cpc	r23, r27
    18de:	08 f0       	brcs	.+2      	; 0x18e2 <get_fat.isra.8+0x3c>
    18e0:	98 c0       	rjmp	.+304    	; 0x1a12 <get_fat.isra.8+0x16c>
    18e2:	80 81       	ld	r24, Z
    18e4:	82 30       	cpi	r24, 0x02	; 2
    18e6:	09 f4       	brne	.+2      	; 0x18ea <get_fat.isra.8+0x44>
    18e8:	4b c0       	rjmp	.+150    	; 0x1980 <get_fat.isra.8+0xda>
    18ea:	83 30       	cpi	r24, 0x03	; 3
    18ec:	09 f4       	brne	.+2      	; 0x18f0 <get_fat.isra.8+0x4a>
    18ee:	6e c0       	rjmp	.+220    	; 0x19cc <get_fat.isra.8+0x126>
    18f0:	81 30       	cpi	r24, 0x01	; 1
    18f2:	09 f0       	breq	.+2      	; 0x18f6 <get_fat.isra.8+0x50>
    18f4:	8e c0       	rjmp	.+284    	; 0x1a12 <get_fat.isra.8+0x16c>
    18f6:	ea 01       	movw	r28, r20
    18f8:	d6 95       	lsr	r29
    18fa:	c7 95       	ror	r28
    18fc:	c4 0f       	add	r28, r20
    18fe:	d5 1f       	adc	r29, r21
    1900:	ce 01       	movw	r24, r28
    1902:	89 2f       	mov	r24, r25
    1904:	99 27       	eor	r25, r25
    1906:	86 95       	lsr	r24
    1908:	47 8d       	ldd	r20, Z+31	; 0x1f
    190a:	50 a1       	ldd	r21, Z+32	; 0x20
    190c:	61 a1       	ldd	r22, Z+33	; 0x21
    190e:	72 a1       	ldd	r23, Z+34	; 0x22
    1910:	48 0f       	add	r20, r24
    1912:	59 1f       	adc	r21, r25
    1914:	61 1d       	adc	r22, r1
    1916:	71 1d       	adc	r23, r1
    1918:	c8 01       	movw	r24, r16
    191a:	9d db       	rcall	.-2246   	; 0x1056 <move_window>
    191c:	88 23       	and	r24, r24
    191e:	21 f0       	breq	.+8      	; 0x1928 <get_fat.isra.8+0x82>
    1920:	6f ef       	ldi	r22, 0xFF	; 255
    1922:	7f ef       	ldi	r23, 0xFF	; 255
    1924:	cb 01       	movw	r24, r22
    1926:	79 c0       	rjmp	.+242    	; 0x1a1a <get_fat.isra.8+0x174>
    1928:	5e 01       	movw	r10, r28
    192a:	ff ef       	ldi	r31, 0xFF	; 255
    192c:	af 1a       	sub	r10, r31
    192e:	bf 0a       	sbc	r11, r31
    1930:	d1 70       	andi	r29, 0x01	; 1
    1932:	c0 0f       	add	r28, r16
    1934:	d1 1f       	adc	r29, r17
    1936:	cf a5       	ldd	r28, Y+47	; 0x2f
    1938:	c5 01       	movw	r24, r10
    193a:	89 2f       	mov	r24, r25
    193c:	99 27       	eor	r25, r25
    193e:	86 95       	lsr	r24
    1940:	f8 01       	movw	r30, r16
    1942:	47 8d       	ldd	r20, Z+31	; 0x1f
    1944:	50 a1       	ldd	r21, Z+32	; 0x20
    1946:	61 a1       	ldd	r22, Z+33	; 0x21
    1948:	72 a1       	ldd	r23, Z+34	; 0x22
    194a:	48 0f       	add	r20, r24
    194c:	59 1f       	adc	r21, r25
    194e:	61 1d       	adc	r22, r1
    1950:	71 1d       	adc	r23, r1
    1952:	c8 01       	movw	r24, r16
    1954:	80 db       	rcall	.-2304   	; 0x1056 <move_window>
    1956:	81 11       	cpse	r24, r1
    1958:	e3 cf       	rjmp	.-58     	; 0x1920 <get_fat.isra.8+0x7a>
    195a:	f1 e0       	ldi	r31, 0x01	; 1
    195c:	bf 22       	and	r11, r31
    195e:	f8 01       	movw	r30, r16
    1960:	ea 0d       	add	r30, r10
    1962:	fb 1d       	adc	r31, r11
    1964:	87 a5       	ldd	r24, Z+47	; 0x2f
    1966:	6c 2f       	mov	r22, r28
    1968:	70 e0       	ldi	r23, 0x00	; 0
    196a:	78 2b       	or	r23, r24
    196c:	c0 fe       	sbrs	r12, 0
    196e:	06 c0       	rjmp	.+12     	; 0x197c <get_fat.isra.8+0xd6>
    1970:	e4 e0       	ldi	r30, 0x04	; 4
    1972:	76 95       	lsr	r23
    1974:	67 95       	ror	r22
    1976:	ea 95       	dec	r30
    1978:	e1 f7       	brne	.-8      	; 0x1972 <get_fat.isra.8+0xcc>
    197a:	25 c0       	rjmp	.+74     	; 0x19c6 <get_fat.isra.8+0x120>
    197c:	7f 70       	andi	r23, 0x0F	; 15
    197e:	23 c0       	rjmp	.+70     	; 0x19c6 <get_fat.isra.8+0x120>
    1980:	77 27       	eor	r23, r23
    1982:	6f 2d       	mov	r22, r15
    1984:	5e 2d       	mov	r21, r14
    1986:	4d 2d       	mov	r20, r13
    1988:	f8 01       	movw	r30, r16
    198a:	87 8d       	ldd	r24, Z+31	; 0x1f
    198c:	90 a1       	ldd	r25, Z+32	; 0x20
    198e:	a1 a1       	ldd	r26, Z+33	; 0x21
    1990:	b2 a1       	ldd	r27, Z+34	; 0x22
    1992:	48 0f       	add	r20, r24
    1994:	59 1f       	adc	r21, r25
    1996:	6a 1f       	adc	r22, r26
    1998:	7b 1f       	adc	r23, r27
    199a:	c8 01       	movw	r24, r16
    199c:	5c db       	rcall	.-2376   	; 0x1056 <move_window>
    199e:	81 11       	cpse	r24, r1
    19a0:	bf cf       	rjmp	.-130    	; 0x1920 <get_fat.isra.8+0x7a>
    19a2:	cc 0c       	add	r12, r12
    19a4:	dd 1c       	adc	r13, r13
    19a6:	e8 94       	clt
    19a8:	c0 f8       	bld	r12, 0
    19aa:	f1 e0       	ldi	r31, 0x01	; 1
    19ac:	df 22       	and	r13, r31
    19ae:	f8 01       	movw	r30, r16
    19b0:	ec 0d       	add	r30, r12
    19b2:	fd 1d       	adc	r31, r13
    19b4:	60 a9       	ldd	r22, Z+48	; 0x30
    19b6:	70 e0       	ldi	r23, 0x00	; 0
    19b8:	76 2f       	mov	r23, r22
    19ba:	66 27       	eor	r22, r22
    19bc:	f8 01       	movw	r30, r16
    19be:	ec 0d       	add	r30, r12
    19c0:	fd 1d       	adc	r31, r13
    19c2:	87 a5       	ldd	r24, Z+47	; 0x2f
    19c4:	68 2b       	or	r22, r24
    19c6:	80 e0       	ldi	r24, 0x00	; 0
    19c8:	90 e0       	ldi	r25, 0x00	; 0
    19ca:	27 c0       	rjmp	.+78     	; 0x1a1a <get_fat.isra.8+0x174>
    19cc:	f8 01       	movw	r30, r16
    19ce:	87 8d       	ldd	r24, Z+31	; 0x1f
    19d0:	90 a1       	ldd	r25, Z+32	; 0x20
    19d2:	a1 a1       	ldd	r26, Z+33	; 0x21
    19d4:	b2 a1       	ldd	r27, Z+34	; 0x22
    19d6:	27 e0       	ldi	r18, 0x07	; 7
    19d8:	76 95       	lsr	r23
    19da:	67 95       	ror	r22
    19dc:	57 95       	ror	r21
    19de:	47 95       	ror	r20
    19e0:	2a 95       	dec	r18
    19e2:	d1 f7       	brne	.-12     	; 0x19d8 <get_fat.isra.8+0x132>
    19e4:	48 0f       	add	r20, r24
    19e6:	59 1f       	adc	r21, r25
    19e8:	6a 1f       	adc	r22, r26
    19ea:	7b 1f       	adc	r23, r27
    19ec:	c8 01       	movw	r24, r16
    19ee:	33 db       	rcall	.-2458   	; 0x1056 <move_window>
    19f0:	81 11       	cpse	r24, r1
    19f2:	96 cf       	rjmp	.-212    	; 0x1920 <get_fat.isra.8+0x7a>
    19f4:	cc 0c       	add	r12, r12
    19f6:	dd 1c       	adc	r13, r13
    19f8:	cc 0c       	add	r12, r12
    19fa:	dd 1c       	adc	r13, r13
    19fc:	fc ef       	ldi	r31, 0xFC	; 252
    19fe:	cf 22       	and	r12, r31
    1a00:	f1 e0       	ldi	r31, 0x01	; 1
    1a02:	df 22       	and	r13, r31
    1a04:	c6 01       	movw	r24, r12
    1a06:	8f 96       	adiw	r24, 0x2f	; 47
    1a08:	80 0f       	add	r24, r16
    1a0a:	91 1f       	adc	r25, r17
    1a0c:	fc d9       	rcall	.-3080   	; 0xe06 <ld_dword>
    1a0e:	9f 70       	andi	r25, 0x0F	; 15
    1a10:	04 c0       	rjmp	.+8      	; 0x1a1a <get_fat.isra.8+0x174>
    1a12:	61 e0       	ldi	r22, 0x01	; 1
    1a14:	70 e0       	ldi	r23, 0x00	; 0
    1a16:	80 e0       	ldi	r24, 0x00	; 0
    1a18:	90 e0       	ldi	r25, 0x00	; 0
    1a1a:	df 91       	pop	r29
    1a1c:	cf 91       	pop	r28
    1a1e:	1f 91       	pop	r17
    1a20:	0f 91       	pop	r16
    1a22:	ff 90       	pop	r15
    1a24:	ef 90       	pop	r14
    1a26:	df 90       	pop	r13
    1a28:	cf 90       	pop	r12
    1a2a:	bf 90       	pop	r11
    1a2c:	af 90       	pop	r10
    1a2e:	08 95       	ret

00001a30 <create_chain>:
    1a30:	4f 92       	push	r4
    1a32:	5f 92       	push	r5
    1a34:	6f 92       	push	r6
    1a36:	7f 92       	push	r7
    1a38:	8f 92       	push	r8
    1a3a:	9f 92       	push	r9
    1a3c:	af 92       	push	r10
    1a3e:	bf 92       	push	r11
    1a40:	cf 92       	push	r12
    1a42:	df 92       	push	r13
    1a44:	ef 92       	push	r14
    1a46:	ff 92       	push	r15
    1a48:	0f 93       	push	r16
    1a4a:	1f 93       	push	r17
    1a4c:	cf 93       	push	r28
    1a4e:	df 93       	push	r29
    1a50:	8c 01       	movw	r16, r24
    1a52:	4a 01       	movw	r8, r20
    1a54:	5b 01       	movw	r10, r22
    1a56:	fc 01       	movw	r30, r24
    1a58:	c0 81       	ld	r28, Z
    1a5a:	d1 81       	ldd	r29, Z+1	; 0x01
    1a5c:	41 15       	cp	r20, r1
    1a5e:	51 05       	cpc	r21, r1
    1a60:	61 05       	cpc	r22, r1
    1a62:	71 05       	cpc	r23, r1
    1a64:	99 f4       	brne	.+38     	; 0x1a8c <create_chain+0x5c>
    1a66:	4b 84       	ldd	r4, Y+11	; 0x0b
    1a68:	5c 84       	ldd	r5, Y+12	; 0x0c
    1a6a:	6d 84       	ldd	r6, Y+13	; 0x0d
    1a6c:	7e 84       	ldd	r7, Y+14	; 0x0e
    1a6e:	41 14       	cp	r4, r1
    1a70:	51 04       	cpc	r5, r1
    1a72:	61 04       	cpc	r6, r1
    1a74:	71 04       	cpc	r7, r1
    1a76:	59 f1       	breq	.+86     	; 0x1ace <create_chain+0x9e>
    1a78:	8b 89       	ldd	r24, Y+19	; 0x13
    1a7a:	9c 89       	ldd	r25, Y+20	; 0x14
    1a7c:	ad 89       	ldd	r26, Y+21	; 0x15
    1a7e:	be 89       	ldd	r27, Y+22	; 0x16
    1a80:	48 16       	cp	r4, r24
    1a82:	59 06       	cpc	r5, r25
    1a84:	6a 06       	cpc	r6, r26
    1a86:	7b 06       	cpc	r7, r27
    1a88:	30 f1       	brcs	.+76     	; 0x1ad6 <create_chain+0xa6>
    1a8a:	21 c0       	rjmp	.+66     	; 0x1ace <create_chain+0x9e>
    1a8c:	ce 01       	movw	r24, r28
    1a8e:	0b df       	rcall	.-490    	; 0x18a6 <get_fat.isra.8>
    1a90:	6b 01       	movw	r12, r22
    1a92:	7c 01       	movw	r14, r24
    1a94:	62 30       	cpi	r22, 0x02	; 2
    1a96:	71 05       	cpc	r23, r1
    1a98:	81 05       	cpc	r24, r1
    1a9a:	91 05       	cpc	r25, r1
    1a9c:	08 f4       	brcc	.+2      	; 0x1aa0 <create_chain+0x70>
    1a9e:	93 c0       	rjmp	.+294    	; 0x1bc6 <create_chain+0x196>
    1aa0:	6f 3f       	cpi	r22, 0xFF	; 255
    1aa2:	7f 4f       	sbci	r23, 0xFF	; 255
    1aa4:	8f 4f       	sbci	r24, 0xFF	; 255
    1aa6:	9f 4f       	sbci	r25, 0xFF	; 255
    1aa8:	29 f4       	brne	.+10     	; 0x1ab4 <create_chain+0x84>
    1aaa:	4f ef       	ldi	r20, 0xFF	; 255
    1aac:	3f ef       	ldi	r19, 0xFF	; 255
    1aae:	2f ef       	ldi	r18, 0xFF	; 255
    1ab0:	9f ef       	ldi	r25, 0xFF	; 255
    1ab2:	92 c0       	rjmp	.+292    	; 0x1bd8 <create_chain+0x1a8>
    1ab4:	8b 89       	ldd	r24, Y+19	; 0x13
    1ab6:	9c 89       	ldd	r25, Y+20	; 0x14
    1ab8:	ad 89       	ldd	r26, Y+21	; 0x15
    1aba:	be 89       	ldd	r27, Y+22	; 0x16
    1abc:	c8 16       	cp	r12, r24
    1abe:	d9 06       	cpc	r13, r25
    1ac0:	ea 06       	cpc	r14, r26
    1ac2:	fb 06       	cpc	r15, r27
    1ac4:	08 f4       	brcc	.+2      	; 0x1ac8 <create_chain+0x98>
    1ac6:	84 c0       	rjmp	.+264    	; 0x1bd0 <create_chain+0x1a0>
    1ac8:	24 01       	movw	r4, r8
    1aca:	35 01       	movw	r6, r10
    1acc:	04 c0       	rjmp	.+8      	; 0x1ad6 <create_chain+0xa6>
    1ace:	41 2c       	mov	r4, r1
    1ad0:	51 2c       	mov	r5, r1
    1ad2:	32 01       	movw	r6, r4
    1ad4:	43 94       	inc	r4
    1ad6:	73 01       	movw	r14, r6
    1ad8:	62 01       	movw	r12, r4
    1ada:	8f ef       	ldi	r24, 0xFF	; 255
    1adc:	c8 1a       	sub	r12, r24
    1ade:	d8 0a       	sbc	r13, r24
    1ae0:	e8 0a       	sbc	r14, r24
    1ae2:	f8 0a       	sbc	r15, r24
    1ae4:	8b 89       	ldd	r24, Y+19	; 0x13
    1ae6:	9c 89       	ldd	r25, Y+20	; 0x14
    1ae8:	ad 89       	ldd	r26, Y+21	; 0x15
    1aea:	be 89       	ldd	r27, Y+22	; 0x16
    1aec:	c8 16       	cp	r12, r24
    1aee:	d9 06       	cpc	r13, r25
    1af0:	ea 06       	cpc	r14, r26
    1af2:	fb 06       	cpc	r15, r27
    1af4:	68 f0       	brcs	.+26     	; 0x1b10 <create_chain+0xe0>
    1af6:	e2 e0       	ldi	r30, 0x02	; 2
    1af8:	4e 16       	cp	r4, r30
    1afa:	51 04       	cpc	r5, r1
    1afc:	61 04       	cpc	r6, r1
    1afe:	71 04       	cpc	r7, r1
    1b00:	10 f4       	brcc	.+4      	; 0x1b06 <create_chain+0xd6>
    1b02:	40 e0       	ldi	r20, 0x00	; 0
    1b04:	61 c0       	rjmp	.+194    	; 0x1bc8 <create_chain+0x198>
    1b06:	82 e0       	ldi	r24, 0x02	; 2
    1b08:	c8 2e       	mov	r12, r24
    1b0a:	d1 2c       	mov	r13, r1
    1b0c:	e1 2c       	mov	r14, r1
    1b0e:	f1 2c       	mov	r15, r1
    1b10:	b7 01       	movw	r22, r14
    1b12:	a6 01       	movw	r20, r12
    1b14:	f8 01       	movw	r30, r16
    1b16:	80 81       	ld	r24, Z
    1b18:	91 81       	ldd	r25, Z+1	; 0x01
    1b1a:	c5 de       	rcall	.-630    	; 0x18a6 <get_fat.isra.8>
    1b1c:	61 15       	cp	r22, r1
    1b1e:	71 05       	cpc	r23, r1
    1b20:	81 05       	cpc	r24, r1
    1b22:	91 05       	cpc	r25, r1
    1b24:	a9 f0       	breq	.+42     	; 0x1b50 <create_chain+0x120>
    1b26:	61 30       	cpi	r22, 0x01	; 1
    1b28:	71 05       	cpc	r23, r1
    1b2a:	81 05       	cpc	r24, r1
    1b2c:	91 05       	cpc	r25, r1
    1b2e:	31 f0       	breq	.+12     	; 0x1b3c <create_chain+0x10c>
    1b30:	6f 3f       	cpi	r22, 0xFF	; 255
    1b32:	ff ef       	ldi	r31, 0xFF	; 255
    1b34:	7f 07       	cpc	r23, r31
    1b36:	8f 07       	cpc	r24, r31
    1b38:	9f 07       	cpc	r25, r31
    1b3a:	21 f4       	brne	.+8      	; 0x1b44 <create_chain+0x114>
    1b3c:	46 2f       	mov	r20, r22
    1b3e:	37 2f       	mov	r19, r23
    1b40:	28 2f       	mov	r18, r24
    1b42:	4a c0       	rjmp	.+148    	; 0x1bd8 <create_chain+0x1a8>
    1b44:	c4 14       	cp	r12, r4
    1b46:	d5 04       	cpc	r13, r5
    1b48:	e6 04       	cpc	r14, r6
    1b4a:	f7 04       	cpc	r15, r7
    1b4c:	31 f6       	brne	.-116    	; 0x1ada <create_chain+0xaa>
    1b4e:	d9 cf       	rjmp	.-78     	; 0x1b02 <create_chain+0xd2>
    1b50:	0f ef       	ldi	r16, 0xFF	; 255
    1b52:	1f ef       	ldi	r17, 0xFF	; 255
    1b54:	98 01       	movw	r18, r16
    1b56:	b7 01       	movw	r22, r14
    1b58:	a6 01       	movw	r20, r12
    1b5a:	ce 01       	movw	r24, r28
    1b5c:	90 dd       	rcall	.-1248   	; 0x167e <put_fat>
    1b5e:	81 11       	cpse	r24, r1
    1b60:	2f c0       	rjmp	.+94     	; 0x1bc0 <create_chain+0x190>
    1b62:	81 14       	cp	r8, r1
    1b64:	91 04       	cpc	r9, r1
    1b66:	a1 04       	cpc	r10, r1
    1b68:	b1 04       	cpc	r11, r1
    1b6a:	e9 f4       	brne	.+58     	; 0x1ba6 <create_chain+0x176>
    1b6c:	cb 86       	std	Y+11, r12	; 0x0b
    1b6e:	dc 86       	std	Y+12, r13	; 0x0c
    1b70:	ed 86       	std	Y+13, r14	; 0x0d
    1b72:	fe 86       	std	Y+14, r15	; 0x0e
    1b74:	8f 85       	ldd	r24, Y+15	; 0x0f
    1b76:	98 89       	ldd	r25, Y+16	; 0x10
    1b78:	a9 89       	ldd	r26, Y+17	; 0x11
    1b7a:	ba 89       	ldd	r27, Y+18	; 0x12
    1b7c:	4b 89       	ldd	r20, Y+19	; 0x13
    1b7e:	5c 89       	ldd	r21, Y+20	; 0x14
    1b80:	6d 89       	ldd	r22, Y+21	; 0x15
    1b82:	7e 89       	ldd	r23, Y+22	; 0x16
    1b84:	42 50       	subi	r20, 0x02	; 2
    1b86:	51 09       	sbc	r21, r1
    1b88:	61 09       	sbc	r22, r1
    1b8a:	71 09       	sbc	r23, r1
    1b8c:	84 17       	cp	r24, r20
    1b8e:	95 07       	cpc	r25, r21
    1b90:	a6 07       	cpc	r26, r22
    1b92:	b7 07       	cpc	r27, r23
    1b94:	88 f4       	brcc	.+34     	; 0x1bb8 <create_chain+0x188>
    1b96:	01 97       	sbiw	r24, 0x01	; 1
    1b98:	a1 09       	sbc	r26, r1
    1b9a:	b1 09       	sbc	r27, r1
    1b9c:	8f 87       	std	Y+15, r24	; 0x0f
    1b9e:	98 8b       	std	Y+16, r25	; 0x10
    1ba0:	a9 8b       	std	Y+17, r26	; 0x11
    1ba2:	ba 8b       	std	Y+18, r27	; 0x12
    1ba4:	09 c0       	rjmp	.+18     	; 0x1bb8 <create_chain+0x188>
    1ba6:	97 01       	movw	r18, r14
    1ba8:	86 01       	movw	r16, r12
    1baa:	b5 01       	movw	r22, r10
    1bac:	a4 01       	movw	r20, r8
    1bae:	ce 01       	movw	r24, r28
    1bb0:	66 dd       	rcall	.-1332   	; 0x167e <put_fat>
    1bb2:	88 23       	and	r24, r24
    1bb4:	d9 f2       	breq	.-74     	; 0x1b6c <create_chain+0x13c>
    1bb6:	04 c0       	rjmp	.+8      	; 0x1bc0 <create_chain+0x190>
    1bb8:	8c 81       	ldd	r24, Y+4	; 0x04
    1bba:	81 60       	ori	r24, 0x01	; 1
    1bbc:	8c 83       	std	Y+4, r24	; 0x04
    1bbe:	08 c0       	rjmp	.+16     	; 0x1bd0 <create_chain+0x1a0>
    1bc0:	81 30       	cpi	r24, 0x01	; 1
    1bc2:	09 f4       	brne	.+2      	; 0x1bc6 <create_chain+0x196>
    1bc4:	72 cf       	rjmp	.-284    	; 0x1aaa <create_chain+0x7a>
    1bc6:	41 e0       	ldi	r20, 0x01	; 1
    1bc8:	30 e0       	ldi	r19, 0x00	; 0
    1bca:	20 e0       	ldi	r18, 0x00	; 0
    1bcc:	90 e0       	ldi	r25, 0x00	; 0
    1bce:	04 c0       	rjmp	.+8      	; 0x1bd8 <create_chain+0x1a8>
    1bd0:	4c 2d       	mov	r20, r12
    1bd2:	3d 2d       	mov	r19, r13
    1bd4:	2e 2d       	mov	r18, r14
    1bd6:	9f 2d       	mov	r25, r15
    1bd8:	64 2f       	mov	r22, r20
    1bda:	73 2f       	mov	r23, r19
    1bdc:	82 2f       	mov	r24, r18
    1bde:	df 91       	pop	r29
    1be0:	cf 91       	pop	r28
    1be2:	1f 91       	pop	r17
    1be4:	0f 91       	pop	r16
    1be6:	ff 90       	pop	r15
    1be8:	ef 90       	pop	r14
    1bea:	df 90       	pop	r13
    1bec:	cf 90       	pop	r12
    1bee:	bf 90       	pop	r11
    1bf0:	af 90       	pop	r10
    1bf2:	9f 90       	pop	r9
    1bf4:	8f 90       	pop	r8
    1bf6:	7f 90       	pop	r7
    1bf8:	6f 90       	pop	r6
    1bfa:	5f 90       	pop	r5
    1bfc:	4f 90       	pop	r4
    1bfe:	08 95       	ret

00001c00 <remove_chain>:
    1c00:	4f 92       	push	r4
    1c02:	5f 92       	push	r5
    1c04:	6f 92       	push	r6
    1c06:	7f 92       	push	r7
    1c08:	8f 92       	push	r8
    1c0a:	9f 92       	push	r9
    1c0c:	af 92       	push	r10
    1c0e:	bf 92       	push	r11
    1c10:	ef 92       	push	r14
    1c12:	ff 92       	push	r15
    1c14:	0f 93       	push	r16
    1c16:	1f 93       	push	r17
    1c18:	cf 93       	push	r28
    1c1a:	df 93       	push	r29
    1c1c:	7c 01       	movw	r14, r24
    1c1e:	4a 01       	movw	r8, r20
    1c20:	5b 01       	movw	r10, r22
    1c22:	b9 01       	movw	r22, r18
    1c24:	a8 01       	movw	r20, r16
    1c26:	fc 01       	movw	r30, r24
    1c28:	c0 81       	ld	r28, Z
    1c2a:	d1 81       	ldd	r29, Z+1	; 0x01
    1c2c:	f2 e0       	ldi	r31, 0x02	; 2
    1c2e:	8f 16       	cp	r8, r31
    1c30:	91 04       	cpc	r9, r1
    1c32:	a1 04       	cpc	r10, r1
    1c34:	b1 04       	cpc	r11, r1
    1c36:	10 f4       	brcc	.+4      	; 0x1c3c <remove_chain+0x3c>
    1c38:	82 e0       	ldi	r24, 0x02	; 2
    1c3a:	5e c0       	rjmp	.+188    	; 0x1cf8 <remove_chain+0xf8>
    1c3c:	8b 89       	ldd	r24, Y+19	; 0x13
    1c3e:	9c 89       	ldd	r25, Y+20	; 0x14
    1c40:	ad 89       	ldd	r26, Y+21	; 0x15
    1c42:	be 89       	ldd	r27, Y+22	; 0x16
    1c44:	88 16       	cp	r8, r24
    1c46:	99 06       	cpc	r9, r25
    1c48:	aa 06       	cpc	r10, r26
    1c4a:	bb 06       	cpc	r11, r27
    1c4c:	a8 f7       	brcc	.-22     	; 0x1c38 <remove_chain+0x38>
    1c4e:	01 2b       	or	r16, r17
    1c50:	02 2b       	or	r16, r18
    1c52:	03 2b       	or	r16, r19
    1c54:	39 f0       	breq	.+14     	; 0x1c64 <remove_chain+0x64>
    1c56:	0f ef       	ldi	r16, 0xFF	; 255
    1c58:	1f ef       	ldi	r17, 0xFF	; 255
    1c5a:	98 01       	movw	r18, r16
    1c5c:	ce 01       	movw	r24, r28
    1c5e:	0f dd       	rcall	.-1506   	; 0x167e <put_fat>
    1c60:	81 11       	cpse	r24, r1
    1c62:	4a c0       	rjmp	.+148    	; 0x1cf8 <remove_chain+0xf8>
    1c64:	b5 01       	movw	r22, r10
    1c66:	a4 01       	movw	r20, r8
    1c68:	f7 01       	movw	r30, r14
    1c6a:	80 81       	ld	r24, Z
    1c6c:	91 81       	ldd	r25, Z+1	; 0x01
    1c6e:	1b de       	rcall	.-970    	; 0x18a6 <get_fat.isra.8>
    1c70:	2b 01       	movw	r4, r22
    1c72:	3c 01       	movw	r6, r24
    1c74:	61 15       	cp	r22, r1
    1c76:	71 05       	cpc	r23, r1
    1c78:	81 05       	cpc	r24, r1
    1c7a:	91 05       	cpc	r25, r1
    1c7c:	11 f4       	brne	.+4      	; 0x1c82 <remove_chain+0x82>
    1c7e:	80 e0       	ldi	r24, 0x00	; 0
    1c80:	3b c0       	rjmp	.+118    	; 0x1cf8 <remove_chain+0xf8>
    1c82:	61 30       	cpi	r22, 0x01	; 1
    1c84:	71 05       	cpc	r23, r1
    1c86:	81 05       	cpc	r24, r1
    1c88:	91 05       	cpc	r25, r1
    1c8a:	b1 f2       	breq	.-84     	; 0x1c38 <remove_chain+0x38>
    1c8c:	6f 3f       	cpi	r22, 0xFF	; 255
    1c8e:	7f 4f       	sbci	r23, 0xFF	; 255
    1c90:	8f 4f       	sbci	r24, 0xFF	; 255
    1c92:	9f 4f       	sbci	r25, 0xFF	; 255
    1c94:	81 f1       	breq	.+96     	; 0x1cf6 <remove_chain+0xf6>
    1c96:	00 e0       	ldi	r16, 0x00	; 0
    1c98:	10 e0       	ldi	r17, 0x00	; 0
    1c9a:	98 01       	movw	r18, r16
    1c9c:	b5 01       	movw	r22, r10
    1c9e:	a4 01       	movw	r20, r8
    1ca0:	ce 01       	movw	r24, r28
    1ca2:	ed dc       	rcall	.-1574   	; 0x167e <put_fat>
    1ca4:	81 11       	cpse	r24, r1
    1ca6:	28 c0       	rjmp	.+80     	; 0x1cf8 <remove_chain+0xf8>
    1ca8:	8f 85       	ldd	r24, Y+15	; 0x0f
    1caa:	98 89       	ldd	r25, Y+16	; 0x10
    1cac:	a9 89       	ldd	r26, Y+17	; 0x11
    1cae:	ba 89       	ldd	r27, Y+18	; 0x12
    1cb0:	4b 89       	ldd	r20, Y+19	; 0x13
    1cb2:	5c 89       	ldd	r21, Y+20	; 0x14
    1cb4:	6d 89       	ldd	r22, Y+21	; 0x15
    1cb6:	7e 89       	ldd	r23, Y+22	; 0x16
    1cb8:	4a 01       	movw	r8, r20
    1cba:	5b 01       	movw	r10, r22
    1cbc:	e2 e0       	ldi	r30, 0x02	; 2
    1cbe:	8e 1a       	sub	r8, r30
    1cc0:	91 08       	sbc	r9, r1
    1cc2:	a1 08       	sbc	r10, r1
    1cc4:	b1 08       	sbc	r11, r1
    1cc6:	88 15       	cp	r24, r8
    1cc8:	99 05       	cpc	r25, r9
    1cca:	aa 05       	cpc	r26, r10
    1ccc:	bb 05       	cpc	r27, r11
    1cce:	50 f4       	brcc	.+20     	; 0x1ce4 <remove_chain+0xe4>
    1cd0:	01 96       	adiw	r24, 0x01	; 1
    1cd2:	a1 1d       	adc	r26, r1
    1cd4:	b1 1d       	adc	r27, r1
    1cd6:	8f 87       	std	Y+15, r24	; 0x0f
    1cd8:	98 8b       	std	Y+16, r25	; 0x10
    1cda:	a9 8b       	std	Y+17, r26	; 0x11
    1cdc:	ba 8b       	std	Y+18, r27	; 0x12
    1cde:	8c 81       	ldd	r24, Y+4	; 0x04
    1ce0:	81 60       	ori	r24, 0x01	; 1
    1ce2:	8c 83       	std	Y+4, r24	; 0x04
    1ce4:	53 01       	movw	r10, r6
    1ce6:	42 01       	movw	r8, r4
    1ce8:	44 16       	cp	r4, r20
    1cea:	55 06       	cpc	r5, r21
    1cec:	66 06       	cpc	r6, r22
    1cee:	77 06       	cpc	r7, r23
    1cf0:	08 f4       	brcc	.+2      	; 0x1cf4 <remove_chain+0xf4>
    1cf2:	b8 cf       	rjmp	.-144    	; 0x1c64 <remove_chain+0x64>
    1cf4:	c4 cf       	rjmp	.-120    	; 0x1c7e <remove_chain+0x7e>
    1cf6:	81 e0       	ldi	r24, 0x01	; 1
    1cf8:	df 91       	pop	r29
    1cfa:	cf 91       	pop	r28
    1cfc:	1f 91       	pop	r17
    1cfe:	0f 91       	pop	r16
    1d00:	ff 90       	pop	r15
    1d02:	ef 90       	pop	r14
    1d04:	bf 90       	pop	r11
    1d06:	af 90       	pop	r10
    1d08:	9f 90       	pop	r9
    1d0a:	8f 90       	pop	r8
    1d0c:	7f 90       	pop	r7
    1d0e:	6f 90       	pop	r6
    1d10:	5f 90       	pop	r5
    1d12:	4f 90       	pop	r4
    1d14:	08 95       	ret

00001d16 <dir_sdi.constprop.11>:
    1d16:	cf 92       	push	r12
    1d18:	df 92       	push	r13
    1d1a:	ef 92       	push	r14
    1d1c:	ff 92       	push	r15
    1d1e:	0f 93       	push	r16
    1d20:	1f 93       	push	r17
    1d22:	cf 93       	push	r28
    1d24:	df 93       	push	r29
    1d26:	8c 01       	movw	r16, r24
    1d28:	fc 01       	movw	r30, r24
    1d2a:	c0 81       	ld	r28, Z
    1d2c:	d1 81       	ldd	r29, Z+1	; 0x01
    1d2e:	16 86       	std	Z+14, r1	; 0x0e
    1d30:	17 86       	std	Z+15, r1	; 0x0f
    1d32:	10 8a       	std	Z+16, r1	; 0x10
    1d34:	11 8a       	std	Z+17, r1	; 0x11
    1d36:	c6 80       	ldd	r12, Z+6	; 0x06
    1d38:	d7 80       	ldd	r13, Z+7	; 0x07
    1d3a:	e0 84       	ldd	r14, Z+8	; 0x08
    1d3c:	f1 84       	ldd	r15, Z+9	; 0x09
    1d3e:	c1 14       	cp	r12, r1
    1d40:	d1 04       	cpc	r13, r1
    1d42:	e1 04       	cpc	r14, r1
    1d44:	f1 04       	cpc	r15, r1
    1d46:	e9 f4       	brne	.+58     	; 0x1d82 <dir_sdi.constprop.11+0x6c>
    1d48:	88 81       	ld	r24, Y
    1d4a:	83 30       	cpi	r24, 0x03	; 3
    1d4c:	40 f0       	brcs	.+16     	; 0x1d5e <dir_sdi.constprop.11+0x48>
    1d4e:	8b a1       	ldd	r24, Y+35	; 0x23
    1d50:	9c a1       	ldd	r25, Y+36	; 0x24
    1d52:	ad a1       	ldd	r26, Y+37	; 0x25
    1d54:	be a1       	ldd	r27, Y+38	; 0x26
    1d56:	00 97       	sbiw	r24, 0x00	; 0
    1d58:	a1 05       	cpc	r26, r1
    1d5a:	b1 05       	cpc	r27, r1
    1d5c:	81 f4       	brne	.+32     	; 0x1d7e <dir_sdi.constprop.11+0x68>
    1d5e:	8f 81       	ldd	r24, Y+7	; 0x07
    1d60:	98 85       	ldd	r25, Y+8	; 0x08
    1d62:	89 2b       	or	r24, r25
    1d64:	11 f4       	brne	.+4      	; 0x1d6a <dir_sdi.constprop.11+0x54>
    1d66:	82 e0       	ldi	r24, 0x02	; 2
    1d68:	4a c0       	rjmp	.+148    	; 0x1dfe <dir_sdi.constprop.11+0xe8>
    1d6a:	8b a1       	ldd	r24, Y+35	; 0x23
    1d6c:	9c a1       	ldd	r25, Y+36	; 0x24
    1d6e:	ad a1       	ldd	r26, Y+37	; 0x25
    1d70:	be a1       	ldd	r27, Y+38	; 0x26
    1d72:	f8 01       	movw	r30, r16
    1d74:	86 8b       	std	Z+22, r24	; 0x16
    1d76:	97 8b       	std	Z+23, r25	; 0x17
    1d78:	a0 8f       	std	Z+24, r26	; 0x18
    1d7a:	b1 8f       	std	Z+25, r27	; 0x19
    1d7c:	2c c0       	rjmp	.+88     	; 0x1dd6 <dir_sdi.constprop.11+0xc0>
    1d7e:	6c 01       	movw	r12, r24
    1d80:	7d 01       	movw	r14, r26
    1d82:	89 85       	ldd	r24, Y+9	; 0x09
    1d84:	9a 85       	ldd	r25, Y+10	; 0x0a
    1d86:	89 2b       	or	r24, r25
    1d88:	e9 f4       	brne	.+58     	; 0x1dc4 <dir_sdi.constprop.11+0xae>
    1d8a:	b7 01       	movw	r22, r14
    1d8c:	a6 01       	movw	r20, r12
    1d8e:	f8 01       	movw	r30, r16
    1d90:	80 81       	ld	r24, Z
    1d92:	91 81       	ldd	r25, Z+1	; 0x01
    1d94:	88 dd       	rcall	.-1264   	; 0x18a6 <get_fat.isra.8>
    1d96:	6b 01       	movw	r12, r22
    1d98:	7c 01       	movw	r14, r24
    1d9a:	6f 3f       	cpi	r22, 0xFF	; 255
    1d9c:	7f 4f       	sbci	r23, 0xFF	; 255
    1d9e:	8f 4f       	sbci	r24, 0xFF	; 255
    1da0:	9f 4f       	sbci	r25, 0xFF	; 255
    1da2:	61 f1       	breq	.+88     	; 0x1dfc <dir_sdi.constprop.11+0xe6>
    1da4:	82 e0       	ldi	r24, 0x02	; 2
    1da6:	c8 16       	cp	r12, r24
    1da8:	d1 04       	cpc	r13, r1
    1daa:	e1 04       	cpc	r14, r1
    1dac:	f1 04       	cpc	r15, r1
    1dae:	d8 f2       	brcs	.-74     	; 0x1d66 <dir_sdi.constprop.11+0x50>
    1db0:	8b 89       	ldd	r24, Y+19	; 0x13
    1db2:	9c 89       	ldd	r25, Y+20	; 0x14
    1db4:	ad 89       	ldd	r26, Y+21	; 0x15
    1db6:	be 89       	ldd	r27, Y+22	; 0x16
    1db8:	c8 16       	cp	r12, r24
    1dba:	d9 06       	cpc	r13, r25
    1dbc:	ea 06       	cpc	r14, r26
    1dbe:	fb 06       	cpc	r15, r27
    1dc0:	20 f3       	brcs	.-56     	; 0x1d8a <dir_sdi.constprop.11+0x74>
    1dc2:	d1 cf       	rjmp	.-94     	; 0x1d66 <dir_sdi.constprop.11+0x50>
    1dc4:	b7 01       	movw	r22, r14
    1dc6:	a6 01       	movw	r20, r12
    1dc8:	ce 01       	movw	r24, r28
    1dca:	3e d8       	rcall	.-3972   	; 0xe48 <clust2sect>
    1dcc:	f8 01       	movw	r30, r16
    1dce:	66 8b       	std	Z+22, r22	; 0x16
    1dd0:	77 8b       	std	Z+23, r23	; 0x17
    1dd2:	80 8f       	std	Z+24, r24	; 0x18
    1dd4:	91 8f       	std	Z+25, r25	; 0x19
    1dd6:	f8 01       	movw	r30, r16
    1dd8:	c2 8a       	std	Z+18, r12	; 0x12
    1dda:	d3 8a       	std	Z+19, r13	; 0x13
    1ddc:	e4 8a       	std	Z+20, r14	; 0x14
    1dde:	f5 8a       	std	Z+21, r15	; 0x15
    1de0:	86 89       	ldd	r24, Z+22	; 0x16
    1de2:	97 89       	ldd	r25, Z+23	; 0x17
    1de4:	a0 8d       	ldd	r26, Z+24	; 0x18
    1de6:	b1 8d       	ldd	r27, Z+25	; 0x19
    1de8:	89 2b       	or	r24, r25
    1dea:	8a 2b       	or	r24, r26
    1dec:	8b 2b       	or	r24, r27
    1dee:	09 f4       	brne	.+2      	; 0x1df2 <dir_sdi.constprop.11+0xdc>
    1df0:	ba cf       	rjmp	.-140    	; 0x1d66 <dir_sdi.constprop.11+0x50>
    1df2:	af 96       	adiw	r28, 0x2f	; 47
    1df4:	d3 8f       	std	Z+27, r29	; 0x1b
    1df6:	c2 8f       	std	Z+26, r28	; 0x1a
    1df8:	80 e0       	ldi	r24, 0x00	; 0
    1dfa:	01 c0       	rjmp	.+2      	; 0x1dfe <dir_sdi.constprop.11+0xe8>
    1dfc:	81 e0       	ldi	r24, 0x01	; 1
    1dfe:	df 91       	pop	r29
    1e00:	cf 91       	pop	r28
    1e02:	1f 91       	pop	r17
    1e04:	0f 91       	pop	r16
    1e06:	ff 90       	pop	r15
    1e08:	ef 90       	pop	r14
    1e0a:	df 90       	pop	r13
    1e0c:	cf 90       	pop	r12
    1e0e:	08 95       	ret

00001e10 <dir_next>:
    1e10:	4f 92       	push	r4
    1e12:	5f 92       	push	r5
    1e14:	6f 92       	push	r6
    1e16:	7f 92       	push	r7
    1e18:	9f 92       	push	r9
    1e1a:	af 92       	push	r10
    1e1c:	bf 92       	push	r11
    1e1e:	cf 92       	push	r12
    1e20:	df 92       	push	r13
    1e22:	ef 92       	push	r14
    1e24:	ff 92       	push	r15
    1e26:	0f 93       	push	r16
    1e28:	1f 93       	push	r17
    1e2a:	cf 93       	push	r28
    1e2c:	df 93       	push	r29
    1e2e:	fc 01       	movw	r30, r24
    1e30:	5b 01       	movw	r10, r22
    1e32:	c0 81       	ld	r28, Z
    1e34:	d1 81       	ldd	r29, Z+1	; 0x01
    1e36:	c6 84       	ldd	r12, Z+14	; 0x0e
    1e38:	d7 84       	ldd	r13, Z+15	; 0x0f
    1e3a:	e0 88       	ldd	r14, Z+16	; 0x10
    1e3c:	f1 88       	ldd	r15, Z+17	; 0x11
    1e3e:	46 89       	ldd	r20, Z+22	; 0x16
    1e40:	57 89       	ldd	r21, Z+23	; 0x17
    1e42:	60 8d       	ldd	r22, Z+24	; 0x18
    1e44:	71 8d       	ldd	r23, Z+25	; 0x19
    1e46:	41 15       	cp	r20, r1
    1e48:	51 05       	cpc	r21, r1
    1e4a:	61 05       	cpc	r22, r1
    1e4c:	71 05       	cpc	r23, r1
    1e4e:	09 f4       	brne	.+2      	; 0x1e52 <dir_next+0x42>
    1e50:	f1 c0       	rjmp	.+482    	; 0x2034 <dir_next+0x224>
    1e52:	80 e2       	ldi	r24, 0x20	; 32
    1e54:	c8 0e       	add	r12, r24
    1e56:	d1 1c       	adc	r13, r1
    1e58:	e1 1c       	adc	r14, r1
    1e5a:	f1 1c       	adc	r15, r1
    1e5c:	c1 14       	cp	r12, r1
    1e5e:	d1 04       	cpc	r13, r1
    1e60:	80 e2       	ldi	r24, 0x20	; 32
    1e62:	e8 06       	cpc	r14, r24
    1e64:	f1 04       	cpc	r15, r1
    1e66:	08 f0       	brcs	.+2      	; 0x1e6a <dir_next+0x5a>
    1e68:	e5 c0       	rjmp	.+458    	; 0x2034 <dir_next+0x224>
    1e6a:	8f 01       	movw	r16, r30
    1e6c:	d7 01       	movw	r26, r14
    1e6e:	c6 01       	movw	r24, r12
    1e70:	91 70       	andi	r25, 0x01	; 1
    1e72:	aa 27       	eor	r26, r26
    1e74:	bb 27       	eor	r27, r27
    1e76:	89 2b       	or	r24, r25
    1e78:	8a 2b       	or	r24, r26
    1e7a:	8b 2b       	or	r24, r27
    1e7c:	09 f0       	breq	.+2      	; 0x1e80 <dir_next+0x70>
    1e7e:	c9 c0       	rjmp	.+402    	; 0x2012 <dir_next+0x202>
    1e80:	4f 5f       	subi	r20, 0xFF	; 255
    1e82:	5f 4f       	sbci	r21, 0xFF	; 255
    1e84:	6f 4f       	sbci	r22, 0xFF	; 255
    1e86:	7f 4f       	sbci	r23, 0xFF	; 255
    1e88:	46 8b       	std	Z+22, r20	; 0x16
    1e8a:	57 8b       	std	Z+23, r21	; 0x17
    1e8c:	60 8f       	std	Z+24, r22	; 0x18
    1e8e:	71 8f       	std	Z+25, r23	; 0x19
    1e90:	42 89       	ldd	r20, Z+18	; 0x12
    1e92:	53 89       	ldd	r21, Z+19	; 0x13
    1e94:	64 89       	ldd	r22, Z+20	; 0x14
    1e96:	75 89       	ldd	r23, Z+21	; 0x15
    1e98:	41 15       	cp	r20, r1
    1e9a:	51 05       	cpc	r21, r1
    1e9c:	61 05       	cpc	r22, r1
    1e9e:	71 05       	cpc	r23, r1
    1ea0:	c9 f4       	brne	.+50     	; 0x1ed4 <dir_next+0xc4>
    1ea2:	8f 81       	ldd	r24, Y+7	; 0x07
    1ea4:	98 85       	ldd	r25, Y+8	; 0x08
    1ea6:	a0 e0       	ldi	r26, 0x00	; 0
    1ea8:	b0 e0       	ldi	r27, 0x00	; 0
    1eaa:	b7 01       	movw	r22, r14
    1eac:	a6 01       	movw	r20, r12
    1eae:	35 e0       	ldi	r19, 0x05	; 5
    1eb0:	76 95       	lsr	r23
    1eb2:	67 95       	ror	r22
    1eb4:	57 95       	ror	r21
    1eb6:	47 95       	ror	r20
    1eb8:	3a 95       	dec	r19
    1eba:	d1 f7       	brne	.-12     	; 0x1eb0 <dir_next+0xa0>
    1ebc:	48 17       	cp	r20, r24
    1ebe:	59 07       	cpc	r21, r25
    1ec0:	6a 07       	cpc	r22, r26
    1ec2:	7b 07       	cpc	r23, r27
    1ec4:	08 f4       	brcc	.+2      	; 0x1ec8 <dir_next+0xb8>
    1ec6:	a5 c0       	rjmp	.+330    	; 0x2012 <dir_next+0x202>
    1ec8:	f8 01       	movw	r30, r16
    1eca:	16 8a       	std	Z+22, r1	; 0x16
    1ecc:	17 8a       	std	Z+23, r1	; 0x17
    1ece:	10 8e       	std	Z+24, r1	; 0x18
    1ed0:	11 8e       	std	Z+25, r1	; 0x19
    1ed2:	b0 c0       	rjmp	.+352    	; 0x2034 <dir_next+0x224>
    1ed4:	89 85       	ldd	r24, Y+9	; 0x09
    1ed6:	9a 85       	ldd	r25, Y+10	; 0x0a
    1ed8:	01 97       	sbiw	r24, 0x01	; 1
    1eda:	a0 e0       	ldi	r26, 0x00	; 0
    1edc:	b0 e0       	ldi	r27, 0x00	; 0
    1ede:	26 01       	movw	r4, r12
    1ee0:	37 01       	movw	r6, r14
    1ee2:	29 e0       	ldi	r18, 0x09	; 9
    1ee4:	76 94       	lsr	r7
    1ee6:	67 94       	ror	r6
    1ee8:	57 94       	ror	r5
    1eea:	47 94       	ror	r4
    1eec:	2a 95       	dec	r18
    1eee:	d1 f7       	brne	.-12     	; 0x1ee4 <dir_next+0xd4>
    1ef0:	84 21       	and	r24, r4
    1ef2:	95 21       	and	r25, r5
    1ef4:	a6 21       	and	r26, r6
    1ef6:	b7 21       	and	r27, r7
    1ef8:	89 2b       	or	r24, r25
    1efa:	8a 2b       	or	r24, r26
    1efc:	8b 2b       	or	r24, r27
    1efe:	09 f0       	breq	.+2      	; 0x1f02 <dir_next+0xf2>
    1f00:	88 c0       	rjmp	.+272    	; 0x2012 <dir_next+0x202>
    1f02:	ce 01       	movw	r24, r28
    1f04:	d0 dc       	rcall	.-1632   	; 0x18a6 <get_fat.isra.8>
    1f06:	2b 01       	movw	r4, r22
    1f08:	3c 01       	movw	r6, r24
    1f0a:	62 30       	cpi	r22, 0x02	; 2
    1f0c:	71 05       	cpc	r23, r1
    1f0e:	81 05       	cpc	r24, r1
    1f10:	91 05       	cpc	r25, r1
    1f12:	10 f4       	brcc	.+4      	; 0x1f18 <dir_next+0x108>
    1f14:	82 e0       	ldi	r24, 0x02	; 2
    1f16:	91 c0       	rjmp	.+290    	; 0x203a <dir_next+0x22a>
    1f18:	8f ef       	ldi	r24, 0xFF	; 255
    1f1a:	48 16       	cp	r4, r24
    1f1c:	58 06       	cpc	r5, r24
    1f1e:	68 06       	cpc	r6, r24
    1f20:	78 06       	cpc	r7, r24
    1f22:	11 f4       	brne	.+4      	; 0x1f28 <dir_next+0x118>
    1f24:	81 e0       	ldi	r24, 0x01	; 1
    1f26:	89 c0       	rjmp	.+274    	; 0x203a <dir_next+0x22a>
    1f28:	8b 89       	ldd	r24, Y+19	; 0x13
    1f2a:	9c 89       	ldd	r25, Y+20	; 0x14
    1f2c:	ad 89       	ldd	r26, Y+21	; 0x15
    1f2e:	be 89       	ldd	r27, Y+22	; 0x16
    1f30:	48 16       	cp	r4, r24
    1f32:	59 06       	cpc	r5, r25
    1f34:	6a 06       	cpc	r6, r26
    1f36:	7b 06       	cpc	r7, r27
    1f38:	08 f4       	brcc	.+2      	; 0x1f3c <dir_next+0x12c>
    1f3a:	5c c0       	rjmp	.+184    	; 0x1ff4 <dir_next+0x1e4>
    1f3c:	ab 28       	or	r10, r11
    1f3e:	21 f2       	breq	.-120    	; 0x1ec8 <dir_next+0xb8>
    1f40:	f8 01       	movw	r30, r16
    1f42:	42 89       	ldd	r20, Z+18	; 0x12
    1f44:	53 89       	ldd	r21, Z+19	; 0x13
    1f46:	64 89       	ldd	r22, Z+20	; 0x14
    1f48:	75 89       	ldd	r23, Z+21	; 0x15
    1f4a:	c8 01       	movw	r24, r16
    1f4c:	71 dd       	rcall	.-1310   	; 0x1a30 <create_chain>
    1f4e:	2b 01       	movw	r4, r22
    1f50:	3c 01       	movw	r6, r24
    1f52:	61 15       	cp	r22, r1
    1f54:	71 05       	cpc	r23, r1
    1f56:	81 05       	cpc	r24, r1
    1f58:	91 05       	cpc	r25, r1
    1f5a:	09 f4       	brne	.+2      	; 0x1f5e <dir_next+0x14e>
    1f5c:	6d c0       	rjmp	.+218    	; 0x2038 <dir_next+0x228>
    1f5e:	61 30       	cpi	r22, 0x01	; 1
    1f60:	71 05       	cpc	r23, r1
    1f62:	81 05       	cpc	r24, r1
    1f64:	91 05       	cpc	r25, r1
    1f66:	b1 f2       	breq	.-84     	; 0x1f14 <dir_next+0x104>
    1f68:	8f ef       	ldi	r24, 0xFF	; 255
    1f6a:	48 16       	cp	r4, r24
    1f6c:	58 06       	cpc	r5, r24
    1f6e:	68 06       	cpc	r6, r24
    1f70:	78 06       	cpc	r7, r24
    1f72:	c1 f2       	breq	.-80     	; 0x1f24 <dir_next+0x114>
    1f74:	ce 01       	movw	r24, r28
    1f76:	69 d8       	rcall	.-3886   	; 0x104a <sync_window>
    1f78:	81 11       	cpse	r24, r1
    1f7a:	d4 cf       	rjmp	.-88     	; 0x1f24 <dir_next+0x114>
    1f7c:	fe 01       	movw	r30, r28
    1f7e:	bf 96       	adiw	r30, 0x2f	; 47
    1f80:	ce 01       	movw	r24, r28
    1f82:	81 5d       	subi	r24, 0xD1	; 209
    1f84:	9d 4f       	sbci	r25, 0xFD	; 253
    1f86:	11 92       	st	Z+, r1
    1f88:	e8 17       	cp	r30, r24
    1f8a:	f9 07       	cpc	r31, r25
    1f8c:	e1 f7       	brne	.-8      	; 0x1f86 <dir_next+0x176>
    1f8e:	b3 01       	movw	r22, r6
    1f90:	a2 01       	movw	r20, r4
    1f92:	ce 01       	movw	r24, r28
    1f94:	0e 94 24 07 	call	0xe48	; 0xe48 <clust2sect>
    1f98:	6b a7       	std	Y+43, r22	; 0x2b
    1f9a:	7c a7       	std	Y+44, r23	; 0x2c
    1f9c:	8d a7       	std	Y+45, r24	; 0x2d
    1f9e:	9e a7       	std	Y+46, r25	; 0x2e
    1fa0:	a1 2c       	mov	r10, r1
    1fa2:	b1 2c       	mov	r11, r1
    1fa4:	99 24       	eor	r9, r9
    1fa6:	93 94       	inc	r9
    1fa8:	89 85       	ldd	r24, Y+9	; 0x09
    1faa:	9a 85       	ldd	r25, Y+10	; 0x0a
    1fac:	a8 16       	cp	r10, r24
    1fae:	b9 06       	cpc	r11, r25
    1fb0:	a8 f4       	brcc	.+42     	; 0x1fdc <dir_next+0x1cc>
    1fb2:	9b 82       	std	Y+3, r9	; 0x03
    1fb4:	ce 01       	movw	r24, r28
    1fb6:	0e 94 ca 07 	call	0xf94	; 0xf94 <sync_window.part.4>
    1fba:	81 11       	cpse	r24, r1
    1fbc:	b3 cf       	rjmp	.-154    	; 0x1f24 <dir_next+0x114>
    1fbe:	ef ef       	ldi	r30, 0xFF	; 255
    1fc0:	ae 1a       	sub	r10, r30
    1fc2:	be 0a       	sbc	r11, r30
    1fc4:	8b a5       	ldd	r24, Y+43	; 0x2b
    1fc6:	9c a5       	ldd	r25, Y+44	; 0x2c
    1fc8:	ad a5       	ldd	r26, Y+45	; 0x2d
    1fca:	be a5       	ldd	r27, Y+46	; 0x2e
    1fcc:	01 96       	adiw	r24, 0x01	; 1
    1fce:	a1 1d       	adc	r26, r1
    1fd0:	b1 1d       	adc	r27, r1
    1fd2:	8b a7       	std	Y+43, r24	; 0x2b
    1fd4:	9c a7       	std	Y+44, r25	; 0x2c
    1fd6:	ad a7       	std	Y+45, r26	; 0x2d
    1fd8:	be a7       	std	Y+46, r27	; 0x2e
    1fda:	e6 cf       	rjmp	.-52     	; 0x1fa8 <dir_next+0x198>
    1fdc:	8b a5       	ldd	r24, Y+43	; 0x2b
    1fde:	9c a5       	ldd	r25, Y+44	; 0x2c
    1fe0:	ad a5       	ldd	r26, Y+45	; 0x2d
    1fe2:	be a5       	ldd	r27, Y+46	; 0x2e
    1fe4:	8a 19       	sub	r24, r10
    1fe6:	9b 09       	sbc	r25, r11
    1fe8:	a1 09       	sbc	r26, r1
    1fea:	b1 09       	sbc	r27, r1
    1fec:	8b a7       	std	Y+43, r24	; 0x2b
    1fee:	9c a7       	std	Y+44, r25	; 0x2c
    1ff0:	ad a7       	std	Y+45, r26	; 0x2d
    1ff2:	be a7       	std	Y+46, r27	; 0x2e
    1ff4:	f8 01       	movw	r30, r16
    1ff6:	42 8a       	std	Z+18, r4	; 0x12
    1ff8:	53 8a       	std	Z+19, r5	; 0x13
    1ffa:	64 8a       	std	Z+20, r6	; 0x14
    1ffc:	75 8a       	std	Z+21, r7	; 0x15
    1ffe:	b3 01       	movw	r22, r6
    2000:	a2 01       	movw	r20, r4
    2002:	ce 01       	movw	r24, r28
    2004:	0e 94 24 07 	call	0xe48	; 0xe48 <clust2sect>
    2008:	f8 01       	movw	r30, r16
    200a:	66 8b       	std	Z+22, r22	; 0x16
    200c:	77 8b       	std	Z+23, r23	; 0x17
    200e:	80 8f       	std	Z+24, r24	; 0x18
    2010:	91 8f       	std	Z+25, r25	; 0x19
    2012:	f8 01       	movw	r30, r16
    2014:	c6 86       	std	Z+14, r12	; 0x0e
    2016:	d7 86       	std	Z+15, r13	; 0x0f
    2018:	e0 8a       	std	Z+16, r14	; 0x10
    201a:	f1 8a       	std	Z+17, r15	; 0x11
    201c:	f1 e0       	ldi	r31, 0x01	; 1
    201e:	df 22       	and	r13, r31
    2020:	8f e2       	ldi	r24, 0x2F	; 47
    2022:	c8 0e       	add	r12, r24
    2024:	d1 1c       	adc	r13, r1
    2026:	cc 0d       	add	r28, r12
    2028:	dd 1d       	adc	r29, r13
    202a:	f8 01       	movw	r30, r16
    202c:	d3 8f       	std	Z+27, r29	; 0x1b
    202e:	c2 8f       	std	Z+26, r28	; 0x1a
    2030:	80 e0       	ldi	r24, 0x00	; 0
    2032:	03 c0       	rjmp	.+6      	; 0x203a <dir_next+0x22a>
    2034:	84 e0       	ldi	r24, 0x04	; 4
    2036:	01 c0       	rjmp	.+2      	; 0x203a <dir_next+0x22a>
    2038:	87 e0       	ldi	r24, 0x07	; 7
    203a:	df 91       	pop	r29
    203c:	cf 91       	pop	r28
    203e:	1f 91       	pop	r17
    2040:	0f 91       	pop	r16
    2042:	ff 90       	pop	r15
    2044:	ef 90       	pop	r14
    2046:	df 90       	pop	r13
    2048:	cf 90       	pop	r12
    204a:	bf 90       	pop	r11
    204c:	af 90       	pop	r10
    204e:	9f 90       	pop	r9
    2050:	7f 90       	pop	r7
    2052:	6f 90       	pop	r6
    2054:	5f 90       	pop	r5
    2056:	4f 90       	pop	r4
    2058:	08 95       	ret

0000205a <follow_path>:
    205a:	6f 92       	push	r6
    205c:	7f 92       	push	r7
    205e:	8f 92       	push	r8
    2060:	9f 92       	push	r9
    2062:	af 92       	push	r10
    2064:	bf 92       	push	r11
    2066:	cf 92       	push	r12
    2068:	df 92       	push	r13
    206a:	ef 92       	push	r14
    206c:	ff 92       	push	r15
    206e:	0f 93       	push	r16
    2070:	1f 93       	push	r17
    2072:	cf 93       	push	r28
    2074:	df 93       	push	r29
    2076:	fc 01       	movw	r30, r24
    2078:	c0 80       	ld	r12, Z
    207a:	d1 80       	ldd	r13, Z+1	; 0x01
    207c:	9b 01       	movw	r18, r22
    207e:	89 01       	movw	r16, r18
    2080:	f9 01       	movw	r30, r18
    2082:	40 81       	ld	r20, Z
    2084:	2f 5f       	subi	r18, 0xFF	; 255
    2086:	3f 4f       	sbci	r19, 0xFF	; 255
    2088:	4f 32       	cpi	r20, 0x2F	; 47
    208a:	c9 f3       	breq	.-14     	; 0x207e <follow_path+0x24>
    208c:	4c 35       	cpi	r20, 0x5C	; 92
    208e:	b9 f3       	breq	.-18     	; 0x207e <follow_path+0x24>
    2090:	fc 01       	movw	r30, r24
    2092:	16 82       	std	Z+6, r1	; 0x06
    2094:	17 82       	std	Z+7, r1	; 0x07
    2096:	10 86       	std	Z+8, r1	; 0x08
    2098:	11 86       	std	Z+9, r1	; 0x09
    209a:	f8 01       	movw	r30, r16
    209c:	20 81       	ld	r18, Z
    209e:	20 32       	cpi	r18, 0x20	; 32
    20a0:	70 f0       	brcs	.+28     	; 0x20be <follow_path+0x64>
    20a2:	ec 01       	movw	r28, r24
    20a4:	7c 01       	movw	r14, r24
    20a6:	fc e1       	ldi	r31, 0x1C	; 28
    20a8:	ef 0e       	add	r14, r31
    20aa:	f1 1c       	adc	r15, r1
    20ac:	5c 01       	movw	r10, r24
    20ae:	87 e2       	ldi	r24, 0x27	; 39
    20b0:	a8 0e       	add	r10, r24
    20b2:	b1 1c       	adc	r11, r1
    20b4:	80 e2       	ldi	r24, 0x20	; 32
    20b6:	68 2e       	mov	r6, r24
    20b8:	95 e0       	ldi	r25, 0x05	; 5
    20ba:	79 2e       	mov	r7, r25
    20bc:	51 c0       	rjmp	.+162    	; 0x2160 <follow_path+0x106>
    20be:	20 e8       	ldi	r18, 0x80	; 128
    20c0:	fc 01       	movw	r30, r24
    20c2:	27 a3       	std	Z+39, r18	; 0x27
    20c4:	df 91       	pop	r29
    20c6:	cf 91       	pop	r28
    20c8:	1f 91       	pop	r17
    20ca:	0f 91       	pop	r16
    20cc:	ff 90       	pop	r15
    20ce:	ef 90       	pop	r14
    20d0:	df 90       	pop	r13
    20d2:	cf 90       	pop	r12
    20d4:	bf 90       	pop	r11
    20d6:	af 90       	pop	r10
    20d8:	9f 90       	pop	r9
    20da:	8f 90       	pop	r8
    20dc:	7f 90       	pop	r7
    20de:	6f 90       	pop	r6
    20e0:	1a ce       	rjmp	.-972    	; 0x1d16 <dir_sdi.constprop.11>
    20e2:	61 92       	st	Z+, r6
    20e4:	ea 15       	cp	r30, r10
    20e6:	fb 05       	cpc	r31, r11
    20e8:	e1 f7       	brne	.-8      	; 0x20e2 <follow_path+0x88>
    20ea:	80 e0       	ldi	r24, 0x00	; 0
    20ec:	90 e0       	ldi	r25, 0x00	; 0
    20ee:	60 e0       	ldi	r22, 0x00	; 0
    20f0:	70 e0       	ldi	r23, 0x00	; 0
    20f2:	48 e0       	ldi	r20, 0x08	; 8
    20f4:	50 e0       	ldi	r21, 0x00	; 0
    20f6:	9b 01       	movw	r18, r22
    20f8:	2f 5f       	subi	r18, 0xFF	; 255
    20fa:	3f 4f       	sbci	r19, 0xFF	; 255
    20fc:	f8 01       	movw	r30, r16
    20fe:	e6 0f       	add	r30, r22
    2100:	f7 1f       	adc	r31, r23
    2102:	b0 81       	ld	r27, Z
    2104:	b1 32       	cpi	r27, 0x21	; 33
    2106:	70 f5       	brcc	.+92     	; 0x2164 <follow_path+0x10a>
    2108:	02 0f       	add	r16, r18
    210a:	13 1f       	adc	r17, r19
    210c:	89 2b       	or	r24, r25
    210e:	09 f4       	brne	.+2      	; 0x2112 <follow_path+0xb8>
    2110:	b1 c0       	rjmp	.+354    	; 0x2274 <follow_path+0x21a>
    2112:	8c 8d       	ldd	r24, Y+28	; 0x1c
    2114:	85 3e       	cpi	r24, 0xE5	; 229
    2116:	09 f4       	brne	.+2      	; 0x211a <follow_path+0xc0>
    2118:	7c 8e       	std	Y+28, r7	; 0x1c
    211a:	b1 32       	cpi	r27, 0x21	; 33
    211c:	08 f4       	brcc	.+2      	; 0x2120 <follow_path+0xc6>
    211e:	71 c0       	rjmp	.+226    	; 0x2202 <follow_path+0x1a8>
    2120:	80 e0       	ldi	r24, 0x00	; 0
    2122:	8f a3       	std	Y+39, r24	; 0x27
    2124:	88 80       	ld	r8, Y
    2126:	99 80       	ldd	r9, Y+1	; 0x01
    2128:	ce 01       	movw	r24, r28
    212a:	f5 dd       	rcall	.-1046   	; 0x1d16 <dir_sdi.constprop.11>
    212c:	88 23       	and	r24, r24
    212e:	09 f4       	brne	.+2      	; 0x2132 <follow_path+0xd8>
    2130:	6a c0       	rjmp	.+212    	; 0x2206 <follow_path+0x1ac>
    2132:	9f a1       	ldd	r25, Y+39	; 0x27
    2134:	81 11       	cpse	r24, r1
    2136:	95 c0       	rjmp	.+298    	; 0x2262 <follow_path+0x208>
    2138:	92 fd       	sbrc	r25, 2
    213a:	98 c0       	rjmp	.+304    	; 0x226c <follow_path+0x212>
    213c:	8c 81       	ldd	r24, Y+4	; 0x04
    213e:	84 ff       	sbrs	r24, 4
    2140:	97 c0       	rjmp	.+302    	; 0x2270 <follow_path+0x216>
    2142:	6e 85       	ldd	r22, Y+14	; 0x0e
    2144:	7f 85       	ldd	r23, Y+15	; 0x0f
    2146:	71 70       	andi	r23, 0x01	; 1
    2148:	61 5d       	subi	r22, 0xD1	; 209
    214a:	7f 4f       	sbci	r23, 0xFF	; 255
    214c:	6c 0d       	add	r22, r12
    214e:	7d 1d       	adc	r23, r13
    2150:	f6 01       	movw	r30, r12
    2152:	80 81       	ld	r24, Z
    2154:	0e 94 a0 07 	call	0xf40	; 0xf40 <ld_clust.isra.1>
    2158:	6e 83       	std	Y+6, r22	; 0x06
    215a:	7f 83       	std	Y+7, r23	; 0x07
    215c:	88 87       	std	Y+8, r24	; 0x08
    215e:	99 87       	std	Y+9, r25	; 0x09
    2160:	f7 01       	movw	r30, r14
    2162:	bf cf       	rjmp	.-130    	; 0x20e2 <follow_path+0x88>
    2164:	bf 32       	cpi	r27, 0x2F	; 47
    2166:	11 f0       	breq	.+4      	; 0x216c <follow_path+0x112>
    2168:	bc 35       	cpi	r27, 0x5C	; 92
    216a:	61 f4       	brne	.+24     	; 0x2184 <follow_path+0x12a>
    216c:	f8 01       	movw	r30, r16
    216e:	e2 0f       	add	r30, r18
    2170:	f3 1f       	adc	r31, r19
    2172:	9f 01       	movw	r18, r30
    2174:	20 1b       	sub	r18, r16
    2176:	31 0b       	sbc	r19, r17
    2178:	41 91       	ld	r20, Z+
    217a:	4f 32       	cpi	r20, 0x2F	; 47
    217c:	d1 f3       	breq	.-12     	; 0x2172 <follow_path+0x118>
    217e:	4c 35       	cpi	r20, 0x5C	; 92
    2180:	c1 f3       	breq	.-16     	; 0x2172 <follow_path+0x118>
    2182:	c2 cf       	rjmp	.-124    	; 0x2108 <follow_path+0xae>
    2184:	be 32       	cpi	r27, 0x2E	; 46
    2186:	09 f4       	brne	.+2      	; 0x218a <follow_path+0x130>
    2188:	77 c0       	rjmp	.+238    	; 0x2278 <follow_path+0x21e>
    218a:	84 17       	cp	r24, r20
    218c:	95 07       	cpc	r25, r21
    218e:	08 f0       	brcs	.+2      	; 0x2192 <follow_path+0x138>
    2190:	71 c0       	rjmp	.+226    	; 0x2274 <follow_path+0x21a>
    2192:	ef e7       	ldi	r30, 0x7F	; 127
    2194:	eb 0f       	add	r30, r27
    2196:	ef 31       	cpi	r30, 0x1F	; 31
    2198:	20 f0       	brcs	.+8      	; 0x21a2 <follow_path+0x148>
    219a:	e0 e2       	ldi	r30, 0x20	; 32
    219c:	eb 0f       	add	r30, r27
    219e:	ed 31       	cpi	r30, 0x1D	; 29
    21a0:	18 f5       	brcc	.+70     	; 0x21e8 <follow_path+0x18e>
    21a2:	6e 5f       	subi	r22, 0xFE	; 254
    21a4:	7f 4f       	sbci	r23, 0xFF	; 255
    21a6:	f8 01       	movw	r30, r16
    21a8:	e2 0f       	add	r30, r18
    21aa:	f3 1f       	adc	r31, r19
    21ac:	a0 81       	ld	r26, Z
    21ae:	20 ec       	ldi	r18, 0xC0	; 192
    21b0:	2a 0f       	add	r18, r26
    21b2:	2f 33       	cpi	r18, 0x3F	; 63
    21b4:	28 f0       	brcs	.+10     	; 0x21c0 <follow_path+0x166>
    21b6:	20 e8       	ldi	r18, 0x80	; 128
    21b8:	2a 0f       	add	r18, r26
    21ba:	2d 37       	cpi	r18, 0x7D	; 125
    21bc:	08 f0       	brcs	.+2      	; 0x21c0 <follow_path+0x166>
    21be:	5a c0       	rjmp	.+180    	; 0x2274 <follow_path+0x21a>
    21c0:	9a 01       	movw	r18, r20
    21c2:	21 50       	subi	r18, 0x01	; 1
    21c4:	31 09       	sbc	r19, r1
    21c6:	82 17       	cp	r24, r18
    21c8:	93 07       	cpc	r25, r19
    21ca:	08 f0       	brcs	.+2      	; 0x21ce <follow_path+0x174>
    21cc:	53 c0       	rjmp	.+166    	; 0x2274 <follow_path+0x21a>
    21ce:	f7 01       	movw	r30, r14
    21d0:	e8 0f       	add	r30, r24
    21d2:	f9 1f       	adc	r31, r25
    21d4:	b0 83       	st	Z, r27
    21d6:	fc 01       	movw	r30, r24
    21d8:	31 96       	adiw	r30, 0x01	; 1
    21da:	ee 0d       	add	r30, r14
    21dc:	ff 1d       	adc	r31, r15
    21de:	02 96       	adiw	r24, 0x02	; 2
    21e0:	a0 83       	st	Z, r26
    21e2:	9b 01       	movw	r18, r22
    21e4:	b9 01       	movw	r22, r18
    21e6:	87 cf       	rjmp	.-242    	; 0x20f6 <follow_path+0x9c>
    21e8:	8b 2e       	mov	r8, r27
    21ea:	91 2c       	mov	r9, r1
    21ec:	e1 e0       	ldi	r30, 0x01	; 1
    21ee:	f1 e0       	ldi	r31, 0x01	; 1
    21f0:	61 91       	ld	r22, Z+
    21f2:	66 23       	and	r22, r22
    21f4:	09 f4       	brne	.+2      	; 0x21f8 <follow_path+0x19e>
    21f6:	48 c0       	rjmp	.+144    	; 0x2288 <follow_path+0x22e>
    21f8:	70 e0       	ldi	r23, 0x00	; 0
    21fa:	68 15       	cp	r22, r8
    21fc:	79 05       	cpc	r23, r9
    21fe:	c1 f7       	brne	.-16     	; 0x21f0 <follow_path+0x196>
    2200:	39 c0       	rjmp	.+114    	; 0x2274 <follow_path+0x21a>
    2202:	84 e0       	ldi	r24, 0x04	; 4
    2204:	8e cf       	rjmp	.-228    	; 0x2122 <follow_path+0xc8>
    2206:	4e 89       	ldd	r20, Y+22	; 0x16
    2208:	5f 89       	ldd	r21, Y+23	; 0x17
    220a:	68 8d       	ldd	r22, Y+24	; 0x18
    220c:	79 8d       	ldd	r23, Y+25	; 0x19
    220e:	c4 01       	movw	r24, r8
    2210:	0e 94 2b 08 	call	0x1056	; 0x1056 <move_window>
    2214:	81 11       	cpse	r24, r1
    2216:	8d cf       	rjmp	.-230    	; 0x2132 <follow_path+0xd8>
    2218:	ea 8d       	ldd	r30, Y+26	; 0x1a
    221a:	fb 8d       	ldd	r31, Y+27	; 0x1b
    221c:	80 81       	ld	r24, Z
    221e:	88 23       	and	r24, r24
    2220:	e1 f0       	breq	.+56     	; 0x225a <follow_path+0x200>
    2222:	83 85       	ldd	r24, Z+11	; 0x0b
    2224:	8f 73       	andi	r24, 0x3F	; 63
    2226:	8c 83       	std	Y+4, r24	; 0x04
    2228:	83 85       	ldd	r24, Z+11	; 0x0b
    222a:	83 fd       	sbrc	r24, 3
    222c:	11 c0       	rjmp	.+34     	; 0x2250 <follow_path+0x1f6>
    222e:	9f 01       	movw	r18, r30
    2230:	25 5f       	subi	r18, 0xF5	; 245
    2232:	3f 4f       	sbci	r19, 0xFF	; 255
    2234:	d7 01       	movw	r26, r14
    2236:	81 91       	ld	r24, Z+
    2238:	4d 91       	ld	r20, X+
    223a:	90 e0       	ldi	r25, 0x00	; 0
    223c:	84 1b       	sub	r24, r20
    223e:	91 09       	sbc	r25, r1
    2240:	e2 17       	cp	r30, r18
    2242:	f3 07       	cpc	r31, r19
    2244:	19 f4       	brne	.+6      	; 0x224c <follow_path+0x1f2>
    2246:	89 2b       	or	r24, r25
    2248:	19 f4       	brne	.+6      	; 0x2250 <follow_path+0x1f6>
    224a:	09 c0       	rjmp	.+18     	; 0x225e <follow_path+0x204>
    224c:	89 2b       	or	r24, r25
    224e:	99 f3       	breq	.-26     	; 0x2236 <follow_path+0x1dc>
    2250:	60 e0       	ldi	r22, 0x00	; 0
    2252:	70 e0       	ldi	r23, 0x00	; 0
    2254:	ce 01       	movw	r24, r28
    2256:	dc dd       	rcall	.-1096   	; 0x1e10 <dir_next>
    2258:	69 cf       	rjmp	.-302    	; 0x212c <follow_path+0xd2>
    225a:	84 e0       	ldi	r24, 0x04	; 4
    225c:	6a cf       	rjmp	.-300    	; 0x2132 <follow_path+0xd8>
    225e:	80 e0       	ldi	r24, 0x00	; 0
    2260:	68 cf       	rjmp	.-304    	; 0x2132 <follow_path+0xd8>
    2262:	84 30       	cpi	r24, 0x04	; 4
    2264:	e1 f4       	brne	.+56     	; 0x229e <follow_path+0x244>
    2266:	92 ff       	sbrs	r25, 2
    2268:	03 c0       	rjmp	.+6      	; 0x2270 <follow_path+0x216>
    226a:	19 c0       	rjmp	.+50     	; 0x229e <follow_path+0x244>
    226c:	80 e0       	ldi	r24, 0x00	; 0
    226e:	17 c0       	rjmp	.+46     	; 0x229e <follow_path+0x244>
    2270:	85 e0       	ldi	r24, 0x05	; 5
    2272:	15 c0       	rjmp	.+42     	; 0x229e <follow_path+0x244>
    2274:	86 e0       	ldi	r24, 0x06	; 6
    2276:	13 c0       	rjmp	.+38     	; 0x229e <follow_path+0x244>
    2278:	4b 30       	cpi	r20, 0x0B	; 11
    227a:	51 05       	cpc	r21, r1
    227c:	d9 f3       	breq	.-10     	; 0x2274 <follow_path+0x21a>
    227e:	88 e0       	ldi	r24, 0x08	; 8
    2280:	90 e0       	ldi	r25, 0x00	; 0
    2282:	4b e0       	ldi	r20, 0x0B	; 11
    2284:	50 e0       	ldi	r21, 0x00	; 0
    2286:	ae cf       	rjmp	.-164    	; 0x21e4 <follow_path+0x18a>
    2288:	6f e9       	ldi	r22, 0x9F	; 159
    228a:	6b 0f       	add	r22, r27
    228c:	6a 31       	cpi	r22, 0x1A	; 26
    228e:	08 f4       	brcc	.+2      	; 0x2292 <follow_path+0x238>
    2290:	b0 52       	subi	r27, 0x20	; 32
    2292:	f7 01       	movw	r30, r14
    2294:	e8 0f       	add	r30, r24
    2296:	f9 1f       	adc	r31, r25
    2298:	b0 83       	st	Z, r27
    229a:	01 96       	adiw	r24, 0x01	; 1
    229c:	a3 cf       	rjmp	.-186    	; 0x21e4 <follow_path+0x18a>
    229e:	df 91       	pop	r29
    22a0:	cf 91       	pop	r28
    22a2:	1f 91       	pop	r17
    22a4:	0f 91       	pop	r16
    22a6:	ff 90       	pop	r15
    22a8:	ef 90       	pop	r14
    22aa:	df 90       	pop	r13
    22ac:	cf 90       	pop	r12
    22ae:	bf 90       	pop	r11
    22b0:	af 90       	pop	r10
    22b2:	9f 90       	pop	r9
    22b4:	8f 90       	pop	r8
    22b6:	7f 90       	pop	r7
    22b8:	6f 90       	pop	r6
    22ba:	08 95       	ret

000022bc <dir_register>:
    22bc:	ef 92       	push	r14
    22be:	ff 92       	push	r15
    22c0:	0f 93       	push	r16
    22c2:	1f 93       	push	r17
    22c4:	cf 93       	push	r28
    22c6:	8c 01       	movw	r16, r24
    22c8:	dc 01       	movw	r26, r24
    22ca:	ed 90       	ld	r14, X+
    22cc:	fc 90       	ld	r15, X
    22ce:	23 dd       	rcall	.-1466   	; 0x1d16 <dir_sdi.constprop.11>
    22d0:	c8 2f       	mov	r28, r24
    22d2:	81 11       	cpse	r24, r1
    22d4:	1a c0       	rjmp	.+52     	; 0x230a <dir_register+0x4e>
    22d6:	f8 01       	movw	r30, r16
    22d8:	46 89       	ldd	r20, Z+22	; 0x16
    22da:	57 89       	ldd	r21, Z+23	; 0x17
    22dc:	60 8d       	ldd	r22, Z+24	; 0x18
    22de:	71 8d       	ldd	r23, Z+25	; 0x19
    22e0:	c7 01       	movw	r24, r14
    22e2:	0e 94 2b 08 	call	0x1056	; 0x1056 <move_window>
    22e6:	c8 2f       	mov	r28, r24
    22e8:	81 11       	cpse	r24, r1
    22ea:	0f c0       	rjmp	.+30     	; 0x230a <dir_register+0x4e>
    22ec:	d8 01       	movw	r26, r16
    22ee:	5a 96       	adiw	r26, 0x1a	; 26
    22f0:	ed 91       	ld	r30, X+
    22f2:	fc 91       	ld	r31, X
    22f4:	5b 97       	sbiw	r26, 0x1b	; 27
    22f6:	80 81       	ld	r24, Z
    22f8:	85 3e       	cpi	r24, 0xE5	; 229
    22fa:	59 f0       	breq	.+22     	; 0x2312 <dir_register+0x56>
    22fc:	88 23       	and	r24, r24
    22fe:	49 f0       	breq	.+18     	; 0x2312 <dir_register+0x56>
    2300:	61 e0       	ldi	r22, 0x01	; 1
    2302:	70 e0       	ldi	r23, 0x00	; 0
    2304:	c8 01       	movw	r24, r16
    2306:	84 dd       	rcall	.-1272   	; 0x1e10 <dir_next>
    2308:	e3 cf       	rjmp	.-58     	; 0x22d0 <dir_register+0x14>
    230a:	c4 30       	cpi	r28, 0x04	; 4
    230c:	31 f5       	brne	.+76     	; 0x235a <dir_register+0x9e>
    230e:	c7 e0       	ldi	r28, 0x07	; 7
    2310:	24 c0       	rjmp	.+72     	; 0x235a <dir_register+0x9e>
    2312:	f8 01       	movw	r30, r16
    2314:	46 89       	ldd	r20, Z+22	; 0x16
    2316:	57 89       	ldd	r21, Z+23	; 0x17
    2318:	60 8d       	ldd	r22, Z+24	; 0x18
    231a:	71 8d       	ldd	r23, Z+25	; 0x19
    231c:	c7 01       	movw	r24, r14
    231e:	0e 94 2b 08 	call	0x1056	; 0x1056 <move_window>
    2322:	c8 2f       	mov	r28, r24
    2324:	81 11       	cpse	r24, r1
    2326:	19 c0       	rjmp	.+50     	; 0x235a <dir_register+0x9e>
    2328:	d8 01       	movw	r26, r16
    232a:	5a 96       	adiw	r26, 0x1a	; 26
    232c:	ed 91       	ld	r30, X+
    232e:	fc 91       	ld	r31, X
    2330:	5b 97       	sbiw	r26, 0x1b	; 27
    2332:	cf 01       	movw	r24, r30
    2334:	80 96       	adiw	r24, 0x20	; 32
    2336:	11 92       	st	Z+, r1
    2338:	e8 17       	cp	r30, r24
    233a:	f9 07       	cpc	r31, r25
    233c:	e1 f7       	brne	.-8      	; 0x2336 <dir_register+0x7a>
    233e:	b8 01       	movw	r22, r16
    2340:	64 5e       	subi	r22, 0xE4	; 228
    2342:	7f 4f       	sbci	r23, 0xFF	; 255
    2344:	4b e0       	ldi	r20, 0x0B	; 11
    2346:	50 e0       	ldi	r21, 0x00	; 0
    2348:	f8 01       	movw	r30, r16
    234a:	82 8d       	ldd	r24, Z+26	; 0x1a
    234c:	93 8d       	ldd	r25, Z+27	; 0x1b
    234e:	0e 94 95 07 	call	0xf2a	; 0xf2a <mem_cpy.part.0>
    2352:	81 e0       	ldi	r24, 0x01	; 1
    2354:	d7 01       	movw	r26, r14
    2356:	13 96       	adiw	r26, 0x03	; 3
    2358:	8c 93       	st	X, r24
    235a:	8c 2f       	mov	r24, r28
    235c:	cf 91       	pop	r28
    235e:	1f 91       	pop	r17
    2360:	0f 91       	pop	r16
    2362:	ff 90       	pop	r15
    2364:	ef 90       	pop	r14
    2366:	08 95       	ret

00002368 <sync_fs>:
    2368:	ef 92       	push	r14
    236a:	ff 92       	push	r15
    236c:	0f 93       	push	r16
    236e:	1f 93       	push	r17
    2370:	cf 93       	push	r28
    2372:	df 93       	push	r29
    2374:	ec 01       	movw	r28, r24
    2376:	0e 94 25 08 	call	0x104a	; 0x104a <sync_window>
    237a:	98 2f       	mov	r25, r24
    237c:	81 11       	cpse	r24, r1
    237e:	5d c0       	rjmp	.+186    	; 0x243a <sync_fs+0xd2>
    2380:	88 81       	ld	r24, Y
    2382:	83 30       	cpi	r24, 0x03	; 3
    2384:	09 f0       	breq	.+2      	; 0x2388 <sync_fs+0x20>
    2386:	4f c0       	rjmp	.+158    	; 0x2426 <sync_fs+0xbe>
    2388:	8c 81       	ldd	r24, Y+4	; 0x04
    238a:	81 30       	cpi	r24, 0x01	; 1
    238c:	09 f0       	breq	.+2      	; 0x2390 <sync_fs+0x28>
    238e:	4b c0       	rjmp	.+150    	; 0x2426 <sync_fs+0xbe>
    2390:	7e 01       	movw	r14, r28
    2392:	8f e2       	ldi	r24, 0x2F	; 47
    2394:	e8 0e       	add	r14, r24
    2396:	f1 1c       	adc	r15, r1
    2398:	f7 01       	movw	r30, r14
    239a:	ce 01       	movw	r24, r28
    239c:	81 5d       	subi	r24, 0xD1	; 209
    239e:	9d 4f       	sbci	r25, 0xFD	; 253
    23a0:	11 92       	st	Z+, r1
    23a2:	e8 17       	cp	r30, r24
    23a4:	f9 07       	cpc	r31, r25
    23a6:	e1 f7       	brne	.-8      	; 0x23a0 <sync_fs+0x38>
    23a8:	85 e5       	ldi	r24, 0x55	; 85
    23aa:	fe 01       	movw	r30, r28
    23ac:	e3 5d       	subi	r30, 0xD3	; 211
    23ae:	fd 4f       	sbci	r31, 0xFD	; 253
    23b0:	80 83       	st	Z, r24
    23b2:	8a ea       	ldi	r24, 0xAA	; 170
    23b4:	31 96       	adiw	r30, 0x01	; 1
    23b6:	80 83       	st	Z, r24
    23b8:	82 e5       	ldi	r24, 0x52	; 82
    23ba:	8f a7       	std	Y+47, r24	; 0x2f
    23bc:	88 ab       	std	Y+48, r24	; 0x30
    23be:	81 e6       	ldi	r24, 0x61	; 97
    23c0:	89 ab       	std	Y+49, r24	; 0x31
    23c2:	91 e4       	ldi	r25, 0x41	; 65
    23c4:	9a ab       	std	Y+50, r25	; 0x32
    23c6:	22 e7       	ldi	r18, 0x72	; 114
    23c8:	7b 97       	sbiw	r30, 0x1b	; 27
    23ca:	20 83       	st	Z, r18
    23cc:	31 96       	adiw	r30, 0x01	; 1
    23ce:	20 83       	st	Z, r18
    23d0:	31 96       	adiw	r30, 0x01	; 1
    23d2:	90 83       	st	Z, r25
    23d4:	31 96       	adiw	r30, 0x01	; 1
    23d6:	80 83       	st	Z, r24
    23d8:	4f 85       	ldd	r20, Y+15	; 0x0f
    23da:	58 89       	ldd	r21, Y+16	; 0x10
    23dc:	69 89       	ldd	r22, Y+17	; 0x11
    23de:	7a 89       	ldd	r23, Y+18	; 0x12
    23e0:	ce 01       	movw	r24, r28
    23e2:	89 5e       	subi	r24, 0xE9	; 233
    23e4:	9d 4f       	sbci	r25, 0xFD	; 253
    23e6:	0e 94 1e 07 	call	0xe3c	; 0xe3c <st_dword>
    23ea:	4b 85       	ldd	r20, Y+11	; 0x0b
    23ec:	5c 85       	ldd	r21, Y+12	; 0x0c
    23ee:	6d 85       	ldd	r22, Y+13	; 0x0d
    23f0:	7e 85       	ldd	r23, Y+14	; 0x0e
    23f2:	ce 01       	movw	r24, r28
    23f4:	85 5e       	subi	r24, 0xE5	; 229
    23f6:	9d 4f       	sbci	r25, 0xFD	; 253
    23f8:	0e 94 1e 07 	call	0xe3c	; 0xe3c <st_dword>
    23fc:	8b 8d       	ldd	r24, Y+27	; 0x1b
    23fe:	9c 8d       	ldd	r25, Y+28	; 0x1c
    2400:	ad 8d       	ldd	r26, Y+29	; 0x1d
    2402:	be 8d       	ldd	r27, Y+30	; 0x1e
    2404:	9c 01       	movw	r18, r24
    2406:	ad 01       	movw	r20, r26
    2408:	2f 5f       	subi	r18, 0xFF	; 255
    240a:	3f 4f       	sbci	r19, 0xFF	; 255
    240c:	4f 4f       	sbci	r20, 0xFF	; 255
    240e:	5f 4f       	sbci	r21, 0xFF	; 255
    2410:	2b a7       	std	Y+43, r18	; 0x2b
    2412:	3c a7       	std	Y+44, r19	; 0x2c
    2414:	4d a7       	std	Y+45, r20	; 0x2d
    2416:	5e a7       	std	Y+46, r21	; 0x2e
    2418:	01 e0       	ldi	r16, 0x01	; 1
    241a:	10 e0       	ldi	r17, 0x00	; 0
    241c:	b7 01       	movw	r22, r14
    241e:	89 81       	ldd	r24, Y+1	; 0x01
    2420:	0e 94 e7 06 	call	0xdce	; 0xdce <disk_write>
    2424:	1c 82       	std	Y+4, r1	; 0x04
    2426:	40 e0       	ldi	r20, 0x00	; 0
    2428:	50 e0       	ldi	r21, 0x00	; 0
    242a:	60 e0       	ldi	r22, 0x00	; 0
    242c:	89 81       	ldd	r24, Y+1	; 0x01
    242e:	0e 94 f8 06 	call	0xdf0	; 0xdf0 <disk_ioctl>
    2432:	91 e0       	ldi	r25, 0x01	; 1
    2434:	81 11       	cpse	r24, r1
    2436:	01 c0       	rjmp	.+2      	; 0x243a <sync_fs+0xd2>
    2438:	90 e0       	ldi	r25, 0x00	; 0
    243a:	89 2f       	mov	r24, r25
    243c:	df 91       	pop	r29
    243e:	cf 91       	pop	r28
    2440:	1f 91       	pop	r17
    2442:	0f 91       	pop	r16
    2444:	ff 90       	pop	r15
    2446:	ef 90       	pop	r14
    2448:	08 95       	ret

0000244a <f_mount>:
    244a:	cf 93       	push	r28
    244c:	df 93       	push	r29
    244e:	cd b7       	in	r28, 0x3d	; 61
    2450:	de b7       	in	r29, 0x3e	; 62
    2452:	27 97       	sbiw	r28, 0x07	; 7
    2454:	0f b6       	in	r0, 0x3f	; 63
    2456:	f8 94       	cli
    2458:	de bf       	out	0x3e, r29	; 62
    245a:	0f be       	out	0x3f, r0	; 63
    245c:	cd bf       	out	0x3d, r28	; 61
    245e:	9c 83       	std	Y+4, r25	; 0x04
    2460:	8b 83       	std	Y+3, r24	; 0x03
    2462:	7e 83       	std	Y+6, r23	; 0x06
    2464:	6d 83       	std	Y+5, r22	; 0x05
    2466:	7a 83       	std	Y+2, r23	; 0x02
    2468:	69 83       	std	Y+1, r22	; 0x01
    246a:	ce 01       	movw	r24, r28
    246c:	01 96       	adiw	r24, 0x01	; 1
    246e:	4f 83       	std	Y+7, r20	; 0x07
    2470:	0e 94 4c 07 	call	0xe98	; 0xe98 <get_ldnumber>
    2474:	4f 81       	ldd	r20, Y+7	; 0x07
    2476:	97 fd       	sbrc	r25, 7
    2478:	22 c0       	rjmp	.+68     	; 0x24be <f_mount+0x74>
    247a:	88 0f       	add	r24, r24
    247c:	99 1f       	adc	r25, r25
    247e:	fc 01       	movw	r30, r24
    2480:	e2 5b       	subi	r30, 0xB2	; 178
    2482:	fe 4f       	sbci	r31, 0xFE	; 254
    2484:	01 90       	ld	r0, Z+
    2486:	f0 81       	ld	r31, Z
    2488:	e0 2d       	mov	r30, r0
    248a:	30 97       	sbiw	r30, 0x00	; 0
    248c:	09 f0       	breq	.+2      	; 0x2490 <f_mount+0x46>
    248e:	10 82       	st	Z, r1
    2490:	eb 81       	ldd	r30, Y+3	; 0x03
    2492:	fc 81       	ldd	r31, Y+4	; 0x04
    2494:	30 97       	sbiw	r30, 0x00	; 0
    2496:	09 f0       	breq	.+2      	; 0x249a <f_mount+0x50>
    2498:	10 82       	st	Z, r1
    249a:	dc 01       	movw	r26, r24
    249c:	a2 5b       	subi	r26, 0xB2	; 178
    249e:	be 4f       	sbci	r27, 0xFE	; 254
    24a0:	ed 93       	st	X+, r30
    24a2:	fc 93       	st	X, r31
    24a4:	ef 2b       	or	r30, r31
    24a6:	69 f0       	breq	.+26     	; 0x24c2 <f_mount+0x78>
    24a8:	41 30       	cpi	r20, 0x01	; 1
    24aa:	59 f4       	brne	.+22     	; 0x24c2 <f_mount+0x78>
    24ac:	40 e0       	ldi	r20, 0x00	; 0
    24ae:	be 01       	movw	r22, r28
    24b0:	6d 5f       	subi	r22, 0xFD	; 253
    24b2:	7f 4f       	sbci	r23, 0xFF	; 255
    24b4:	ce 01       	movw	r24, r28
    24b6:	05 96       	adiw	r24, 0x05	; 5
    24b8:	0e 94 ab 08 	call	0x1156	; 0x1156 <find_volume>
    24bc:	03 c0       	rjmp	.+6      	; 0x24c4 <f_mount+0x7a>
    24be:	8b e0       	ldi	r24, 0x0B	; 11
    24c0:	01 c0       	rjmp	.+2      	; 0x24c4 <f_mount+0x7a>
    24c2:	80 e0       	ldi	r24, 0x00	; 0
    24c4:	27 96       	adiw	r28, 0x07	; 7
    24c6:	0f b6       	in	r0, 0x3f	; 63
    24c8:	f8 94       	cli
    24ca:	de bf       	out	0x3e, r29	; 62
    24cc:	0f be       	out	0x3f, r0	; 63
    24ce:	cd bf       	out	0x3d, r28	; 61
    24d0:	df 91       	pop	r29
    24d2:	cf 91       	pop	r28
    24d4:	08 95       	ret

000024d6 <f_open>:
    24d6:	4f 92       	push	r4
    24d8:	5f 92       	push	r5
    24da:	6f 92       	push	r6
    24dc:	7f 92       	push	r7
    24de:	8f 92       	push	r8
    24e0:	9f 92       	push	r9
    24e2:	af 92       	push	r10
    24e4:	bf 92       	push	r11
    24e6:	df 92       	push	r13
    24e8:	ef 92       	push	r14
    24ea:	ff 92       	push	r15
    24ec:	0f 93       	push	r16
    24ee:	1f 93       	push	r17
    24f0:	cf 93       	push	r28
    24f2:	df 93       	push	r29
    24f4:	cd b7       	in	r28, 0x3d	; 61
    24f6:	de b7       	in	r29, 0x3e	; 62
    24f8:	e0 97       	sbiw	r28, 0x30	; 48
    24fa:	0f b6       	in	r0, 0x3f	; 63
    24fc:	f8 94       	cli
    24fe:	de bf       	out	0x3e, r29	; 62
    2500:	0f be       	out	0x3f, r0	; 63
    2502:	cd bf       	out	0x3d, r28	; 61
    2504:	7c a7       	std	Y+44, r23	; 0x2c
    2506:	6b a7       	std	Y+43, r22	; 0x2b
    2508:	00 97       	sbiw	r24, 0x00	; 0
    250a:	09 f4       	brne	.+2      	; 0x250e <f_open+0x38>
    250c:	5c c1       	rjmp	.+696    	; 0x27c6 <f_open+0x2f0>
    250e:	14 2f       	mov	r17, r20
    2510:	7c 01       	movw	r14, r24
    2512:	24 2f       	mov	r18, r20
    2514:	2f 73       	andi	r18, 0x3F	; 63
    2516:	d2 2e       	mov	r13, r18
    2518:	42 2f       	mov	r20, r18
    251a:	be 01       	movw	r22, r28
    251c:	67 5d       	subi	r22, 0xD7	; 215
    251e:	7f 4f       	sbci	r23, 0xFF	; 255
    2520:	ce 01       	movw	r24, r28
    2522:	8b 96       	adiw	r24, 0x2b	; 43
    2524:	0e 94 ab 08 	call	0x1156	; 0x1156 <find_volume>
    2528:	81 11       	cpse	r24, r1
    252a:	58 c1       	rjmp	.+688    	; 0x27dc <f_open+0x306>
    252c:	89 a5       	ldd	r24, Y+41	; 0x29
    252e:	9a a5       	ldd	r25, Y+42	; 0x2a
    2530:	9a 83       	std	Y+2, r25	; 0x02
    2532:	89 83       	std	Y+1, r24	; 0x01
    2534:	6b a5       	ldd	r22, Y+43	; 0x2b
    2536:	7c a5       	ldd	r23, Y+44	; 0x2c
    2538:	ce 01       	movw	r24, r28
    253a:	01 96       	adiw	r24, 0x01	; 1
    253c:	8e dd       	rcall	.-1252   	; 0x205a <follow_path>
    253e:	81 11       	cpse	r24, r1
    2540:	03 c0       	rjmp	.+6      	; 0x2548 <f_open+0x72>
    2542:	98 a5       	ldd	r25, Y+40	; 0x28
    2544:	97 fd       	sbrc	r25, 7
    2546:	86 e0       	ldi	r24, 0x06	; 6
    2548:	91 2f       	mov	r25, r17
    254a:	9c 71       	andi	r25, 0x1C	; 28
    254c:	09 f4       	brne	.+2      	; 0x2550 <f_open+0x7a>
    254e:	6f c0       	rjmp	.+222    	; 0x262e <f_open+0x158>
    2550:	88 23       	and	r24, r24
    2552:	59 f0       	breq	.+22     	; 0x256a <f_open+0x94>
    2554:	84 30       	cpi	r24, 0x04	; 4
    2556:	19 f4       	brne	.+6      	; 0x255e <f_open+0x88>
    2558:	ce 01       	movw	r24, r28
    255a:	01 96       	adiw	r24, 0x01	; 1
    255c:	af de       	rcall	.-674    	; 0x22bc <dir_register>
    255e:	3d 2d       	mov	r19, r13
    2560:	38 60       	ori	r19, 0x08	; 8
    2562:	d3 2e       	mov	r13, r19
    2564:	88 23       	and	r24, r24
    2566:	39 f0       	breq	.+14     	; 0x2576 <f_open+0xa0>
    2568:	39 c1       	rjmp	.+626    	; 0x27dc <f_open+0x306>
    256a:	8d 81       	ldd	r24, Y+5	; 0x05
    256c:	81 71       	andi	r24, 0x11	; 17
    256e:	09 f0       	breq	.+2      	; 0x2572 <f_open+0x9c>
    2570:	30 c1       	rjmp	.+608    	; 0x27d2 <f_open+0x2fc>
    2572:	12 fd       	sbrc	r17, 2
    2574:	2a c1       	rjmp	.+596    	; 0x27ca <f_open+0x2f4>
    2576:	d3 fe       	sbrs	r13, 3
    2578:	63 c0       	rjmp	.+198    	; 0x2640 <f_open+0x16a>
    257a:	0e 94 6f 25 	call	0x4ade	; 0x4ade <get_fattime>
    257e:	4b 01       	movw	r8, r22
    2580:	5c 01       	movw	r10, r24
    2582:	8b 8d       	ldd	r24, Y+27	; 0x1b
    2584:	9c 8d       	ldd	r25, Y+28	; 0x1c
    2586:	b5 01       	movw	r22, r10
    2588:	a4 01       	movw	r20, r8
    258a:	0e 96       	adiw	r24, 0x0e	; 14
    258c:	0e 94 1e 07 	call	0xe3c	; 0xe3c <st_dword>
    2590:	8b 8d       	ldd	r24, Y+27	; 0x1b
    2592:	9c 8d       	ldd	r25, Y+28	; 0x1c
    2594:	b5 01       	movw	r22, r10
    2596:	a4 01       	movw	r20, r8
    2598:	46 96       	adiw	r24, 0x16	; 22
    259a:	0e 94 1e 07 	call	0xe3c	; 0xe3c <st_dword>
    259e:	eb 8d       	ldd	r30, Y+27	; 0x1b
    25a0:	fc 8d       	ldd	r31, Y+28	; 0x1c
    25a2:	80 e2       	ldi	r24, 0x20	; 32
    25a4:	83 87       	std	Z+11, r24	; 0x0b
    25a6:	ab 8c       	ldd	r10, Y+27	; 0x1b
    25a8:	bc 8c       	ldd	r11, Y+28	; 0x1c
    25aa:	09 a5       	ldd	r16, Y+41	; 0x29
    25ac:	1a a5       	ldd	r17, Y+42	; 0x2a
    25ae:	b5 01       	movw	r22, r10
    25b0:	d8 01       	movw	r26, r16
    25b2:	8c 91       	ld	r24, X
    25b4:	0e 94 a0 07 	call	0xf40	; 0xf40 <ld_clust.isra.1>
    25b8:	2b 01       	movw	r4, r22
    25ba:	3c 01       	movw	r6, r24
    25bc:	20 e0       	ldi	r18, 0x00	; 0
    25be:	30 e0       	ldi	r19, 0x00	; 0
    25c0:	a9 01       	movw	r20, r18
    25c2:	b5 01       	movw	r22, r10
    25c4:	c8 01       	movw	r24, r16
    25c6:	0e 94 bd 07 	call	0xf7a	; 0xf7a <st_clust.isra.2>
    25ca:	eb 8d       	ldd	r30, Y+27	; 0x1b
    25cc:	fc 8d       	ldd	r31, Y+28	; 0x1c
    25ce:	14 8e       	std	Z+28, r1	; 0x1c
    25d0:	15 8e       	std	Z+29, r1	; 0x1d
    25d2:	16 8e       	std	Z+30, r1	; 0x1e
    25d4:	17 8e       	std	Z+31, r1	; 0x1f
    25d6:	e9 a5       	ldd	r30, Y+41	; 0x29
    25d8:	fa a5       	ldd	r31, Y+42	; 0x2a
    25da:	81 e0       	ldi	r24, 0x01	; 1
    25dc:	83 83       	std	Z+3, r24	; 0x03
    25de:	41 14       	cp	r4, r1
    25e0:	51 04       	cpc	r5, r1
    25e2:	61 04       	cpc	r6, r1
    25e4:	71 04       	cpc	r7, r1
    25e6:	61 f1       	breq	.+88     	; 0x2640 <f_open+0x16a>
    25e8:	83 a4       	ldd	r8, Z+43	; 0x2b
    25ea:	94 a4       	ldd	r9, Z+44	; 0x2c
    25ec:	a5 a4       	ldd	r10, Z+45	; 0x2d
    25ee:	b6 a4       	ldd	r11, Z+46	; 0x2e
    25f0:	00 e0       	ldi	r16, 0x00	; 0
    25f2:	10 e0       	ldi	r17, 0x00	; 0
    25f4:	98 01       	movw	r18, r16
    25f6:	b3 01       	movw	r22, r6
    25f8:	a2 01       	movw	r20, r4
    25fa:	ce 01       	movw	r24, r28
    25fc:	01 96       	adiw	r24, 0x01	; 1
    25fe:	00 db       	rcall	.-2560   	; 0x1c00 <remove_chain>
    2600:	81 11       	cpse	r24, r1
    2602:	ec c0       	rjmp	.+472    	; 0x27dc <f_open+0x306>
    2604:	b5 01       	movw	r22, r10
    2606:	a4 01       	movw	r20, r8
    2608:	89 a5       	ldd	r24, Y+41	; 0x29
    260a:	9a a5       	ldd	r25, Y+42	; 0x2a
    260c:	0e 94 2b 08 	call	0x1056	; 0x1056 <move_window>
    2610:	e9 a5       	ldd	r30, Y+41	; 0x29
    2612:	fa a5       	ldd	r31, Y+42	; 0x2a
    2614:	b3 01       	movw	r22, r6
    2616:	a2 01       	movw	r20, r4
    2618:	41 50       	subi	r20, 0x01	; 1
    261a:	51 09       	sbc	r21, r1
    261c:	61 09       	sbc	r22, r1
    261e:	71 09       	sbc	r23, r1
    2620:	43 87       	std	Z+11, r20	; 0x0b
    2622:	54 87       	std	Z+12, r21	; 0x0c
    2624:	65 87       	std	Z+13, r22	; 0x0d
    2626:	76 87       	std	Z+14, r23	; 0x0e
    2628:	88 23       	and	r24, r24
    262a:	51 f0       	breq	.+20     	; 0x2640 <f_open+0x16a>
    262c:	d7 c0       	rjmp	.+430    	; 0x27dc <f_open+0x306>
    262e:	81 11       	cpse	r24, r1
    2630:	d5 c0       	rjmp	.+426    	; 0x27dc <f_open+0x306>
    2632:	8d 81       	ldd	r24, Y+5	; 0x05
    2634:	84 fd       	sbrc	r24, 4
    2636:	cb c0       	rjmp	.+406    	; 0x27ce <f_open+0x2f8>
    2638:	11 ff       	sbrs	r17, 1
    263a:	02 c0       	rjmp	.+4      	; 0x2640 <f_open+0x16a>
    263c:	80 fd       	sbrc	r24, 0
    263e:	c9 c0       	rjmp	.+402    	; 0x27d2 <f_open+0x2fc>
    2640:	d3 fe       	sbrs	r13, 3
    2642:	03 c0       	rjmp	.+6      	; 0x264a <f_open+0x174>
    2644:	bd 2d       	mov	r27, r13
    2646:	b0 64       	ori	r27, 0x40	; 64
    2648:	db 2e       	mov	r13, r27
    264a:	09 a5       	ldd	r16, Y+41	; 0x29
    264c:	1a a5       	ldd	r17, Y+42	; 0x2a
    264e:	f8 01       	movw	r30, r16
    2650:	83 a5       	ldd	r24, Z+43	; 0x2b
    2652:	94 a5       	ldd	r25, Z+44	; 0x2c
    2654:	a5 a5       	ldd	r26, Z+45	; 0x2d
    2656:	b6 a5       	ldd	r27, Z+46	; 0x2e
    2658:	f7 01       	movw	r30, r14
    265a:	84 8f       	std	Z+28, r24	; 0x1c
    265c:	95 8f       	std	Z+29, r25	; 0x1d
    265e:	a6 8f       	std	Z+30, r26	; 0x1e
    2660:	b7 8f       	std	Z+31, r27	; 0x1f
    2662:	ab 8c       	ldd	r10, Y+27	; 0x1b
    2664:	bc 8c       	ldd	r11, Y+28	; 0x1c
    2666:	b1 a2       	std	Z+33, r11	; 0x21
    2668:	a0 a2       	std	Z+32, r10	; 0x20
    266a:	b5 01       	movw	r22, r10
    266c:	d8 01       	movw	r26, r16
    266e:	8c 91       	ld	r24, X
    2670:	0e 94 a0 07 	call	0xf40	; 0xf40 <ld_clust.isra.1>
    2674:	2b 01       	movw	r4, r22
    2676:	3c 01       	movw	r6, r24
    2678:	f7 01       	movw	r30, r14
    267a:	66 83       	std	Z+6, r22	; 0x06
    267c:	77 83       	std	Z+7, r23	; 0x07
    267e:	80 87       	std	Z+8, r24	; 0x08
    2680:	91 87       	std	Z+9, r25	; 0x09
    2682:	c5 01       	movw	r24, r10
    2684:	4c 96       	adiw	r24, 0x1c	; 28
    2686:	0e 94 03 07 	call	0xe06	; 0xe06 <ld_dword>
    268a:	4b 01       	movw	r8, r22
    268c:	5c 01       	movw	r10, r24
    268e:	d7 01       	movw	r26, r14
    2690:	1a 96       	adiw	r26, 0x0a	; 10
    2692:	6d 93       	st	X+, r22
    2694:	7d 93       	st	X+, r23
    2696:	8d 93       	st	X+, r24
    2698:	9c 93       	st	X, r25
    269a:	1d 97       	sbiw	r26, 0x0d	; 13
    269c:	11 96       	adiw	r26, 0x01	; 1
    269e:	1c 93       	st	X, r17
    26a0:	0e 93       	st	-X, r16
    26a2:	f8 01       	movw	r30, r16
    26a4:	85 81       	ldd	r24, Z+5	; 0x05
    26a6:	96 81       	ldd	r25, Z+6	; 0x06
    26a8:	13 96       	adiw	r26, 0x03	; 3
    26aa:	9c 93       	st	X, r25
    26ac:	8e 93       	st	-X, r24
    26ae:	12 97       	sbiw	r26, 0x02	; 2
    26b0:	1e 96       	adiw	r26, 0x0e	; 14
    26b2:	dc 92       	st	X, r13
    26b4:	1e 97       	sbiw	r26, 0x0e	; 14
    26b6:	1f 96       	adiw	r26, 0x0f	; 15
    26b8:	1c 92       	st	X, r1
    26ba:	1f 97       	sbiw	r26, 0x0f	; 15
    26bc:	58 96       	adiw	r26, 0x18	; 24
    26be:	1d 92       	st	X+, r1
    26c0:	1d 92       	st	X+, r1
    26c2:	1d 92       	st	X+, r1
    26c4:	1c 92       	st	X, r1
    26c6:	5b 97       	sbiw	r26, 0x1b	; 27
    26c8:	f7 01       	movw	r30, r14
    26ca:	10 8a       	std	Z+16, r1	; 0x10
    26cc:	11 8a       	std	Z+17, r1	; 0x11
    26ce:	12 8a       	std	Z+18, r1	; 0x12
    26d0:	13 8a       	std	Z+19, r1	; 0x13
    26d2:	d5 fe       	sbrs	r13, 5
    26d4:	80 c0       	rjmp	.+256    	; 0x27d6 <f_open+0x300>
    26d6:	81 14       	cp	r8, r1
    26d8:	91 04       	cpc	r9, r1
    26da:	a1 04       	cpc	r10, r1
    26dc:	b1 04       	cpc	r11, r1
    26de:	09 f4       	brne	.+2      	; 0x26e2 <f_open+0x20c>
    26e0:	7a c0       	rjmp	.+244    	; 0x27d6 <f_open+0x300>
    26e2:	50 96       	adiw	r26, 0x10	; 16
    26e4:	8d 92       	st	X+, r8
    26e6:	9d 92       	st	X+, r9
    26e8:	ad 92       	st	X+, r10
    26ea:	bc 92       	st	X, r11
    26ec:	53 97       	sbiw	r26, 0x13	; 19
    26ee:	f8 01       	movw	r30, r16
    26f0:	81 85       	ldd	r24, Z+9	; 0x09
    26f2:	92 85       	ldd	r25, Z+10	; 0x0a
    26f4:	a0 e0       	ldi	r26, 0x00	; 0
    26f6:	b0 e0       	ldi	r27, 0x00	; 0
    26f8:	9c 01       	movw	r18, r24
    26fa:	ad 01       	movw	r20, r26
    26fc:	69 e0       	ldi	r22, 0x09	; 9
    26fe:	22 0f       	add	r18, r18
    2700:	33 1f       	adc	r19, r19
    2702:	44 1f       	adc	r20, r20
    2704:	55 1f       	adc	r21, r21
    2706:	6a 95       	dec	r22
    2708:	d1 f7       	brne	.-12     	; 0x26fe <f_open+0x228>
    270a:	2d a7       	std	Y+45, r18	; 0x2d
    270c:	3e a7       	std	Y+46, r19	; 0x2e
    270e:	4f a7       	std	Y+47, r20	; 0x2f
    2710:	58 ab       	std	Y+48, r21	; 0x30
    2712:	2d a5       	ldd	r18, Y+45	; 0x2d
    2714:	3e a5       	ldd	r19, Y+46	; 0x2e
    2716:	4f a5       	ldd	r20, Y+47	; 0x2f
    2718:	58 a9       	ldd	r21, Y+48	; 0x30
    271a:	28 15       	cp	r18, r8
    271c:	39 05       	cpc	r19, r9
    271e:	4a 05       	cpc	r20, r10
    2720:	5b 05       	cpc	r21, r11
    2722:	10 f5       	brcc	.+68     	; 0x2768 <f_open+0x292>
    2724:	b3 01       	movw	r22, r6
    2726:	a2 01       	movw	r20, r4
    2728:	d7 01       	movw	r26, r14
    272a:	8d 91       	ld	r24, X+
    272c:	9c 91       	ld	r25, X
    272e:	bb d8       	rcall	.-3722   	; 0x18a6 <get_fat.isra.8>
    2730:	2b 01       	movw	r4, r22
    2732:	3c 01       	movw	r6, r24
    2734:	62 30       	cpi	r22, 0x02	; 2
    2736:	71 05       	cpc	r23, r1
    2738:	81 05       	cpc	r24, r1
    273a:	91 05       	cpc	r25, r1
    273c:	38 f0       	brcs	.+14     	; 0x274c <f_open+0x276>
    273e:	6f 3f       	cpi	r22, 0xFF	; 255
    2740:	7f 4f       	sbci	r23, 0xFF	; 255
    2742:	8f 4f       	sbci	r24, 0xFF	; 255
    2744:	9f 4f       	sbci	r25, 0xFF	; 255
    2746:	21 f0       	breq	.+8      	; 0x2750 <f_open+0x27a>
    2748:	80 e0       	ldi	r24, 0x00	; 0
    274a:	03 c0       	rjmp	.+6      	; 0x2752 <f_open+0x27c>
    274c:	82 e0       	ldi	r24, 0x02	; 2
    274e:	01 c0       	rjmp	.+2      	; 0x2752 <f_open+0x27c>
    2750:	81 e0       	ldi	r24, 0x01	; 1
    2752:	2d a5       	ldd	r18, Y+45	; 0x2d
    2754:	3e a5       	ldd	r19, Y+46	; 0x2e
    2756:	4f a5       	ldd	r20, Y+47	; 0x2f
    2758:	58 a9       	ldd	r21, Y+48	; 0x30
    275a:	82 1a       	sub	r8, r18
    275c:	93 0a       	sbc	r9, r19
    275e:	a4 0a       	sbc	r10, r20
    2760:	b5 0a       	sbc	r11, r21
    2762:	88 23       	and	r24, r24
    2764:	b1 f2       	breq	.-84     	; 0x2712 <f_open+0x23c>
    2766:	01 c0       	rjmp	.+2      	; 0x276a <f_open+0x294>
    2768:	80 e0       	ldi	r24, 0x00	; 0
    276a:	d7 01       	movw	r26, r14
    276c:	54 96       	adiw	r26, 0x14	; 20
    276e:	4d 92       	st	X+, r4
    2770:	5d 92       	st	X+, r5
    2772:	6d 92       	st	X+, r6
    2774:	7c 92       	st	X, r7
    2776:	57 97       	sbiw	r26, 0x17	; 23
    2778:	81 11       	cpse	r24, r1
    277a:	30 c0       	rjmp	.+96     	; 0x27dc <f_open+0x306>
    277c:	d5 01       	movw	r26, r10
    277e:	c4 01       	movw	r24, r8
    2780:	91 70       	andi	r25, 0x01	; 1
    2782:	aa 27       	eor	r26, r26
    2784:	bb 27       	eor	r27, r27
    2786:	89 2b       	or	r24, r25
    2788:	8a 2b       	or	r24, r26
    278a:	8b 2b       	or	r24, r27
    278c:	21 f1       	breq	.+72     	; 0x27d6 <f_open+0x300>
    278e:	b3 01       	movw	r22, r6
    2790:	a2 01       	movw	r20, r4
    2792:	89 a5       	ldd	r24, Y+41	; 0x29
    2794:	9a a5       	ldd	r25, Y+42	; 0x2a
    2796:	0e 94 24 07 	call	0xe48	; 0xe48 <clust2sect>
    279a:	61 15       	cp	r22, r1
    279c:	71 05       	cpc	r23, r1
    279e:	81 05       	cpc	r24, r1
    27a0:	91 05       	cpc	r25, r1
    27a2:	d9 f0       	breq	.+54     	; 0x27da <f_open+0x304>
    27a4:	29 e0       	ldi	r18, 0x09	; 9
    27a6:	b6 94       	lsr	r11
    27a8:	a7 94       	ror	r10
    27aa:	97 94       	ror	r9
    27ac:	87 94       	ror	r8
    27ae:	2a 95       	dec	r18
    27b0:	d1 f7       	brne	.-12     	; 0x27a6 <f_open+0x2d0>
    27b2:	86 0e       	add	r8, r22
    27b4:	97 1e       	adc	r9, r23
    27b6:	a8 1e       	adc	r10, r24
    27b8:	b9 1e       	adc	r11, r25
    27ba:	f7 01       	movw	r30, r14
    27bc:	80 8e       	std	Z+24, r8	; 0x18
    27be:	91 8e       	std	Z+25, r9	; 0x19
    27c0:	a2 8e       	std	Z+26, r10	; 0x1a
    27c2:	b3 8e       	std	Z+27, r11	; 0x1b
    27c4:	08 c0       	rjmp	.+16     	; 0x27d6 <f_open+0x300>
    27c6:	89 e0       	ldi	r24, 0x09	; 9
    27c8:	0c c0       	rjmp	.+24     	; 0x27e2 <f_open+0x30c>
    27ca:	88 e0       	ldi	r24, 0x08	; 8
    27cc:	07 c0       	rjmp	.+14     	; 0x27dc <f_open+0x306>
    27ce:	84 e0       	ldi	r24, 0x04	; 4
    27d0:	05 c0       	rjmp	.+10     	; 0x27dc <f_open+0x306>
    27d2:	87 e0       	ldi	r24, 0x07	; 7
    27d4:	03 c0       	rjmp	.+6      	; 0x27dc <f_open+0x306>
    27d6:	80 e0       	ldi	r24, 0x00	; 0
    27d8:	04 c0       	rjmp	.+8      	; 0x27e2 <f_open+0x30c>
    27da:	82 e0       	ldi	r24, 0x02	; 2
    27dc:	d7 01       	movw	r26, r14
    27de:	1d 92       	st	X+, r1
    27e0:	1c 92       	st	X, r1
    27e2:	e0 96       	adiw	r28, 0x30	; 48
    27e4:	0f b6       	in	r0, 0x3f	; 63
    27e6:	f8 94       	cli
    27e8:	de bf       	out	0x3e, r29	; 62
    27ea:	0f be       	out	0x3f, r0	; 63
    27ec:	cd bf       	out	0x3d, r28	; 61
    27ee:	df 91       	pop	r29
    27f0:	cf 91       	pop	r28
    27f2:	1f 91       	pop	r17
    27f4:	0f 91       	pop	r16
    27f6:	ff 90       	pop	r15
    27f8:	ef 90       	pop	r14
    27fa:	df 90       	pop	r13
    27fc:	bf 90       	pop	r11
    27fe:	af 90       	pop	r10
    2800:	9f 90       	pop	r9
    2802:	8f 90       	pop	r8
    2804:	7f 90       	pop	r7
    2806:	6f 90       	pop	r6
    2808:	5f 90       	pop	r5
    280a:	4f 90       	pop	r4
    280c:	08 95       	ret

0000280e <f_write>:
    280e:	2f 92       	push	r2
    2810:	3f 92       	push	r3
    2812:	4f 92       	push	r4
    2814:	5f 92       	push	r5
    2816:	6f 92       	push	r6
    2818:	7f 92       	push	r7
    281a:	8f 92       	push	r8
    281c:	9f 92       	push	r9
    281e:	af 92       	push	r10
    2820:	bf 92       	push	r11
    2822:	cf 92       	push	r12
    2824:	df 92       	push	r13
    2826:	ef 92       	push	r14
    2828:	ff 92       	push	r15
    282a:	0f 93       	push	r16
    282c:	1f 93       	push	r17
    282e:	cf 93       	push	r28
    2830:	df 93       	push	r29
    2832:	00 d0       	rcall	.+0      	; 0x2834 <f_write+0x26>
    2834:	00 d0       	rcall	.+0      	; 0x2836 <f_write+0x28>
    2836:	cd b7       	in	r28, 0x3d	; 61
    2838:	de b7       	in	r29, 0x3e	; 62
    283a:	7c 01       	movw	r14, r24
    283c:	4b 01       	movw	r8, r22
    283e:	5a 01       	movw	r10, r20
    2840:	3c 83       	std	Y+4, r19	; 0x04
    2842:	2b 83       	std	Y+3, r18	; 0x03
    2844:	f9 01       	movw	r30, r18
    2846:	11 82       	std	Z+1, r1	; 0x01
    2848:	10 82       	st	Z, r1
    284a:	be 01       	movw	r22, r28
    284c:	6f 5f       	subi	r22, 0xFF	; 255
    284e:	7f 4f       	sbci	r23, 0xFF	; 255
    2850:	0e 94 6b 07 	call	0xed6	; 0xed6 <validate>
    2854:	81 11       	cpse	r24, r1
    2856:	6e c1       	rjmp	.+732    	; 0x2b34 <f_write+0x326>
    2858:	f7 01       	movw	r30, r14
    285a:	87 85       	ldd	r24, Z+15	; 0x0f
    285c:	81 11       	cpse	r24, r1
    285e:	6a c1       	rjmp	.+724    	; 0x2b34 <f_write+0x326>
    2860:	86 85       	ldd	r24, Z+14	; 0x0e
    2862:	81 ff       	sbrs	r24, 1
    2864:	66 c1       	rjmp	.+716    	; 0x2b32 <f_write+0x324>
    2866:	80 89       	ldd	r24, Z+16	; 0x10
    2868:	91 89       	ldd	r25, Z+17	; 0x11
    286a:	a2 89       	ldd	r26, Z+18	; 0x12
    286c:	b3 89       	ldd	r27, Z+19	; 0x13
    286e:	ac 01       	movw	r20, r24
    2870:	bd 01       	movw	r22, r26
    2872:	4a 0d       	add	r20, r10
    2874:	5b 1d       	adc	r21, r11
    2876:	61 1d       	adc	r22, r1
    2878:	71 1d       	adc	r23, r1
    287a:	48 17       	cp	r20, r24
    287c:	59 07       	cpc	r21, r25
    287e:	6a 07       	cpc	r22, r26
    2880:	7b 07       	cpc	r23, r27
    2882:	08 f0       	brcs	.+2      	; 0x2886 <f_write+0x78>
    2884:	bb c0       	rjmp	.+374    	; 0x29fc <f_write+0x1ee>
    2886:	5c 01       	movw	r10, r24
    2888:	a0 94       	com	r10
    288a:	b0 94       	com	r11
    288c:	b7 c0       	rjmp	.+366    	; 0x29fc <f_write+0x1ee>
    288e:	f7 01       	movw	r30, r14
    2890:	80 89       	ldd	r24, Z+16	; 0x10
    2892:	91 89       	ldd	r25, Z+17	; 0x11
    2894:	a2 89       	ldd	r26, Z+18	; 0x12
    2896:	b3 89       	ldd	r27, Z+19	; 0x13
    2898:	ac 01       	movw	r20, r24
    289a:	bd 01       	movw	r22, r26
    289c:	51 70       	andi	r21, 0x01	; 1
    289e:	66 27       	eor	r22, r22
    28a0:	77 27       	eor	r23, r23
    28a2:	45 2b       	or	r20, r21
    28a4:	46 2b       	or	r20, r22
    28a6:	47 2b       	or	r20, r23
    28a8:	09 f0       	breq	.+2      	; 0x28ac <f_write+0x9e>
    28aa:	19 c1       	rjmp	.+562    	; 0x2ade <f_write+0x2d0>
    28ac:	e9 81       	ldd	r30, Y+1	; 0x01
    28ae:	fa 81       	ldd	r31, Y+2	; 0x02
    28b0:	01 85       	ldd	r16, Z+9	; 0x09
    28b2:	12 85       	ldd	r17, Z+10	; 0x0a
    28b4:	01 50       	subi	r16, 0x01	; 1
    28b6:	11 09       	sbc	r17, r1
    28b8:	ac 01       	movw	r20, r24
    28ba:	bd 01       	movw	r22, r26
    28bc:	e9 e0       	ldi	r30, 0x09	; 9
    28be:	76 95       	lsr	r23
    28c0:	67 95       	ror	r22
    28c2:	57 95       	ror	r21
    28c4:	47 95       	ror	r20
    28c6:	ea 95       	dec	r30
    28c8:	d1 f7       	brne	.-12     	; 0x28be <f_write+0xb0>
    28ca:	04 23       	and	r16, r20
    28cc:	15 23       	and	r17, r21
    28ce:	01 15       	cp	r16, r1
    28d0:	11 05       	cpc	r17, r1
    28d2:	09 f4       	brne	.+2      	; 0x28d6 <f_write+0xc8>
    28d4:	98 c0       	rjmp	.+304    	; 0x2a06 <f_write+0x1f8>
    28d6:	89 81       	ldd	r24, Y+1	; 0x01
    28d8:	9a 81       	ldd	r25, Y+2	; 0x02
    28da:	fc 01       	movw	r30, r24
    28dc:	43 a4       	ldd	r4, Z+43	; 0x2b
    28de:	54 a4       	ldd	r5, Z+44	; 0x2c
    28e0:	65 a4       	ldd	r6, Z+45	; 0x2d
    28e2:	76 a4       	ldd	r7, Z+46	; 0x2e
    28e4:	f7 01       	movw	r30, r14
    28e6:	40 8d       	ldd	r20, Z+24	; 0x18
    28e8:	51 8d       	ldd	r21, Z+25	; 0x19
    28ea:	62 8d       	ldd	r22, Z+26	; 0x1a
    28ec:	73 8d       	ldd	r23, Z+27	; 0x1b
    28ee:	44 16       	cp	r4, r20
    28f0:	55 06       	cpc	r5, r21
    28f2:	66 06       	cpc	r6, r22
    28f4:	77 06       	cpc	r7, r23
    28f6:	09 f4       	brne	.+2      	; 0x28fa <f_write+0xec>
    28f8:	ce c0       	rjmp	.+412    	; 0x2a96 <f_write+0x288>
    28fa:	69 80       	ldd	r6, Y+1	; 0x01
    28fc:	7a 80       	ldd	r7, Y+2	; 0x02
    28fe:	f7 01       	movw	r30, r14
    2900:	44 89       	ldd	r20, Z+20	; 0x14
    2902:	55 89       	ldd	r21, Z+21	; 0x15
    2904:	66 89       	ldd	r22, Z+22	; 0x16
    2906:	77 89       	ldd	r23, Z+23	; 0x17
    2908:	c3 01       	movw	r24, r6
    290a:	0e 94 24 07 	call	0xe48	; 0xe48 <clust2sect>
    290e:	61 15       	cp	r22, r1
    2910:	71 05       	cpc	r23, r1
    2912:	81 05       	cpc	r24, r1
    2914:	91 05       	cpc	r25, r1
    2916:	09 f4       	brne	.+2      	; 0x291a <f_write+0x10c>
    2918:	9f c0       	rjmp	.+318    	; 0x2a58 <f_write+0x24a>
    291a:	1b 01       	movw	r2, r22
    291c:	2c 01       	movw	r4, r24
    291e:	20 0e       	add	r2, r16
    2920:	31 1e       	adc	r3, r17
    2922:	41 1c       	adc	r4, r1
    2924:	51 1c       	adc	r5, r1
    2926:	65 01       	movw	r12, r10
    2928:	cd 2c       	mov	r12, r13
    292a:	dd 24       	eor	r13, r13
    292c:	c6 94       	lsr	r12
    292e:	c1 14       	cp	r12, r1
    2930:	d1 04       	cpc	r13, r1
    2932:	09 f4       	brne	.+2      	; 0x2936 <f_write+0x128>
    2934:	b6 c0       	rjmp	.+364    	; 0x2aa2 <f_write+0x294>
    2936:	f3 01       	movw	r30, r6
    2938:	81 85       	ldd	r24, Z+9	; 0x09
    293a:	92 85       	ldd	r25, Z+10	; 0x0a
    293c:	96 01       	movw	r18, r12
    293e:	20 0f       	add	r18, r16
    2940:	31 1f       	adc	r19, r17
    2942:	82 17       	cp	r24, r18
    2944:	93 07       	cpc	r25, r19
    2946:	18 f4       	brcc	.+6      	; 0x294e <f_write+0x140>
    2948:	6c 01       	movw	r12, r24
    294a:	c0 1a       	sub	r12, r16
    294c:	d1 0a       	sbc	r13, r17
    294e:	86 01       	movw	r16, r12
    2950:	a2 01       	movw	r20, r4
    2952:	91 01       	movw	r18, r2
    2954:	b4 01       	movw	r22, r8
    2956:	f3 01       	movw	r30, r6
    2958:	81 81       	ldd	r24, Z+1	; 0x01
    295a:	0e 94 e7 06 	call	0xdce	; 0xdce <disk_write>
    295e:	81 11       	cpse	r24, r1
    2960:	83 c0       	rjmp	.+262    	; 0x2a68 <f_write+0x25a>
    2962:	89 81       	ldd	r24, Y+1	; 0x01
    2964:	9a 81       	ldd	r25, Y+2	; 0x02
    2966:	fc 01       	movw	r30, r24
    2968:	43 a5       	ldd	r20, Z+43	; 0x2b
    296a:	54 a5       	ldd	r21, Z+44	; 0x2c
    296c:	65 a5       	ldd	r22, Z+45	; 0x2d
    296e:	76 a5       	ldd	r23, Z+46	; 0x2e
    2970:	42 19       	sub	r20, r2
    2972:	53 09       	sbc	r21, r3
    2974:	64 09       	sbc	r22, r4
    2976:	75 09       	sbc	r23, r5
    2978:	86 01       	movw	r16, r12
    297a:	20 e0       	ldi	r18, 0x00	; 0
    297c:	30 e0       	ldi	r19, 0x00	; 0
    297e:	40 17       	cp	r20, r16
    2980:	51 07       	cpc	r21, r17
    2982:	62 07       	cpc	r22, r18
    2984:	73 07       	cpc	r23, r19
    2986:	70 f4       	brcc	.+28     	; 0x29a4 <f_write+0x196>
    2988:	54 2f       	mov	r21, r20
    298a:	44 27       	eor	r20, r20
    298c:	55 0f       	add	r21, r21
    298e:	b4 01       	movw	r22, r8
    2990:	64 0f       	add	r22, r20
    2992:	75 1f       	adc	r23, r21
    2994:	40 e0       	ldi	r20, 0x00	; 0
    2996:	52 e0       	ldi	r21, 0x02	; 2
    2998:	8f 96       	adiw	r24, 0x2f	; 47
    299a:	0e 94 95 07 	call	0xf2a	; 0xf2a <mem_cpy.part.0>
    299e:	e9 81       	ldd	r30, Y+1	; 0x01
    29a0:	fa 81       	ldd	r31, Y+2	; 0x02
    29a2:	13 82       	std	Z+3, r1	; 0x03
    29a4:	dc 2c       	mov	r13, r12
    29a6:	cc 24       	eor	r12, r12
    29a8:	dd 0c       	add	r13, r13
    29aa:	8c 0c       	add	r8, r12
    29ac:	9d 1c       	adc	r9, r13
    29ae:	f7 01       	movw	r30, r14
    29b0:	80 89       	ldd	r24, Z+16	; 0x10
    29b2:	91 89       	ldd	r25, Z+17	; 0x11
    29b4:	a2 89       	ldd	r26, Z+18	; 0x12
    29b6:	b3 89       	ldd	r27, Z+19	; 0x13
    29b8:	8c 0d       	add	r24, r12
    29ba:	9d 1d       	adc	r25, r13
    29bc:	a1 1d       	adc	r26, r1
    29be:	b1 1d       	adc	r27, r1
    29c0:	80 8b       	std	Z+16, r24	; 0x10
    29c2:	91 8b       	std	Z+17, r25	; 0x11
    29c4:	a2 8b       	std	Z+18, r26	; 0x12
    29c6:	b3 8b       	std	Z+19, r27	; 0x13
    29c8:	42 85       	ldd	r20, Z+10	; 0x0a
    29ca:	53 85       	ldd	r21, Z+11	; 0x0b
    29cc:	64 85       	ldd	r22, Z+12	; 0x0c
    29ce:	75 85       	ldd	r23, Z+13	; 0x0d
    29d0:	84 17       	cp	r24, r20
    29d2:	95 07       	cpc	r25, r21
    29d4:	a6 07       	cpc	r26, r22
    29d6:	b7 07       	cpc	r27, r23
    29d8:	10 f4       	brcc	.+4      	; 0x29de <f_write+0x1d0>
    29da:	db 01       	movw	r26, r22
    29dc:	ca 01       	movw	r24, r20
    29de:	f7 01       	movw	r30, r14
    29e0:	82 87       	std	Z+10, r24	; 0x0a
    29e2:	93 87       	std	Z+11, r25	; 0x0b
    29e4:	a4 87       	std	Z+12, r26	; 0x0c
    29e6:	b5 87       	std	Z+13, r27	; 0x0d
    29e8:	eb 81       	ldd	r30, Y+3	; 0x03
    29ea:	fc 81       	ldd	r31, Y+4	; 0x04
    29ec:	80 81       	ld	r24, Z
    29ee:	91 81       	ldd	r25, Z+1	; 0x01
    29f0:	8c 0d       	add	r24, r12
    29f2:	9d 1d       	adc	r25, r13
    29f4:	91 83       	std	Z+1, r25	; 0x01
    29f6:	80 83       	st	Z, r24
    29f8:	ac 18       	sub	r10, r12
    29fa:	bd 08       	sbc	r11, r13
    29fc:	a1 14       	cp	r10, r1
    29fe:	b1 04       	cpc	r11, r1
    2a00:	09 f0       	breq	.+2      	; 0x2a04 <f_write+0x1f6>
    2a02:	45 cf       	rjmp	.-374    	; 0x288e <f_write+0x80>
    2a04:	1e c0       	rjmp	.+60     	; 0x2a42 <f_write+0x234>
    2a06:	f7 01       	movw	r30, r14
    2a08:	89 2b       	or	r24, r25
    2a0a:	8a 2b       	or	r24, r26
    2a0c:	8b 2b       	or	r24, r27
    2a0e:	69 f4       	brne	.+26     	; 0x2a2a <f_write+0x21c>
    2a10:	66 81       	ldd	r22, Z+6	; 0x06
    2a12:	77 81       	ldd	r23, Z+7	; 0x07
    2a14:	80 85       	ldd	r24, Z+8	; 0x08
    2a16:	91 85       	ldd	r25, Z+9	; 0x09
    2a18:	61 15       	cp	r22, r1
    2a1a:	71 05       	cpc	r23, r1
    2a1c:	81 05       	cpc	r24, r1
    2a1e:	91 05       	cpc	r25, r1
    2a20:	b1 f4       	brne	.+44     	; 0x2a4e <f_write+0x240>
    2a22:	40 e0       	ldi	r20, 0x00	; 0
    2a24:	50 e0       	ldi	r21, 0x00	; 0
    2a26:	ba 01       	movw	r22, r20
    2a28:	04 c0       	rjmp	.+8      	; 0x2a32 <f_write+0x224>
    2a2a:	44 89       	ldd	r20, Z+20	; 0x14
    2a2c:	55 89       	ldd	r21, Z+21	; 0x15
    2a2e:	66 89       	ldd	r22, Z+22	; 0x16
    2a30:	77 89       	ldd	r23, Z+23	; 0x17
    2a32:	c7 01       	movw	r24, r14
    2a34:	0e 94 18 0d 	call	0x1a30	; 0x1a30 <create_chain>
    2a38:	61 15       	cp	r22, r1
    2a3a:	71 05       	cpc	r23, r1
    2a3c:	81 05       	cpc	r24, r1
    2a3e:	91 05       	cpc	r25, r1
    2a40:	31 f4       	brne	.+12     	; 0x2a4e <f_write+0x240>
    2a42:	f7 01       	movw	r30, r14
    2a44:	86 85       	ldd	r24, Z+14	; 0x0e
    2a46:	80 64       	ori	r24, 0x40	; 64
    2a48:	86 87       	std	Z+14, r24	; 0x0e
    2a4a:	80 e0       	ldi	r24, 0x00	; 0
    2a4c:	73 c0       	rjmp	.+230    	; 0x2b34 <f_write+0x326>
    2a4e:	61 30       	cpi	r22, 0x01	; 1
    2a50:	71 05       	cpc	r23, r1
    2a52:	81 05       	cpc	r24, r1
    2a54:	91 05       	cpc	r25, r1
    2a56:	11 f4       	brne	.+4      	; 0x2a5c <f_write+0x24e>
    2a58:	82 e0       	ldi	r24, 0x02	; 2
    2a5a:	07 c0       	rjmp	.+14     	; 0x2a6a <f_write+0x25c>
    2a5c:	6f 3f       	cpi	r22, 0xFF	; 255
    2a5e:	ff ef       	ldi	r31, 0xFF	; 255
    2a60:	7f 07       	cpc	r23, r31
    2a62:	8f 07       	cpc	r24, r31
    2a64:	9f 07       	cpc	r25, r31
    2a66:	21 f4       	brne	.+8      	; 0x2a70 <f_write+0x262>
    2a68:	81 e0       	ldi	r24, 0x01	; 1
    2a6a:	f7 01       	movw	r30, r14
    2a6c:	87 87       	std	Z+15, r24	; 0x0f
    2a6e:	62 c0       	rjmp	.+196    	; 0x2b34 <f_write+0x326>
    2a70:	f7 01       	movw	r30, r14
    2a72:	64 8b       	std	Z+20, r22	; 0x14
    2a74:	75 8b       	std	Z+21, r23	; 0x15
    2a76:	86 8b       	std	Z+22, r24	; 0x16
    2a78:	97 8b       	std	Z+23, r25	; 0x17
    2a7a:	46 80       	ldd	r4, Z+6	; 0x06
    2a7c:	57 80       	ldd	r5, Z+7	; 0x07
    2a7e:	60 84       	ldd	r6, Z+8	; 0x08
    2a80:	71 84       	ldd	r7, Z+9	; 0x09
    2a82:	45 28       	or	r4, r5
    2a84:	46 28       	or	r4, r6
    2a86:	47 28       	or	r4, r7
    2a88:	09 f0       	breq	.+2      	; 0x2a8c <f_write+0x27e>
    2a8a:	25 cf       	rjmp	.-438    	; 0x28d6 <f_write+0xc8>
    2a8c:	66 83       	std	Z+6, r22	; 0x06
    2a8e:	77 83       	std	Z+7, r23	; 0x07
    2a90:	80 87       	std	Z+8, r24	; 0x08
    2a92:	91 87       	std	Z+9, r25	; 0x09
    2a94:	20 cf       	rjmp	.-448    	; 0x28d6 <f_write+0xc8>
    2a96:	0e 94 25 08 	call	0x104a	; 0x104a <sync_window>
    2a9a:	88 23       	and	r24, r24
    2a9c:	09 f4       	brne	.+2      	; 0x2aa0 <f_write+0x292>
    2a9e:	2d cf       	rjmp	.-422    	; 0x28fa <f_write+0xec>
    2aa0:	e3 cf       	rjmp	.-58     	; 0x2a68 <f_write+0x25a>
    2aa2:	f7 01       	movw	r30, r14
    2aa4:	40 89       	ldd	r20, Z+16	; 0x10
    2aa6:	51 89       	ldd	r21, Z+17	; 0x11
    2aa8:	62 89       	ldd	r22, Z+18	; 0x12
    2aaa:	73 89       	ldd	r23, Z+19	; 0x13
    2aac:	82 85       	ldd	r24, Z+10	; 0x0a
    2aae:	93 85       	ldd	r25, Z+11	; 0x0b
    2ab0:	a4 85       	ldd	r26, Z+12	; 0x0c
    2ab2:	b5 85       	ldd	r27, Z+13	; 0x0d
    2ab4:	48 17       	cp	r20, r24
    2ab6:	59 07       	cpc	r21, r25
    2ab8:	6a 07       	cpc	r22, r26
    2aba:	7b 07       	cpc	r23, r27
    2abc:	58 f0       	brcs	.+22     	; 0x2ad4 <f_write+0x2c6>
    2abe:	c3 01       	movw	r24, r6
    2ac0:	0e 94 25 08 	call	0x104a	; 0x104a <sync_window>
    2ac4:	81 11       	cpse	r24, r1
    2ac6:	d0 cf       	rjmp	.-96     	; 0x2a68 <f_write+0x25a>
    2ac8:	e9 81       	ldd	r30, Y+1	; 0x01
    2aca:	fa 81       	ldd	r31, Y+2	; 0x02
    2acc:	23 a6       	std	Z+43, r2	; 0x2b
    2ace:	34 a6       	std	Z+44, r3	; 0x2c
    2ad0:	45 a6       	std	Z+45, r4	; 0x2d
    2ad2:	56 a6       	std	Z+46, r5	; 0x2e
    2ad4:	f7 01       	movw	r30, r14
    2ad6:	20 8e       	std	Z+24, r2	; 0x18
    2ad8:	31 8e       	std	Z+25, r3	; 0x19
    2ada:	42 8e       	std	Z+26, r4	; 0x1a
    2adc:	53 8e       	std	Z+27, r5	; 0x1b
    2ade:	f7 01       	movw	r30, r14
    2ae0:	80 89       	ldd	r24, Z+16	; 0x10
    2ae2:	91 89       	ldd	r25, Z+17	; 0x11
    2ae4:	91 70       	andi	r25, 0x01	; 1
    2ae6:	20 e0       	ldi	r18, 0x00	; 0
    2ae8:	32 e0       	ldi	r19, 0x02	; 2
    2aea:	28 1b       	sub	r18, r24
    2aec:	39 0b       	sbc	r19, r25
    2aee:	65 01       	movw	r12, r10
    2af0:	2a 15       	cp	r18, r10
    2af2:	3b 05       	cpc	r19, r11
    2af4:	08 f4       	brcc	.+2      	; 0x2af8 <f_write+0x2ea>
    2af6:	69 01       	movw	r12, r18
    2af8:	f7 01       	movw	r30, r14
    2afa:	40 8d       	ldd	r20, Z+24	; 0x18
    2afc:	51 8d       	ldd	r21, Z+25	; 0x19
    2afe:	62 8d       	ldd	r22, Z+26	; 0x1a
    2b00:	73 8d       	ldd	r23, Z+27	; 0x1b
    2b02:	89 81       	ldd	r24, Y+1	; 0x01
    2b04:	9a 81       	ldd	r25, Y+2	; 0x02
    2b06:	0e 94 2b 08 	call	0x1056	; 0x1056 <move_window>
    2b0a:	81 11       	cpse	r24, r1
    2b0c:	ad cf       	rjmp	.-166    	; 0x2a68 <f_write+0x25a>
    2b0e:	f7 01       	movw	r30, r14
    2b10:	80 89       	ldd	r24, Z+16	; 0x10
    2b12:	91 89       	ldd	r25, Z+17	; 0x11
    2b14:	91 70       	andi	r25, 0x01	; 1
    2b16:	8f 96       	adiw	r24, 0x2f	; 47
    2b18:	29 81       	ldd	r18, Y+1	; 0x01
    2b1a:	3a 81       	ldd	r19, Y+2	; 0x02
    2b1c:	a6 01       	movw	r20, r12
    2b1e:	b4 01       	movw	r22, r8
    2b20:	82 0f       	add	r24, r18
    2b22:	93 1f       	adc	r25, r19
    2b24:	0e 94 95 07 	call	0xf2a	; 0xf2a <mem_cpy.part.0>
    2b28:	e9 81       	ldd	r30, Y+1	; 0x01
    2b2a:	fa 81       	ldd	r31, Y+2	; 0x02
    2b2c:	21 e0       	ldi	r18, 0x01	; 1
    2b2e:	23 83       	std	Z+3, r18	; 0x03
    2b30:	3c cf       	rjmp	.-392    	; 0x29aa <f_write+0x19c>
    2b32:	87 e0       	ldi	r24, 0x07	; 7
    2b34:	0f 90       	pop	r0
    2b36:	0f 90       	pop	r0
    2b38:	0f 90       	pop	r0
    2b3a:	0f 90       	pop	r0
    2b3c:	df 91       	pop	r29
    2b3e:	cf 91       	pop	r28
    2b40:	1f 91       	pop	r17
    2b42:	0f 91       	pop	r16
    2b44:	ff 90       	pop	r15
    2b46:	ef 90       	pop	r14
    2b48:	df 90       	pop	r13
    2b4a:	cf 90       	pop	r12
    2b4c:	bf 90       	pop	r11
    2b4e:	af 90       	pop	r10
    2b50:	9f 90       	pop	r9
    2b52:	8f 90       	pop	r8
    2b54:	7f 90       	pop	r7
    2b56:	6f 90       	pop	r6
    2b58:	5f 90       	pop	r5
    2b5a:	4f 90       	pop	r4
    2b5c:	3f 90       	pop	r3
    2b5e:	2f 90       	pop	r2
    2b60:	08 95       	ret

00002b62 <f_sync>:
    2b62:	8f 92       	push	r8
    2b64:	9f 92       	push	r9
    2b66:	af 92       	push	r10
    2b68:	bf 92       	push	r11
    2b6a:	ef 92       	push	r14
    2b6c:	ff 92       	push	r15
    2b6e:	0f 93       	push	r16
    2b70:	1f 93       	push	r17
    2b72:	cf 93       	push	r28
    2b74:	df 93       	push	r29
    2b76:	00 d0       	rcall	.+0      	; 0x2b78 <f_sync+0x16>
    2b78:	cd b7       	in	r28, 0x3d	; 61
    2b7a:	de b7       	in	r29, 0x3e	; 62
    2b7c:	8c 01       	movw	r16, r24
    2b7e:	be 01       	movw	r22, r28
    2b80:	6f 5f       	subi	r22, 0xFF	; 255
    2b82:	7f 4f       	sbci	r23, 0xFF	; 255
    2b84:	0e 94 6b 07 	call	0xed6	; 0xed6 <validate>
    2b88:	81 11       	cpse	r24, r1
    2b8a:	40 c0       	rjmp	.+128    	; 0x2c0c <f_sync+0xaa>
    2b8c:	f8 01       	movw	r30, r16
    2b8e:	96 85       	ldd	r25, Z+14	; 0x0e
    2b90:	96 ff       	sbrs	r25, 6
    2b92:	3c c0       	rjmp	.+120    	; 0x2c0c <f_sync+0xaa>
    2b94:	0e 94 6f 25 	call	0x4ade	; 0x4ade <get_fattime>
    2b98:	4b 01       	movw	r8, r22
    2b9a:	5c 01       	movw	r10, r24
    2b9c:	f8 01       	movw	r30, r16
    2b9e:	44 8d       	ldd	r20, Z+28	; 0x1c
    2ba0:	55 8d       	ldd	r21, Z+29	; 0x1d
    2ba2:	66 8d       	ldd	r22, Z+30	; 0x1e
    2ba4:	77 8d       	ldd	r23, Z+31	; 0x1f
    2ba6:	89 81       	ldd	r24, Y+1	; 0x01
    2ba8:	9a 81       	ldd	r25, Y+2	; 0x02
    2baa:	0e 94 2b 08 	call	0x1056	; 0x1056 <move_window>
    2bae:	81 11       	cpse	r24, r1
    2bb0:	2d c0       	rjmp	.+90     	; 0x2c0c <f_sync+0xaa>
    2bb2:	f8 01       	movw	r30, r16
    2bb4:	e0 a0       	ldd	r14, Z+32	; 0x20
    2bb6:	f1 a0       	ldd	r15, Z+33	; 0x21
    2bb8:	f7 01       	movw	r30, r14
    2bba:	83 85       	ldd	r24, Z+11	; 0x0b
    2bbc:	80 62       	ori	r24, 0x20	; 32
    2bbe:	83 87       	std	Z+11, r24	; 0x0b
    2bc0:	f8 01       	movw	r30, r16
    2bc2:	26 81       	ldd	r18, Z+6	; 0x06
    2bc4:	37 81       	ldd	r19, Z+7	; 0x07
    2bc6:	40 85       	ldd	r20, Z+8	; 0x08
    2bc8:	51 85       	ldd	r21, Z+9	; 0x09
    2bca:	b7 01       	movw	r22, r14
    2bcc:	80 81       	ld	r24, Z
    2bce:	91 81       	ldd	r25, Z+1	; 0x01
    2bd0:	0e 94 bd 07 	call	0xf7a	; 0xf7a <st_clust.isra.2>
    2bd4:	f8 01       	movw	r30, r16
    2bd6:	42 85       	ldd	r20, Z+10	; 0x0a
    2bd8:	53 85       	ldd	r21, Z+11	; 0x0b
    2bda:	64 85       	ldd	r22, Z+12	; 0x0c
    2bdc:	75 85       	ldd	r23, Z+13	; 0x0d
    2bde:	c7 01       	movw	r24, r14
    2be0:	4c 96       	adiw	r24, 0x1c	; 28
    2be2:	0e 94 1e 07 	call	0xe3c	; 0xe3c <st_dword>
    2be6:	b5 01       	movw	r22, r10
    2be8:	a4 01       	movw	r20, r8
    2bea:	c7 01       	movw	r24, r14
    2bec:	46 96       	adiw	r24, 0x16	; 22
    2bee:	0e 94 1e 07 	call	0xe3c	; 0xe3c <st_dword>
    2bf2:	f7 01       	movw	r30, r14
    2bf4:	12 8a       	std	Z+18, r1	; 0x12
    2bf6:	13 8a       	std	Z+19, r1	; 0x13
    2bf8:	89 81       	ldd	r24, Y+1	; 0x01
    2bfa:	9a 81       	ldd	r25, Y+2	; 0x02
    2bfc:	21 e0       	ldi	r18, 0x01	; 1
    2bfe:	fc 01       	movw	r30, r24
    2c00:	23 83       	std	Z+3, r18	; 0x03
    2c02:	b2 db       	rcall	.-2204   	; 0x2368 <sync_fs>
    2c04:	f8 01       	movw	r30, r16
    2c06:	96 85       	ldd	r25, Z+14	; 0x0e
    2c08:	9f 7b       	andi	r25, 0xBF	; 191
    2c0a:	96 87       	std	Z+14, r25	; 0x0e
    2c0c:	0f 90       	pop	r0
    2c0e:	0f 90       	pop	r0
    2c10:	df 91       	pop	r29
    2c12:	cf 91       	pop	r28
    2c14:	1f 91       	pop	r17
    2c16:	0f 91       	pop	r16
    2c18:	ff 90       	pop	r15
    2c1a:	ef 90       	pop	r14
    2c1c:	bf 90       	pop	r11
    2c1e:	af 90       	pop	r10
    2c20:	9f 90       	pop	r9
    2c22:	8f 90       	pop	r8
    2c24:	08 95       	ret

00002c26 <f_getfree>:
    2c26:	2f 92       	push	r2
    2c28:	3f 92       	push	r3
    2c2a:	4f 92       	push	r4
    2c2c:	5f 92       	push	r5
    2c2e:	6f 92       	push	r6
    2c30:	7f 92       	push	r7
    2c32:	8f 92       	push	r8
    2c34:	9f 92       	push	r9
    2c36:	af 92       	push	r10
    2c38:	bf 92       	push	r11
    2c3a:	cf 92       	push	r12
    2c3c:	df 92       	push	r13
    2c3e:	ef 92       	push	r14
    2c40:	ff 92       	push	r15
    2c42:	0f 93       	push	r16
    2c44:	1f 93       	push	r17
    2c46:	cf 93       	push	r28
    2c48:	df 93       	push	r29
    2c4a:	cd b7       	in	r28, 0x3d	; 61
    2c4c:	de b7       	in	r29, 0x3e	; 62
    2c4e:	29 97       	sbiw	r28, 0x09	; 9
    2c50:	0f b6       	in	r0, 0x3f	; 63
    2c52:	f8 94       	cli
    2c54:	de bf       	out	0x3e, r29	; 62
    2c56:	0f be       	out	0x3f, r0	; 63
    2c58:	cd bf       	out	0x3d, r28	; 61
    2c5a:	9c 83       	std	Y+4, r25	; 0x04
    2c5c:	8b 83       	std	Y+3, r24	; 0x03
    2c5e:	1b 01       	movw	r2, r22
    2c60:	7a 01       	movw	r14, r20
    2c62:	40 e0       	ldi	r20, 0x00	; 0
    2c64:	be 01       	movw	r22, r28
    2c66:	6f 5f       	subi	r22, 0xFF	; 255
    2c68:	7f 4f       	sbci	r23, 0xFF	; 255
    2c6a:	ce 01       	movw	r24, r28
    2c6c:	03 96       	adiw	r24, 0x03	; 3
    2c6e:	0e 94 ab 08 	call	0x1156	; 0x1156 <find_volume>
    2c72:	8d 83       	std	Y+5, r24	; 0x05
    2c74:	81 11       	cpse	r24, r1
    2c76:	cf c0       	rjmp	.+414    	; 0x2e16 <f_getfree+0x1f0>
    2c78:	09 81       	ldd	r16, Y+1	; 0x01
    2c7a:	1a 81       	ldd	r17, Y+2	; 0x02
    2c7c:	f7 01       	movw	r30, r14
    2c7e:	11 83       	std	Z+1, r17	; 0x01
    2c80:	00 83       	st	Z, r16
    2c82:	f8 01       	movw	r30, r16
    2c84:	87 85       	ldd	r24, Z+15	; 0x0f
    2c86:	90 89       	ldd	r25, Z+16	; 0x10
    2c88:	a1 89       	ldd	r26, Z+17	; 0x11
    2c8a:	b2 89       	ldd	r27, Z+18	; 0x12
    2c8c:	43 88       	ldd	r4, Z+19	; 0x13
    2c8e:	54 88       	ldd	r5, Z+20	; 0x14
    2c90:	65 88       	ldd	r6, Z+21	; 0x15
    2c92:	76 88       	ldd	r7, Z+22	; 0x16
    2c94:	b3 01       	movw	r22, r6
    2c96:	a2 01       	movw	r20, r4
    2c98:	42 50       	subi	r20, 0x02	; 2
    2c9a:	51 09       	sbc	r21, r1
    2c9c:	61 09       	sbc	r22, r1
    2c9e:	71 09       	sbc	r23, r1
    2ca0:	48 17       	cp	r20, r24
    2ca2:	59 07       	cpc	r21, r25
    2ca4:	6a 07       	cpc	r22, r26
    2ca6:	7b 07       	cpc	r23, r27
    2ca8:	30 f0       	brcs	.+12     	; 0x2cb6 <f_getfree+0x90>
    2caa:	f1 01       	movw	r30, r2
    2cac:	80 83       	st	Z, r24
    2cae:	91 83       	std	Z+1, r25	; 0x01
    2cb0:	a2 83       	std	Z+2, r26	; 0x02
    2cb2:	b3 83       	std	Z+3, r27	; 0x03
    2cb4:	b0 c0       	rjmp	.+352    	; 0x2e16 <f_getfree+0x1f0>
    2cb6:	f8 01       	movw	r30, r16
    2cb8:	80 81       	ld	r24, Z
    2cba:	81 30       	cpi	r24, 0x01	; 1
    2cbc:	a1 f5       	brne	.+104    	; 0x2d26 <f_getfree+0x100>
    2cbe:	e2 e0       	ldi	r30, 0x02	; 2
    2cc0:	4e 2e       	mov	r4, r30
    2cc2:	51 2c       	mov	r5, r1
    2cc4:	61 2c       	mov	r6, r1
    2cc6:	71 2c       	mov	r7, r1
    2cc8:	c1 2c       	mov	r12, r1
    2cca:	d1 2c       	mov	r13, r1
    2ccc:	76 01       	movw	r14, r12
    2cce:	b3 01       	movw	r22, r6
    2cd0:	a2 01       	movw	r20, r4
    2cd2:	c8 01       	movw	r24, r16
    2cd4:	0e 94 53 0c 	call	0x18a6	; 0x18a6 <get_fat.isra.8>
    2cd8:	6f 3f       	cpi	r22, 0xFF	; 255
    2cda:	ff ef       	ldi	r31, 0xFF	; 255
    2cdc:	7f 07       	cpc	r23, r31
    2cde:	8f 07       	cpc	r24, r31
    2ce0:	9f 07       	cpc	r25, r31
    2ce2:	09 f4       	brne	.+2      	; 0x2ce6 <f_getfree+0xc0>
    2ce4:	84 c0       	rjmp	.+264    	; 0x2dee <f_getfree+0x1c8>
    2ce6:	61 30       	cpi	r22, 0x01	; 1
    2ce8:	71 05       	cpc	r23, r1
    2cea:	81 05       	cpc	r24, r1
    2cec:	91 05       	cpc	r25, r1
    2cee:	09 f4       	brne	.+2      	; 0x2cf2 <f_getfree+0xcc>
    2cf0:	80 c0       	rjmp	.+256    	; 0x2df2 <f_getfree+0x1cc>
    2cf2:	67 2b       	or	r22, r23
    2cf4:	68 2b       	or	r22, r24
    2cf6:	69 2b       	or	r22, r25
    2cf8:	29 f4       	brne	.+10     	; 0x2d04 <f_getfree+0xde>
    2cfa:	2f ef       	ldi	r18, 0xFF	; 255
    2cfc:	c2 1a       	sub	r12, r18
    2cfe:	d2 0a       	sbc	r13, r18
    2d00:	e2 0a       	sbc	r14, r18
    2d02:	f2 0a       	sbc	r15, r18
    2d04:	8f ef       	ldi	r24, 0xFF	; 255
    2d06:	48 1a       	sub	r4, r24
    2d08:	58 0a       	sbc	r5, r24
    2d0a:	68 0a       	sbc	r6, r24
    2d0c:	78 0a       	sbc	r7, r24
    2d0e:	e9 81       	ldd	r30, Y+1	; 0x01
    2d10:	fa 81       	ldd	r31, Y+2	; 0x02
    2d12:	83 89       	ldd	r24, Z+19	; 0x13
    2d14:	94 89       	ldd	r25, Z+20	; 0x14
    2d16:	a5 89       	ldd	r26, Z+21	; 0x15
    2d18:	b6 89       	ldd	r27, Z+22	; 0x16
    2d1a:	48 16       	cp	r4, r24
    2d1c:	59 06       	cpc	r5, r25
    2d1e:	6a 06       	cpc	r6, r26
    2d20:	7b 06       	cpc	r7, r27
    2d22:	a8 f2       	brcs	.-86     	; 0x2cce <f_getfree+0xa8>
    2d24:	6a c0       	rjmp	.+212    	; 0x2dfa <f_getfree+0x1d4>
    2d26:	f8 01       	movw	r30, r16
    2d28:	27 8d       	ldd	r18, Z+31	; 0x1f
    2d2a:	30 a1       	ldd	r19, Z+32	; 0x20
    2d2c:	41 a1       	ldd	r20, Z+33	; 0x21
    2d2e:	52 a1       	ldd	r21, Z+34	; 0x22
    2d30:	00 e0       	ldi	r16, 0x00	; 0
    2d32:	10 e0       	ldi	r17, 0x00	; 0
    2d34:	a1 2c       	mov	r10, r1
    2d36:	b1 2c       	mov	r11, r1
    2d38:	c1 2c       	mov	r12, r1
    2d3a:	d1 2c       	mov	r13, r1
    2d3c:	76 01       	movw	r14, r12
    2d3e:	a1 14       	cp	r10, r1
    2d40:	b1 04       	cpc	r11, r1
    2d42:	c1 f4       	brne	.+48     	; 0x2d74 <f_getfree+0x14e>
    2d44:	49 01       	movw	r8, r18
    2d46:	5a 01       	movw	r10, r20
    2d48:	ff ef       	ldi	r31, 0xFF	; 255
    2d4a:	8f 1a       	sub	r8, r31
    2d4c:	9f 0a       	sbc	r9, r31
    2d4e:	af 0a       	sbc	r10, r31
    2d50:	bf 0a       	sbc	r11, r31
    2d52:	ba 01       	movw	r22, r20
    2d54:	a9 01       	movw	r20, r18
    2d56:	89 81       	ldd	r24, Y+1	; 0x01
    2d58:	9a 81       	ldd	r25, Y+2	; 0x02
    2d5a:	0e 94 2b 08 	call	0x1056	; 0x1056 <move_window>
    2d5e:	81 11       	cpse	r24, r1
    2d60:	4b c0       	rjmp	.+150    	; 0x2df8 <f_getfree+0x1d2>
    2d62:	09 81       	ldd	r16, Y+1	; 0x01
    2d64:	1a 81       	ldd	r17, Y+2	; 0x02
    2d66:	01 5d       	subi	r16, 0xD1	; 209
    2d68:	1f 4f       	sbci	r17, 0xFF	; 255
    2d6a:	a5 01       	movw	r20, r10
    2d6c:	94 01       	movw	r18, r8
    2d6e:	a1 2c       	mov	r10, r1
    2d70:	72 e0       	ldi	r23, 0x02	; 2
    2d72:	b7 2e       	mov	r11, r23
    2d74:	e9 81       	ldd	r30, Y+1	; 0x01
    2d76:	fa 81       	ldd	r31, Y+2	; 0x02
    2d78:	80 81       	ld	r24, Z
    2d7a:	82 30       	cpi	r24, 0x02	; 2
    2d7c:	a1 f4       	brne	.+40     	; 0x2da6 <f_getfree+0x180>
    2d7e:	f8 01       	movw	r30, r16
    2d80:	81 81       	ldd	r24, Z+1	; 0x01
    2d82:	90 e0       	ldi	r25, 0x00	; 0
    2d84:	98 2f       	mov	r25, r24
    2d86:	88 27       	eor	r24, r24
    2d88:	60 81       	ld	r22, Z
    2d8a:	86 2b       	or	r24, r22
    2d8c:	89 2b       	or	r24, r25
    2d8e:	29 f4       	brne	.+10     	; 0x2d9a <f_getfree+0x174>
    2d90:	ff ef       	ldi	r31, 0xFF	; 255
    2d92:	cf 1a       	sub	r12, r31
    2d94:	df 0a       	sbc	r13, r31
    2d96:	ef 0a       	sbc	r14, r31
    2d98:	ff 0a       	sbc	r15, r31
    2d9a:	0e 5f       	subi	r16, 0xFE	; 254
    2d9c:	1f 4f       	sbci	r17, 0xFF	; 255
    2d9e:	82 e0       	ldi	r24, 0x02	; 2
    2da0:	a8 1a       	sub	r10, r24
    2da2:	b1 08       	sbc	r11, r1
    2da4:	1c c0       	rjmp	.+56     	; 0x2dde <f_getfree+0x1b8>
    2da6:	c8 01       	movw	r24, r16
    2da8:	2e 83       	std	Y+6, r18	; 0x06
    2daa:	3f 83       	std	Y+7, r19	; 0x07
    2dac:	48 87       	std	Y+8, r20	; 0x08
    2dae:	59 87       	std	Y+9, r21	; 0x09
    2db0:	0e 94 03 07 	call	0xe06	; 0xe06 <ld_dword>
    2db4:	dc 01       	movw	r26, r24
    2db6:	cb 01       	movw	r24, r22
    2db8:	bf 70       	andi	r27, 0x0F	; 15
    2dba:	2e 81       	ldd	r18, Y+6	; 0x06
    2dbc:	3f 81       	ldd	r19, Y+7	; 0x07
    2dbe:	48 85       	ldd	r20, Y+8	; 0x08
    2dc0:	59 85       	ldd	r21, Y+9	; 0x09
    2dc2:	89 2b       	or	r24, r25
    2dc4:	8a 2b       	or	r24, r26
    2dc6:	8b 2b       	or	r24, r27
    2dc8:	29 f4       	brne	.+10     	; 0x2dd4 <f_getfree+0x1ae>
    2dca:	ef ef       	ldi	r30, 0xFF	; 255
    2dcc:	ce 1a       	sub	r12, r30
    2dce:	de 0a       	sbc	r13, r30
    2dd0:	ee 0a       	sbc	r14, r30
    2dd2:	fe 0a       	sbc	r15, r30
    2dd4:	0c 5f       	subi	r16, 0xFC	; 252
    2dd6:	1f 4f       	sbci	r17, 0xFF	; 255
    2dd8:	f4 e0       	ldi	r31, 0x04	; 4
    2dda:	af 1a       	sub	r10, r31
    2ddc:	b1 08       	sbc	r11, r1
    2dde:	81 e0       	ldi	r24, 0x01	; 1
    2de0:	48 1a       	sub	r4, r24
    2de2:	51 08       	sbc	r5, r1
    2de4:	61 08       	sbc	r6, r1
    2de6:	71 08       	sbc	r7, r1
    2de8:	09 f0       	breq	.+2      	; 0x2dec <f_getfree+0x1c6>
    2dea:	a9 cf       	rjmp	.-174    	; 0x2d3e <f_getfree+0x118>
    2dec:	06 c0       	rjmp	.+12     	; 0x2dfa <f_getfree+0x1d4>
    2dee:	21 e0       	ldi	r18, 0x01	; 1
    2df0:	01 c0       	rjmp	.+2      	; 0x2df4 <f_getfree+0x1ce>
    2df2:	22 e0       	ldi	r18, 0x02	; 2
    2df4:	2d 83       	std	Y+5, r18	; 0x05
    2df6:	01 c0       	rjmp	.+2      	; 0x2dfa <f_getfree+0x1d4>
    2df8:	8d 83       	std	Y+5, r24	; 0x05
    2dfa:	f1 01       	movw	r30, r2
    2dfc:	c0 82       	st	Z, r12
    2dfe:	d1 82       	std	Z+1, r13	; 0x01
    2e00:	e2 82       	std	Z+2, r14	; 0x02
    2e02:	f3 82       	std	Z+3, r15	; 0x03
    2e04:	e9 81       	ldd	r30, Y+1	; 0x01
    2e06:	fa 81       	ldd	r31, Y+2	; 0x02
    2e08:	c7 86       	std	Z+15, r12	; 0x0f
    2e0a:	d0 8a       	std	Z+16, r13	; 0x10
    2e0c:	e1 8a       	std	Z+17, r14	; 0x11
    2e0e:	f2 8a       	std	Z+18, r15	; 0x12
    2e10:	84 81       	ldd	r24, Z+4	; 0x04
    2e12:	81 60       	ori	r24, 0x01	; 1
    2e14:	84 83       	std	Z+4, r24	; 0x04
    2e16:	8d 81       	ldd	r24, Y+5	; 0x05
    2e18:	29 96       	adiw	r28, 0x09	; 9
    2e1a:	0f b6       	in	r0, 0x3f	; 63
    2e1c:	f8 94       	cli
    2e1e:	de bf       	out	0x3e, r29	; 62
    2e20:	0f be       	out	0x3f, r0	; 63
    2e22:	cd bf       	out	0x3d, r28	; 61
    2e24:	df 91       	pop	r29
    2e26:	cf 91       	pop	r28
    2e28:	1f 91       	pop	r17
    2e2a:	0f 91       	pop	r16
    2e2c:	ff 90       	pop	r15
    2e2e:	ef 90       	pop	r14
    2e30:	df 90       	pop	r13
    2e32:	cf 90       	pop	r12
    2e34:	bf 90       	pop	r11
    2e36:	af 90       	pop	r10
    2e38:	9f 90       	pop	r9
    2e3a:	8f 90       	pop	r8
    2e3c:	7f 90       	pop	r7
    2e3e:	6f 90       	pop	r6
    2e40:	5f 90       	pop	r5
    2e42:	4f 90       	pop	r4
    2e44:	3f 90       	pop	r3
    2e46:	2f 90       	pop	r2
    2e48:	08 95       	ret

00002e4a <xchg_spi>:
    2e4a:	8e bd       	out	0x2e, r24	; 46
    2e4c:	0d b4       	in	r0, 0x2d	; 45
    2e4e:	07 fe       	sbrs	r0, 7
    2e50:	fd cf       	rjmp	.-6      	; 0x2e4c <xchg_spi+0x2>
    2e52:	8e b5       	in	r24, 0x2e	; 46
    2e54:	08 95       	ret

00002e56 <wait_ready>:
    2e56:	6a e0       	ldi	r22, 0x0A	; 10
    2e58:	70 e0       	ldi	r23, 0x00	; 0
    2e5a:	0e 94 9b 2f 	call	0x5f36	; 0x5f36 <__udivmodhi4>
    2e5e:	60 93 51 01 	sts	0x0151, r22	; 0x800151 <Timer2>
    2e62:	8f ef       	ldi	r24, 0xFF	; 255
    2e64:	f2 df       	rcall	.-28     	; 0x2e4a <xchg_spi>
    2e66:	28 2f       	mov	r18, r24
    2e68:	8f 3f       	cpi	r24, 0xFF	; 255
    2e6a:	21 f0       	breq	.+8      	; 0x2e74 <wait_ready+0x1e>
    2e6c:	80 91 51 01 	lds	r24, 0x0151	; 0x800151 <Timer2>
    2e70:	81 11       	cpse	r24, r1
    2e72:	f7 cf       	rjmp	.-18     	; 0x2e62 <wait_ready+0xc>
    2e74:	81 e0       	ldi	r24, 0x01	; 1
    2e76:	90 e0       	ldi	r25, 0x00	; 0
    2e78:	2f 3f       	cpi	r18, 0xFF	; 255
    2e7a:	11 f0       	breq	.+4      	; 0x2e80 <wait_ready+0x2a>
    2e7c:	80 e0       	ldi	r24, 0x00	; 0
    2e7e:	90 e0       	ldi	r25, 0x00	; 0
    2e80:	08 95       	ret

00002e82 <deselect>:
    2e82:	29 9a       	sbi	0x05, 1	; 5
    2e84:	8f ef       	ldi	r24, 0xFF	; 255
    2e86:	e1 cf       	rjmp	.-62     	; 0x2e4a <xchg_spi>

00002e88 <select>:
    2e88:	cf 93       	push	r28
    2e8a:	df 93       	push	r29
    2e8c:	00 d0       	rcall	.+0      	; 0x2e8e <select+0x6>
    2e8e:	cd b7       	in	r28, 0x3d	; 61
    2e90:	de b7       	in	r29, 0x3e	; 62
    2e92:	29 98       	cbi	0x05, 1	; 5
    2e94:	8f ef       	ldi	r24, 0xFF	; 255
    2e96:	d9 df       	rcall	.-78     	; 0x2e4a <xchg_spi>
    2e98:	84 ef       	ldi	r24, 0xF4	; 244
    2e9a:	91 e0       	ldi	r25, 0x01	; 1
    2e9c:	dc df       	rcall	.-72     	; 0x2e56 <wait_ready>
    2e9e:	00 97       	sbiw	r24, 0x00	; 0
    2ea0:	31 f4       	brne	.+12     	; 0x2eae <select+0x26>
    2ea2:	89 83       	std	Y+1, r24	; 0x01
    2ea4:	9a 83       	std	Y+2, r25	; 0x02
    2ea6:	ed df       	rcall	.-38     	; 0x2e82 <deselect>
    2ea8:	89 81       	ldd	r24, Y+1	; 0x01
    2eaa:	9a 81       	ldd	r25, Y+2	; 0x02
    2eac:	02 c0       	rjmp	.+4      	; 0x2eb2 <select+0x2a>
    2eae:	81 e0       	ldi	r24, 0x01	; 1
    2eb0:	90 e0       	ldi	r25, 0x00	; 0
    2eb2:	0f 90       	pop	r0
    2eb4:	0f 90       	pop	r0
    2eb6:	df 91       	pop	r29
    2eb8:	cf 91       	pop	r28
    2eba:	08 95       	ret

00002ebc <send_cmd>:
    2ebc:	ff 92       	push	r15
    2ebe:	0f 93       	push	r16
    2ec0:	1f 93       	push	r17
    2ec2:	cf 93       	push	r28
    2ec4:	df 93       	push	r29
    2ec6:	c8 2f       	mov	r28, r24
    2ec8:	d4 2f       	mov	r29, r20
    2eca:	15 2f       	mov	r17, r21
    2ecc:	06 2f       	mov	r16, r22
    2ece:	f7 2e       	mov	r15, r23
    2ed0:	87 ff       	sbrs	r24, 7
    2ed2:	08 c0       	rjmp	.+16     	; 0x2ee4 <send_cmd+0x28>
    2ed4:	40 e0       	ldi	r20, 0x00	; 0
    2ed6:	50 e0       	ldi	r21, 0x00	; 0
    2ed8:	ba 01       	movw	r22, r20
    2eda:	87 e3       	ldi	r24, 0x37	; 55
    2edc:	ef df       	rcall	.-34     	; 0x2ebc <send_cmd>
    2ede:	82 30       	cpi	r24, 0x02	; 2
    2ee0:	50 f5       	brcc	.+84     	; 0x2f36 <send_cmd+0x7a>
    2ee2:	cf 77       	andi	r28, 0x7F	; 127
    2ee4:	cc 30       	cpi	r28, 0x0C	; 12
    2ee6:	71 f4       	brne	.+28     	; 0x2f04 <send_cmd+0x48>
    2ee8:	8c 2f       	mov	r24, r28
    2eea:	80 64       	ori	r24, 0x40	; 64
    2eec:	ae df       	rcall	.-164    	; 0x2e4a <xchg_spi>
    2eee:	8f 2d       	mov	r24, r15
    2ef0:	ac df       	rcall	.-168    	; 0x2e4a <xchg_spi>
    2ef2:	80 2f       	mov	r24, r16
    2ef4:	aa df       	rcall	.-172    	; 0x2e4a <xchg_spi>
    2ef6:	81 2f       	mov	r24, r17
    2ef8:	a8 df       	rcall	.-176    	; 0x2e4a <xchg_spi>
    2efa:	8d 2f       	mov	r24, r29
    2efc:	a6 df       	rcall	.-180    	; 0x2e4a <xchg_spi>
    2efe:	cc 23       	and	r28, r28
    2f00:	59 f0       	breq	.+22     	; 0x2f18 <send_cmd+0x5c>
    2f02:	06 c0       	rjmp	.+12     	; 0x2f10 <send_cmd+0x54>
    2f04:	be df       	rcall	.-132    	; 0x2e82 <deselect>
    2f06:	c0 df       	rcall	.-128    	; 0x2e88 <select>
    2f08:	89 2b       	or	r24, r25
    2f0a:	71 f7       	brne	.-36     	; 0x2ee8 <send_cmd+0x2c>
    2f0c:	8f ef       	ldi	r24, 0xFF	; 255
    2f0e:	13 c0       	rjmp	.+38     	; 0x2f36 <send_cmd+0x7a>
    2f10:	c8 30       	cpi	r28, 0x08	; 8
    2f12:	21 f0       	breq	.+8      	; 0x2f1c <send_cmd+0x60>
    2f14:	81 e0       	ldi	r24, 0x01	; 1
    2f16:	03 c0       	rjmp	.+6      	; 0x2f1e <send_cmd+0x62>
    2f18:	85 e9       	ldi	r24, 0x95	; 149
    2f1a:	01 c0       	rjmp	.+2      	; 0x2f1e <send_cmd+0x62>
    2f1c:	87 e8       	ldi	r24, 0x87	; 135
    2f1e:	95 df       	rcall	.-214    	; 0x2e4a <xchg_spi>
    2f20:	cc 30       	cpi	r28, 0x0C	; 12
    2f22:	11 f4       	brne	.+4      	; 0x2f28 <send_cmd+0x6c>
    2f24:	8f ef       	ldi	r24, 0xFF	; 255
    2f26:	91 df       	rcall	.-222    	; 0x2e4a <xchg_spi>
    2f28:	ca e0       	ldi	r28, 0x0A	; 10
    2f2a:	8f ef       	ldi	r24, 0xFF	; 255
    2f2c:	8e df       	rcall	.-228    	; 0x2e4a <xchg_spi>
    2f2e:	87 ff       	sbrs	r24, 7
    2f30:	02 c0       	rjmp	.+4      	; 0x2f36 <send_cmd+0x7a>
    2f32:	c1 50       	subi	r28, 0x01	; 1
    2f34:	d1 f7       	brne	.-12     	; 0x2f2a <send_cmd+0x6e>
    2f36:	df 91       	pop	r29
    2f38:	cf 91       	pop	r28
    2f3a:	1f 91       	pop	r17
    2f3c:	0f 91       	pop	r16
    2f3e:	ff 90       	pop	r15
    2f40:	08 95       	ret

00002f42 <rcvr_datablock>:
    2f42:	0f 93       	push	r16
    2f44:	1f 93       	push	r17
    2f46:	cf 93       	push	r28
    2f48:	df 93       	push	r29
    2f4a:	ec 01       	movw	r28, r24
    2f4c:	8b 01       	movw	r16, r22
    2f4e:	84 e1       	ldi	r24, 0x14	; 20
    2f50:	80 93 52 01 	sts	0x0152, r24	; 0x800152 <Timer1>
    2f54:	8f ef       	ldi	r24, 0xFF	; 255
    2f56:	79 df       	rcall	.-270    	; 0x2e4a <xchg_spi>
    2f58:	8f 3f       	cpi	r24, 0xFF	; 255
    2f5a:	29 f4       	brne	.+10     	; 0x2f66 <rcvr_datablock+0x24>
    2f5c:	80 91 52 01 	lds	r24, 0x0152	; 0x800152 <Timer1>
    2f60:	81 11       	cpse	r24, r1
    2f62:	f8 cf       	rjmp	.-16     	; 0x2f54 <rcvr_datablock+0x12>
    2f64:	1c c0       	rjmp	.+56     	; 0x2f9e <rcvr_datablock+0x5c>
    2f66:	8e 3f       	cpi	r24, 0xFE	; 254
    2f68:	d1 f4       	brne	.+52     	; 0x2f9e <rcvr_datablock+0x5c>
    2f6a:	8f ef       	ldi	r24, 0xFF	; 255
    2f6c:	8e bd       	out	0x2e, r24	; 46
    2f6e:	0d b4       	in	r0, 0x2d	; 45
    2f70:	07 fe       	sbrs	r0, 7
    2f72:	fd cf       	rjmp	.-6      	; 0x2f6e <rcvr_datablock+0x2c>
    2f74:	9e b5       	in	r25, 0x2e	; 46
    2f76:	98 83       	st	Y, r25
    2f78:	8e bd       	out	0x2e, r24	; 46
    2f7a:	0d b4       	in	r0, 0x2d	; 45
    2f7c:	07 fe       	sbrs	r0, 7
    2f7e:	fd cf       	rjmp	.-6      	; 0x2f7a <rcvr_datablock+0x38>
    2f80:	22 96       	adiw	r28, 0x02	; 2
    2f82:	9e b5       	in	r25, 0x2e	; 46
    2f84:	fe 01       	movw	r30, r28
    2f86:	31 97       	sbiw	r30, 0x01	; 1
    2f88:	90 83       	st	Z, r25
    2f8a:	02 50       	subi	r16, 0x02	; 2
    2f8c:	11 09       	sbc	r17, r1
    2f8e:	71 f7       	brne	.-36     	; 0x2f6c <rcvr_datablock+0x2a>
    2f90:	8f ef       	ldi	r24, 0xFF	; 255
    2f92:	5b df       	rcall	.-330    	; 0x2e4a <xchg_spi>
    2f94:	8f ef       	ldi	r24, 0xFF	; 255
    2f96:	59 df       	rcall	.-334    	; 0x2e4a <xchg_spi>
    2f98:	81 e0       	ldi	r24, 0x01	; 1
    2f9a:	90 e0       	ldi	r25, 0x00	; 0
    2f9c:	02 c0       	rjmp	.+4      	; 0x2fa2 <rcvr_datablock+0x60>
    2f9e:	80 e0       	ldi	r24, 0x00	; 0
    2fa0:	90 e0       	ldi	r25, 0x00	; 0
    2fa2:	df 91       	pop	r29
    2fa4:	cf 91       	pop	r28
    2fa6:	1f 91       	pop	r17
    2fa8:	0f 91       	pop	r16
    2faa:	08 95       	ret

00002fac <xmit_datablock>:
    2fac:	1f 93       	push	r17
    2fae:	cf 93       	push	r28
    2fb0:	df 93       	push	r29
    2fb2:	ec 01       	movw	r28, r24
    2fb4:	16 2f       	mov	r17, r22
    2fb6:	84 ef       	ldi	r24, 0xF4	; 244
    2fb8:	91 e0       	ldi	r25, 0x01	; 1
    2fba:	4d df       	rcall	.-358    	; 0x2e56 <wait_ready>
    2fbc:	00 97       	sbiw	r24, 0x00	; 0
    2fbe:	39 f1       	breq	.+78     	; 0x300e <xmit_datablock+0x62>
    2fc0:	81 2f       	mov	r24, r17
    2fc2:	43 df       	rcall	.-378    	; 0x2e4a <xchg_spi>
    2fc4:	1d 3f       	cpi	r17, 0xFD	; 253
    2fc6:	09 f1       	breq	.+66     	; 0x300a <xmit_datablock+0x5e>
    2fc8:	ce 01       	movw	r24, r28
    2fca:	9e 5f       	subi	r25, 0xFE	; 254
    2fcc:	28 81       	ld	r18, Y
    2fce:	2e bd       	out	0x2e, r18	; 46
    2fd0:	0d b4       	in	r0, 0x2d	; 45
    2fd2:	07 fe       	sbrs	r0, 7
    2fd4:	fd cf       	rjmp	.-6      	; 0x2fd0 <xmit_datablock+0x24>
    2fd6:	22 96       	adiw	r28, 0x02	; 2
    2fd8:	fe 01       	movw	r30, r28
    2fda:	31 97       	sbiw	r30, 0x01	; 1
    2fdc:	20 81       	ld	r18, Z
    2fde:	2e bd       	out	0x2e, r18	; 46
    2fe0:	0d b4       	in	r0, 0x2d	; 45
    2fe2:	07 fe       	sbrs	r0, 7
    2fe4:	fd cf       	rjmp	.-6      	; 0x2fe0 <xmit_datablock+0x34>
    2fe6:	c8 17       	cp	r28, r24
    2fe8:	d9 07       	cpc	r29, r25
    2fea:	81 f7       	brne	.-32     	; 0x2fcc <xmit_datablock+0x20>
    2fec:	8f ef       	ldi	r24, 0xFF	; 255
    2fee:	2d df       	rcall	.-422    	; 0x2e4a <xchg_spi>
    2ff0:	8f ef       	ldi	r24, 0xFF	; 255
    2ff2:	2b df       	rcall	.-426    	; 0x2e4a <xchg_spi>
    2ff4:	8f ef       	ldi	r24, 0xFF	; 255
    2ff6:	29 df       	rcall	.-430    	; 0x2e4a <xchg_spi>
    2ff8:	8f 71       	andi	r24, 0x1F	; 31
    2ffa:	31 e0       	ldi	r19, 0x01	; 1
    2ffc:	20 e0       	ldi	r18, 0x00	; 0
    2ffe:	85 30       	cpi	r24, 0x05	; 5
    3000:	09 f0       	breq	.+2      	; 0x3004 <xmit_datablock+0x58>
    3002:	30 e0       	ldi	r19, 0x00	; 0
    3004:	83 2f       	mov	r24, r19
    3006:	92 2f       	mov	r25, r18
    3008:	02 c0       	rjmp	.+4      	; 0x300e <xmit_datablock+0x62>
    300a:	81 e0       	ldi	r24, 0x01	; 1
    300c:	90 e0       	ldi	r25, 0x00	; 0
    300e:	df 91       	pop	r29
    3010:	cf 91       	pop	r28
    3012:	1f 91       	pop	r17
    3014:	08 95       	ret

00003016 <mmc_disk_initialize>:
    3016:	df 92       	push	r13
    3018:	ef 92       	push	r14
    301a:	ff 92       	push	r15
    301c:	0f 93       	push	r16
    301e:	1f 93       	push	r17
    3020:	cf 93       	push	r28
    3022:	df 93       	push	r29
    3024:	00 d0       	rcall	.+0      	; 0x3026 <mmc_disk_initialize+0x10>
    3026:	00 d0       	rcall	.+0      	; 0x3028 <mmc_disk_initialize+0x12>
    3028:	cd b7       	in	r28, 0x3d	; 61
    302a:	de b7       	in	r29, 0x3e	; 62
    302c:	83 eb       	ldi	r24, 0xB3	; 179
    302e:	90 e0       	ldi	r25, 0x00	; 0
    3030:	0e 94 a9 28 	call	0x5152	; 0x5152 <avrSerialPrint_P>
    3034:	84 e9       	ldi	r24, 0x94	; 148
    3036:	90 e0       	ldi	r25, 0x00	; 0
    3038:	0e 94 a9 28 	call	0x5152	; 0x5152 <avrSerialPrint_P>
    303c:	8a e0       	ldi	r24, 0x0A	; 10
    303e:	80 93 52 01 	sts	0x0152, r24	; 0x800152 <Timer1>
    3042:	80 91 52 01 	lds	r24, 0x0152	; 0x800152 <Timer1>
    3046:	81 11       	cpse	r24, r1
    3048:	fc cf       	rjmp	.-8      	; 0x3042 <mmc_disk_initialize+0x2c>
    304a:	80 91 00 01 	lds	r24, 0x0100	; 0x800100 <__data_start>
    304e:	81 fd       	sbrc	r24, 1
    3050:	9c c0       	rjmp	.+312    	; 0x318a <mmc_disk_initialize+0x174>
    3052:	84 ea       	ldi	r24, 0xA4	; 164
    3054:	90 e0       	ldi	r25, 0x00	; 0
    3056:	0e 94 a9 28 	call	0x5152	; 0x5152 <avrSerialPrint_P>
    305a:	84 b1       	in	r24, 0x04	; 4
    305c:	8a 62       	ori	r24, 0x2A	; 42
    305e:	84 b9       	out	0x04, r24	; 4
    3060:	24 98       	cbi	0x04, 4	; 4
    3062:	21 9a       	sbi	0x04, 1	; 4
    3064:	8c e1       	ldi	r24, 0x1C	; 28
    3066:	8c bd       	out	0x2c, r24	; 44
    3068:	8c b5       	in	r24, 0x2c	; 44
    306a:	80 64       	ori	r24, 0x40	; 64
    306c:	8c bd       	out	0x2c, r24	; 44
    306e:	21 98       	cbi	0x04, 1	; 4
    3070:	21 9a       	sbi	0x04, 1	; 4
    3072:	1a e0       	ldi	r17, 0x0A	; 10
    3074:	8f ef       	ldi	r24, 0xFF	; 255
    3076:	e9 de       	rcall	.-558    	; 0x2e4a <xchg_spi>
    3078:	11 50       	subi	r17, 0x01	; 1
    307a:	e1 f7       	brne	.-8      	; 0x3074 <mmc_disk_initialize+0x5e>
    307c:	40 e0       	ldi	r20, 0x00	; 0
    307e:	50 e0       	ldi	r21, 0x00	; 0
    3080:	ba 01       	movw	r22, r20
    3082:	80 e0       	ldi	r24, 0x00	; 0
    3084:	1b df       	rcall	.-458    	; 0x2ebc <send_cmd>
    3086:	81 30       	cpi	r24, 0x01	; 1
    3088:	09 f0       	breq	.+2      	; 0x308c <mmc_disk_initialize+0x76>
    308a:	6d c0       	rjmp	.+218    	; 0x3166 <mmc_disk_initialize+0x150>
    308c:	84 e6       	ldi	r24, 0x64	; 100
    308e:	80 93 52 01 	sts	0x0152, r24	; 0x800152 <Timer1>
    3092:	4a ea       	ldi	r20, 0xAA	; 170
    3094:	51 e0       	ldi	r21, 0x01	; 1
    3096:	60 e0       	ldi	r22, 0x00	; 0
    3098:	70 e0       	ldi	r23, 0x00	; 0
    309a:	88 e0       	ldi	r24, 0x08	; 8
    309c:	0f df       	rcall	.-482    	; 0x2ebc <send_cmd>
    309e:	81 30       	cpi	r24, 0x01	; 1
    30a0:	09 f0       	breq	.+2      	; 0x30a4 <mmc_disk_initialize+0x8e>
    30a2:	3c c0       	rjmp	.+120    	; 0x311c <mmc_disk_initialize+0x106>
    30a4:	8e 01       	movw	r16, r28
    30a6:	0f 5f       	subi	r16, 0xFF	; 255
    30a8:	1f 4f       	sbci	r17, 0xFF	; 255
    30aa:	78 01       	movw	r14, r16
    30ac:	84 e0       	ldi	r24, 0x04	; 4
    30ae:	d8 2e       	mov	r13, r24
    30b0:	d0 0e       	add	r13, r16
    30b2:	8f ef       	ldi	r24, 0xFF	; 255
    30b4:	ca de       	rcall	.-620    	; 0x2e4a <xchg_spi>
    30b6:	f7 01       	movw	r30, r14
    30b8:	81 93       	st	Z+, r24
    30ba:	7f 01       	movw	r14, r30
    30bc:	de 12       	cpse	r13, r30
    30be:	f9 cf       	rjmp	.-14     	; 0x30b2 <mmc_disk_initialize+0x9c>
    30c0:	8b 81       	ldd	r24, Y+3	; 0x03
    30c2:	81 30       	cpi	r24, 0x01	; 1
    30c4:	09 f0       	breq	.+2      	; 0x30c8 <mmc_disk_initialize+0xb2>
    30c6:	4f c0       	rjmp	.+158    	; 0x3166 <mmc_disk_initialize+0x150>
    30c8:	8c 81       	ldd	r24, Y+4	; 0x04
    30ca:	8a 3a       	cpi	r24, 0xAA	; 170
    30cc:	09 f0       	breq	.+2      	; 0x30d0 <mmc_disk_initialize+0xba>
    30ce:	4b c0       	rjmp	.+150    	; 0x3166 <mmc_disk_initialize+0x150>
    30d0:	80 91 52 01 	lds	r24, 0x0152	; 0x800152 <Timer1>
    30d4:	81 11       	cpse	r24, r1
    30d6:	06 c0       	rjmp	.+12     	; 0x30e4 <mmc_disk_initialize+0xce>
    30d8:	80 91 52 01 	lds	r24, 0x0152	; 0x800152 <Timer1>
    30dc:	88 23       	and	r24, r24
    30de:	09 f4       	brne	.+2      	; 0x30e2 <mmc_disk_initialize+0xcc>
    30e0:	42 c0       	rjmp	.+132    	; 0x3166 <mmc_disk_initialize+0x150>
    30e2:	09 c0       	rjmp	.+18     	; 0x30f6 <mmc_disk_initialize+0xe0>
    30e4:	40 e0       	ldi	r20, 0x00	; 0
    30e6:	50 e0       	ldi	r21, 0x00	; 0
    30e8:	60 e0       	ldi	r22, 0x00	; 0
    30ea:	70 e4       	ldi	r23, 0x40	; 64
    30ec:	89 ea       	ldi	r24, 0xA9	; 169
    30ee:	e6 de       	rcall	.-564    	; 0x2ebc <send_cmd>
    30f0:	81 11       	cpse	r24, r1
    30f2:	ee cf       	rjmp	.-36     	; 0x30d0 <mmc_disk_initialize+0xba>
    30f4:	f1 cf       	rjmp	.-30     	; 0x30d8 <mmc_disk_initialize+0xc2>
    30f6:	40 e0       	ldi	r20, 0x00	; 0
    30f8:	50 e0       	ldi	r21, 0x00	; 0
    30fa:	ba 01       	movw	r22, r20
    30fc:	8a e3       	ldi	r24, 0x3A	; 58
    30fe:	de de       	rcall	.-580    	; 0x2ebc <send_cmd>
    3100:	81 11       	cpse	r24, r1
    3102:	31 c0       	rjmp	.+98     	; 0x3166 <mmc_disk_initialize+0x150>
    3104:	8f ef       	ldi	r24, 0xFF	; 255
    3106:	a1 de       	rcall	.-702    	; 0x2e4a <xchg_spi>
    3108:	f8 01       	movw	r30, r16
    310a:	81 93       	st	Z+, r24
    310c:	8f 01       	movw	r16, r30
    310e:	de 12       	cpse	r13, r30
    3110:	f9 cf       	rjmp	.-14     	; 0x3104 <mmc_disk_initialize+0xee>
    3112:	89 81       	ldd	r24, Y+1	; 0x01
    3114:	86 fd       	sbrc	r24, 6
    3116:	29 c0       	rjmp	.+82     	; 0x316a <mmc_disk_initialize+0x154>
    3118:	14 e0       	ldi	r17, 0x04	; 4
    311a:	28 c0       	rjmp	.+80     	; 0x316c <mmc_disk_initialize+0x156>
    311c:	40 e0       	ldi	r20, 0x00	; 0
    311e:	50 e0       	ldi	r21, 0x00	; 0
    3120:	ba 01       	movw	r22, r20
    3122:	89 ea       	ldi	r24, 0xA9	; 169
    3124:	cb de       	rcall	.-618    	; 0x2ebc <send_cmd>
    3126:	82 30       	cpi	r24, 0x02	; 2
    3128:	18 f0       	brcs	.+6      	; 0x3130 <mmc_disk_initialize+0x11a>
    312a:	11 e0       	ldi	r17, 0x01	; 1
    312c:	01 e0       	ldi	r16, 0x01	; 1
    312e:	02 c0       	rjmp	.+4      	; 0x3134 <mmc_disk_initialize+0x11e>
    3130:	12 e0       	ldi	r17, 0x02	; 2
    3132:	09 ea       	ldi	r16, 0xA9	; 169
    3134:	80 91 52 01 	lds	r24, 0x0152	; 0x800152 <Timer1>
    3138:	81 11       	cpse	r24, r1
    313a:	05 c0       	rjmp	.+10     	; 0x3146 <mmc_disk_initialize+0x130>
    313c:	80 91 52 01 	lds	r24, 0x0152	; 0x800152 <Timer1>
    3140:	88 23       	and	r24, r24
    3142:	89 f0       	breq	.+34     	; 0x3166 <mmc_disk_initialize+0x150>
    3144:	08 c0       	rjmp	.+16     	; 0x3156 <mmc_disk_initialize+0x140>
    3146:	40 e0       	ldi	r20, 0x00	; 0
    3148:	50 e0       	ldi	r21, 0x00	; 0
    314a:	ba 01       	movw	r22, r20
    314c:	80 2f       	mov	r24, r16
    314e:	b6 de       	rcall	.-660    	; 0x2ebc <send_cmd>
    3150:	81 11       	cpse	r24, r1
    3152:	f0 cf       	rjmp	.-32     	; 0x3134 <mmc_disk_initialize+0x11e>
    3154:	f3 cf       	rjmp	.-26     	; 0x313c <mmc_disk_initialize+0x126>
    3156:	40 e0       	ldi	r20, 0x00	; 0
    3158:	52 e0       	ldi	r21, 0x02	; 2
    315a:	60 e0       	ldi	r22, 0x00	; 0
    315c:	70 e0       	ldi	r23, 0x00	; 0
    315e:	80 e1       	ldi	r24, 0x10	; 16
    3160:	ad de       	rcall	.-678    	; 0x2ebc <send_cmd>
    3162:	88 23       	and	r24, r24
    3164:	19 f0       	breq	.+6      	; 0x316c <mmc_disk_initialize+0x156>
    3166:	10 e0       	ldi	r17, 0x00	; 0
    3168:	01 c0       	rjmp	.+2      	; 0x316c <mmc_disk_initialize+0x156>
    316a:	1c e0       	ldi	r17, 0x0C	; 12
    316c:	10 93 50 01 	sts	0x0150, r17	; 0x800150 <CardType>
    3170:	88 de       	rcall	.-752    	; 0x2e82 <deselect>
    3172:	11 23       	and	r17, r17
    3174:	31 f0       	breq	.+12     	; 0x3182 <mmc_disk_initialize+0x16c>
    3176:	80 91 00 01 	lds	r24, 0x0100	; 0x800100 <__data_start>
    317a:	8e 7f       	andi	r24, 0xFE	; 254
    317c:	80 93 00 01 	sts	0x0100, r24	; 0x800100 <__data_start>
    3180:	04 c0       	rjmp	.+8      	; 0x318a <mmc_disk_initialize+0x174>
    3182:	84 e9       	ldi	r24, 0x94	; 148
    3184:	90 e0       	ldi	r25, 0x00	; 0
    3186:	0e 94 a9 28 	call	0x5152	; 0x5152 <avrSerialPrint_P>
    318a:	80 91 00 01 	lds	r24, 0x0100	; 0x800100 <__data_start>
    318e:	0f 90       	pop	r0
    3190:	0f 90       	pop	r0
    3192:	0f 90       	pop	r0
    3194:	0f 90       	pop	r0
    3196:	df 91       	pop	r29
    3198:	cf 91       	pop	r28
    319a:	1f 91       	pop	r17
    319c:	0f 91       	pop	r16
    319e:	ff 90       	pop	r15
    31a0:	ef 90       	pop	r14
    31a2:	df 90       	pop	r13
    31a4:	08 95       	ret

000031a6 <mmc_disk_status>:
    31a6:	80 91 00 01 	lds	r24, 0x0100	; 0x800100 <__data_start>
    31aa:	08 95       	ret

000031ac <mmc_disk_read>:
    31ac:	ef 92       	push	r14
    31ae:	ff 92       	push	r15
    31b0:	1f 93       	push	r17
    31b2:	cf 93       	push	r28
    31b4:	df 93       	push	r29
    31b6:	7c 01       	movw	r14, r24
    31b8:	e9 01       	movw	r28, r18
    31ba:	20 97       	sbiw	r28, 0x00	; 0
    31bc:	81 f1       	breq	.+96     	; 0x321e <mmc_disk_read+0x72>
    31be:	80 91 00 01 	lds	r24, 0x0100	; 0x800100 <__data_start>
    31c2:	80 fd       	sbrc	r24, 0
    31c4:	2e c0       	rjmp	.+92     	; 0x3222 <mmc_disk_read+0x76>
    31c6:	80 91 50 01 	lds	r24, 0x0150	; 0x800150 <CardType>
    31ca:	83 fd       	sbrc	r24, 3
    31cc:	07 c0       	rjmp	.+14     	; 0x31dc <mmc_disk_read+0x30>
    31ce:	89 e0       	ldi	r24, 0x09	; 9
    31d0:	44 0f       	add	r20, r20
    31d2:	55 1f       	adc	r21, r21
    31d4:	66 1f       	adc	r22, r22
    31d6:	77 1f       	adc	r23, r23
    31d8:	8a 95       	dec	r24
    31da:	d1 f7       	brne	.-12     	; 0x31d0 <mmc_disk_read+0x24>
    31dc:	c2 30       	cpi	r28, 0x02	; 2
    31de:	d1 05       	cpc	r29, r1
    31e0:	10 f4       	brcc	.+4      	; 0x31e6 <mmc_disk_read+0x3a>
    31e2:	11 e1       	ldi	r17, 0x11	; 17
    31e4:	01 c0       	rjmp	.+2      	; 0x31e8 <mmc_disk_read+0x3c>
    31e6:	12 e1       	ldi	r17, 0x12	; 18
    31e8:	81 2f       	mov	r24, r17
    31ea:	68 de       	rcall	.-816    	; 0x2ebc <send_cmd>
    31ec:	81 11       	cpse	r24, r1
    31ee:	11 c0       	rjmp	.+34     	; 0x3212 <mmc_disk_read+0x66>
    31f0:	60 e0       	ldi	r22, 0x00	; 0
    31f2:	72 e0       	ldi	r23, 0x02	; 2
    31f4:	c7 01       	movw	r24, r14
    31f6:	a5 de       	rcall	.-694    	; 0x2f42 <rcvr_datablock>
    31f8:	89 2b       	or	r24, r25
    31fa:	21 f0       	breq	.+8      	; 0x3204 <mmc_disk_read+0x58>
    31fc:	8e ef       	ldi	r24, 0xFE	; 254
    31fe:	f8 1a       	sub	r15, r24
    3200:	21 97       	sbiw	r28, 0x01	; 1
    3202:	b1 f7       	brne	.-20     	; 0x31f0 <mmc_disk_read+0x44>
    3204:	12 31       	cpi	r17, 0x12	; 18
    3206:	29 f4       	brne	.+10     	; 0x3212 <mmc_disk_read+0x66>
    3208:	40 e0       	ldi	r20, 0x00	; 0
    320a:	50 e0       	ldi	r21, 0x00	; 0
    320c:	ba 01       	movw	r22, r20
    320e:	8c e0       	ldi	r24, 0x0C	; 12
    3210:	55 de       	rcall	.-854    	; 0x2ebc <send_cmd>
    3212:	37 de       	rcall	.-914    	; 0x2e82 <deselect>
    3214:	81 e0       	ldi	r24, 0x01	; 1
    3216:	cd 2b       	or	r28, r29
    3218:	29 f4       	brne	.+10     	; 0x3224 <mmc_disk_read+0x78>
    321a:	80 e0       	ldi	r24, 0x00	; 0
    321c:	03 c0       	rjmp	.+6      	; 0x3224 <mmc_disk_read+0x78>
    321e:	84 e0       	ldi	r24, 0x04	; 4
    3220:	01 c0       	rjmp	.+2      	; 0x3224 <mmc_disk_read+0x78>
    3222:	83 e0       	ldi	r24, 0x03	; 3
    3224:	df 91       	pop	r29
    3226:	cf 91       	pop	r28
    3228:	1f 91       	pop	r17
    322a:	ff 90       	pop	r15
    322c:	ef 90       	pop	r14
    322e:	08 95       	ret

00003230 <mmc_disk_write>:
    3230:	cf 92       	push	r12
    3232:	df 92       	push	r13
    3234:	ef 92       	push	r14
    3236:	ff 92       	push	r15
    3238:	0f 93       	push	r16
    323a:	1f 93       	push	r17
    323c:	cf 93       	push	r28
    323e:	df 93       	push	r29
    3240:	8c 01       	movw	r16, r24
    3242:	6a 01       	movw	r12, r20
    3244:	7b 01       	movw	r14, r22
    3246:	e9 01       	movw	r28, r18
    3248:	20 97       	sbiw	r28, 0x00	; 0
    324a:	09 f4       	brne	.+2      	; 0x324e <mmc_disk_write+0x1e>
    324c:	4a c0       	rjmp	.+148    	; 0x32e2 <mmc_disk_write+0xb2>
    324e:	80 91 00 01 	lds	r24, 0x0100	; 0x800100 <__data_start>
    3252:	80 fd       	sbrc	r24, 0
    3254:	48 c0       	rjmp	.+144    	; 0x32e6 <mmc_disk_write+0xb6>
    3256:	80 91 00 01 	lds	r24, 0x0100	; 0x800100 <__data_start>
    325a:	82 fd       	sbrc	r24, 2
    325c:	46 c0       	rjmp	.+140    	; 0x32ea <mmc_disk_write+0xba>
    325e:	80 91 50 01 	lds	r24, 0x0150	; 0x800150 <CardType>
    3262:	83 fd       	sbrc	r24, 3
    3264:	07 c0       	rjmp	.+14     	; 0x3274 <mmc_disk_write+0x44>
    3266:	99 e0       	ldi	r25, 0x09	; 9
    3268:	cc 0c       	add	r12, r12
    326a:	dd 1c       	adc	r13, r13
    326c:	ee 1c       	adc	r14, r14
    326e:	ff 1c       	adc	r15, r15
    3270:	9a 95       	dec	r25
    3272:	d1 f7       	brne	.-12     	; 0x3268 <mmc_disk_write+0x38>
    3274:	c1 30       	cpi	r28, 0x01	; 1
    3276:	d1 05       	cpc	r29, r1
    3278:	89 f4       	brne	.+34     	; 0x329c <mmc_disk_write+0x6c>
    327a:	b7 01       	movw	r22, r14
    327c:	a6 01       	movw	r20, r12
    327e:	88 e1       	ldi	r24, 0x18	; 24
    3280:	1d de       	rcall	.-966    	; 0x2ebc <send_cmd>
    3282:	81 11       	cpse	r24, r1
    3284:	28 c0       	rjmp	.+80     	; 0x32d6 <mmc_disk_write+0xa6>
    3286:	6e ef       	ldi	r22, 0xFE	; 254
    3288:	c8 01       	movw	r24, r16
    328a:	90 de       	rcall	.-736    	; 0x2fac <xmit_datablock>
    328c:	31 e0       	ldi	r19, 0x01	; 1
    328e:	20 e0       	ldi	r18, 0x00	; 0
    3290:	89 2b       	or	r24, r25
    3292:	09 f0       	breq	.+2      	; 0x3296 <mmc_disk_write+0x66>
    3294:	30 e0       	ldi	r19, 0x00	; 0
    3296:	c3 2f       	mov	r28, r19
    3298:	d2 2f       	mov	r29, r18
    329a:	1d c0       	rjmp	.+58     	; 0x32d6 <mmc_disk_write+0xa6>
    329c:	86 70       	andi	r24, 0x06	; 6
    329e:	29 f0       	breq	.+10     	; 0x32aa <mmc_disk_write+0x7a>
    32a0:	ae 01       	movw	r20, r28
    32a2:	60 e0       	ldi	r22, 0x00	; 0
    32a4:	70 e0       	ldi	r23, 0x00	; 0
    32a6:	87 e9       	ldi	r24, 0x97	; 151
    32a8:	09 de       	rcall	.-1006   	; 0x2ebc <send_cmd>
    32aa:	b7 01       	movw	r22, r14
    32ac:	a6 01       	movw	r20, r12
    32ae:	89 e1       	ldi	r24, 0x19	; 25
    32b0:	05 de       	rcall	.-1014   	; 0x2ebc <send_cmd>
    32b2:	81 11       	cpse	r24, r1
    32b4:	10 c0       	rjmp	.+32     	; 0x32d6 <mmc_disk_write+0xa6>
    32b6:	6c ef       	ldi	r22, 0xFC	; 252
    32b8:	c8 01       	movw	r24, r16
    32ba:	78 de       	rcall	.-784    	; 0x2fac <xmit_datablock>
    32bc:	89 2b       	or	r24, r25
    32be:	19 f0       	breq	.+6      	; 0x32c6 <mmc_disk_write+0x96>
    32c0:	1e 5f       	subi	r17, 0xFE	; 254
    32c2:	21 97       	sbiw	r28, 0x01	; 1
    32c4:	c1 f7       	brne	.-16     	; 0x32b6 <mmc_disk_write+0x86>
    32c6:	6d ef       	ldi	r22, 0xFD	; 253
    32c8:	80 e0       	ldi	r24, 0x00	; 0
    32ca:	90 e0       	ldi	r25, 0x00	; 0
    32cc:	6f de       	rcall	.-802    	; 0x2fac <xmit_datablock>
    32ce:	89 2b       	or	r24, r25
    32d0:	11 f4       	brne	.+4      	; 0x32d6 <mmc_disk_write+0xa6>
    32d2:	c1 e0       	ldi	r28, 0x01	; 1
    32d4:	d0 e0       	ldi	r29, 0x00	; 0
    32d6:	d5 dd       	rcall	.-1110   	; 0x2e82 <deselect>
    32d8:	81 e0       	ldi	r24, 0x01	; 1
    32da:	cd 2b       	or	r28, r29
    32dc:	39 f4       	brne	.+14     	; 0x32ec <mmc_disk_write+0xbc>
    32de:	80 e0       	ldi	r24, 0x00	; 0
    32e0:	05 c0       	rjmp	.+10     	; 0x32ec <mmc_disk_write+0xbc>
    32e2:	84 e0       	ldi	r24, 0x04	; 4
    32e4:	03 c0       	rjmp	.+6      	; 0x32ec <mmc_disk_write+0xbc>
    32e6:	83 e0       	ldi	r24, 0x03	; 3
    32e8:	01 c0       	rjmp	.+2      	; 0x32ec <mmc_disk_write+0xbc>
    32ea:	82 e0       	ldi	r24, 0x02	; 2
    32ec:	df 91       	pop	r29
    32ee:	cf 91       	pop	r28
    32f0:	1f 91       	pop	r17
    32f2:	0f 91       	pop	r16
    32f4:	ff 90       	pop	r15
    32f6:	ef 90       	pop	r14
    32f8:	df 90       	pop	r13
    32fa:	cf 90       	pop	r12
    32fc:	08 95       	ret

000032fe <mmc_disk_ioctl>:
    32fe:	cf 92       	push	r12
    3300:	df 92       	push	r13
    3302:	ef 92       	push	r14
    3304:	ff 92       	push	r15
    3306:	0f 93       	push	r16
    3308:	1f 93       	push	r17
    330a:	cf 93       	push	r28
    330c:	df 93       	push	r29
    330e:	cd b7       	in	r28, 0x3d	; 61
    3310:	de b7       	in	r29, 0x3e	; 62
    3312:	60 97       	sbiw	r28, 0x10	; 16
    3314:	0f b6       	in	r0, 0x3f	; 63
    3316:	f8 94       	cli
    3318:	de bf       	out	0x3e, r29	; 62
    331a:	0f be       	out	0x3f, r0	; 63
    331c:	cd bf       	out	0x3d, r28	; 61
    331e:	90 91 00 01 	lds	r25, 0x0100	; 0x800100 <__data_start>
    3322:	90 fd       	sbrc	r25, 0
    3324:	8a c1       	rjmp	.+788    	; 0x363a <mmc_disk_ioctl+0x33c>
    3326:	8b 01       	movw	r16, r22
    3328:	87 30       	cpi	r24, 0x07	; 7
    332a:	09 f4       	brne	.+2      	; 0x332e <mmc_disk_ioctl+0x30>
    332c:	7c c1       	rjmp	.+760    	; 0x3626 <mmc_disk_ioctl+0x328>
    332e:	50 f4       	brcc	.+20     	; 0x3344 <mmc_disk_ioctl+0x46>
    3330:	81 30       	cpi	r24, 0x01	; 1
    3332:	01 f1       	breq	.+64     	; 0x3374 <mmc_disk_ioctl+0x76>
    3334:	e8 f0       	brcs	.+58     	; 0x3370 <mmc_disk_ioctl+0x72>
    3336:	83 30       	cpi	r24, 0x03	; 3
    3338:	09 f4       	brne	.+2      	; 0x333c <mmc_disk_ioctl+0x3e>
    333a:	81 c0       	rjmp	.+258    	; 0x343e <mmc_disk_ioctl+0x140>
    333c:	84 30       	cpi	r24, 0x04	; 4
    333e:	09 f4       	brne	.+2      	; 0x3342 <mmc_disk_ioctl+0x44>
    3340:	f0 c0       	rjmp	.+480    	; 0x3522 <mmc_disk_ioctl+0x224>
    3342:	7d c1       	rjmp	.+762    	; 0x363e <mmc_disk_ioctl+0x340>
    3344:	84 33       	cpi	r24, 0x34	; 52
    3346:	09 f4       	brne	.+2      	; 0x334a <mmc_disk_ioctl+0x4c>
    3348:	3c c1       	rjmp	.+632    	; 0x35c2 <mmc_disk_ioctl+0x2c4>
    334a:	58 f4       	brcc	.+22     	; 0x3362 <mmc_disk_ioctl+0x64>
    334c:	82 33       	cpi	r24, 0x32	; 50
    334e:	09 f4       	brne	.+2      	; 0x3352 <mmc_disk_ioctl+0x54>
    3350:	32 c1       	rjmp	.+612    	; 0x35b6 <mmc_disk_ioctl+0x2b8>
    3352:	83 33       	cpi	r24, 0x33	; 51
    3354:	09 f0       	breq	.+2      	; 0x3358 <mmc_disk_ioctl+0x5a>
    3356:	73 c1       	rjmp	.+742    	; 0x363e <mmc_disk_ioctl+0x340>
    3358:	40 e0       	ldi	r20, 0x00	; 0
    335a:	50 e0       	ldi	r21, 0x00	; 0
    335c:	ba 01       	movw	r22, r20
    335e:	89 e0       	ldi	r24, 0x09	; 9
    3360:	34 c1       	rjmp	.+616    	; 0x35ca <mmc_disk_ioctl+0x2cc>
    3362:	85 33       	cpi	r24, 0x35	; 53
    3364:	09 f4       	brne	.+2      	; 0x3368 <mmc_disk_ioctl+0x6a>
    3366:	37 c1       	rjmp	.+622    	; 0x35d6 <mmc_disk_ioctl+0x2d8>
    3368:	86 33       	cpi	r24, 0x36	; 54
    336a:	09 f4       	brne	.+2      	; 0x336e <mmc_disk_ioctl+0x70>
    336c:	48 c1       	rjmp	.+656    	; 0x35fe <mmc_disk_ioctl+0x300>
    336e:	67 c1       	rjmp	.+718    	; 0x363e <mmc_disk_ioctl+0x340>
    3370:	8b dd       	rcall	.-1258   	; 0x2e88 <select>
    3372:	52 c1       	rjmp	.+676    	; 0x3618 <mmc_disk_ioctl+0x31a>
    3374:	40 e0       	ldi	r20, 0x00	; 0
    3376:	50 e0       	ldi	r21, 0x00	; 0
    3378:	ba 01       	movw	r22, r20
    337a:	89 e0       	ldi	r24, 0x09	; 9
    337c:	9f dd       	rcall	.-1218   	; 0x2ebc <send_cmd>
    337e:	81 11       	cpse	r24, r1
    3380:	4f c1       	rjmp	.+670    	; 0x3620 <mmc_disk_ioctl+0x322>
    3382:	60 e1       	ldi	r22, 0x10	; 16
    3384:	70 e0       	ldi	r23, 0x00	; 0
    3386:	ce 01       	movw	r24, r28
    3388:	01 96       	adiw	r24, 0x01	; 1
    338a:	db dd       	rcall	.-1098   	; 0x2f42 <rcvr_datablock>
    338c:	89 2b       	or	r24, r25
    338e:	09 f4       	brne	.+2      	; 0x3392 <mmc_disk_ioctl+0x94>
    3390:	47 c1       	rjmp	.+654    	; 0x3620 <mmc_disk_ioctl+0x322>
    3392:	99 81       	ldd	r25, Y+1	; 0x01
    3394:	92 95       	swap	r25
    3396:	96 95       	lsr	r25
    3398:	96 95       	lsr	r25
    339a:	93 70       	andi	r25, 0x03	; 3
    339c:	88 85       	ldd	r24, Y+8	; 0x08
    339e:	49 85       	ldd	r20, Y+9	; 0x09
    33a0:	2a 85       	ldd	r18, Y+10	; 0x0a
    33a2:	91 30       	cpi	r25, 0x01	; 1
    33a4:	e1 f4       	brne	.+56     	; 0x33de <mmc_disk_ioctl+0xe0>
    33a6:	8f 73       	andi	r24, 0x3F	; 63
    33a8:	90 e0       	ldi	r25, 0x00	; 0
    33aa:	a0 e0       	ldi	r26, 0x00	; 0
    33ac:	b0 e0       	ldi	r27, 0x00	; 0
    33ae:	dc 01       	movw	r26, r24
    33b0:	99 27       	eor	r25, r25
    33b2:	88 27       	eor	r24, r24
    33b4:	01 96       	adiw	r24, 0x01	; 1
    33b6:	a1 1d       	adc	r26, r1
    33b8:	b1 1d       	adc	r27, r1
    33ba:	50 e0       	ldi	r21, 0x00	; 0
    33bc:	54 2f       	mov	r21, r20
    33be:	44 27       	eor	r20, r20
    33c0:	ba 01       	movw	r22, r20
    33c2:	62 0f       	add	r22, r18
    33c4:	71 1d       	adc	r23, r1
    33c6:	86 0f       	add	r24, r22
    33c8:	97 1f       	adc	r25, r23
    33ca:	a1 1d       	adc	r26, r1
    33cc:	b1 1d       	adc	r27, r1
    33ce:	fa e0       	ldi	r31, 0x0A	; 10
    33d0:	88 0f       	add	r24, r24
    33d2:	99 1f       	adc	r25, r25
    33d4:	aa 1f       	adc	r26, r26
    33d6:	bb 1f       	adc	r27, r27
    33d8:	fa 95       	dec	r31
    33da:	d1 f7       	brne	.-12     	; 0x33d0 <mmc_disk_ioctl+0xd2>
    33dc:	29 c0       	rjmp	.+82     	; 0x3430 <mmc_disk_ioctl+0x132>
    33de:	42 95       	swap	r20
    33e0:	46 95       	lsr	r20
    33e2:	46 95       	lsr	r20
    33e4:	43 70       	andi	r20, 0x03	; 3
    33e6:	f4 e0       	ldi	r31, 0x04	; 4
    33e8:	8f 9f       	mul	r24, r31
    33ea:	c0 01       	movw	r24, r0
    33ec:	11 24       	eor	r1, r1
    33ee:	84 0f       	add	r24, r20
    33f0:	91 1d       	adc	r25, r1
    33f2:	01 96       	adiw	r24, 0x01	; 1
    33f4:	4f 81       	ldd	r20, Y+7	; 0x07
    33f6:	43 70       	andi	r20, 0x03	; 3
    33f8:	50 e0       	ldi	r21, 0x00	; 0
    33fa:	54 2f       	mov	r21, r20
    33fc:	44 27       	eor	r20, r20
    33fe:	55 0f       	add	r21, r21
    3400:	55 0f       	add	r21, r21
    3402:	84 0f       	add	r24, r20
    3404:	95 1f       	adc	r25, r21
    3406:	a0 e0       	ldi	r26, 0x00	; 0
    3408:	b0 e0       	ldi	r27, 0x00	; 0
    340a:	3e 81       	ldd	r19, Y+6	; 0x06
    340c:	43 2f       	mov	r20, r19
    340e:	4f 70       	andi	r20, 0x0F	; 15
    3410:	3b 85       	ldd	r19, Y+11	; 0x0b
    3412:	33 1f       	adc	r19, r19
    3414:	33 27       	eor	r19, r19
    3416:	33 1f       	adc	r19, r19
    3418:	34 0f       	add	r19, r20
    341a:	23 70       	andi	r18, 0x03	; 3
    341c:	22 0f       	add	r18, r18
    341e:	23 0f       	add	r18, r19
    3420:	27 50       	subi	r18, 0x07	; 7
    3422:	04 c0       	rjmp	.+8      	; 0x342c <mmc_disk_ioctl+0x12e>
    3424:	88 0f       	add	r24, r24
    3426:	99 1f       	adc	r25, r25
    3428:	aa 1f       	adc	r26, r26
    342a:	bb 1f       	adc	r27, r27
    342c:	2a 95       	dec	r18
    342e:	d2 f7       	brpl	.-12     	; 0x3424 <mmc_disk_ioctl+0x126>
    3430:	f8 01       	movw	r30, r16
    3432:	80 83       	st	Z, r24
    3434:	91 83       	std	Z+1, r25	; 0x01
    3436:	a2 83       	std	Z+2, r26	; 0x02
    3438:	b3 83       	std	Z+3, r27	; 0x03
    343a:	10 e0       	ldi	r17, 0x00	; 0
    343c:	f2 c0       	rjmp	.+484    	; 0x3622 <mmc_disk_ioctl+0x324>
    343e:	f0 90 50 01 	lds	r15, 0x0150	; 0x800150 <CardType>
    3442:	40 e0       	ldi	r20, 0x00	; 0
    3444:	50 e0       	ldi	r21, 0x00	; 0
    3446:	ba 01       	movw	r22, r20
    3448:	f2 fe       	sbrs	r15, 2
    344a:	1d c0       	rjmp	.+58     	; 0x3486 <mmc_disk_ioctl+0x188>
    344c:	8d e8       	ldi	r24, 0x8D	; 141
    344e:	36 dd       	rcall	.-1428   	; 0x2ebc <send_cmd>
    3450:	81 11       	cpse	r24, r1
    3452:	e6 c0       	rjmp	.+460    	; 0x3620 <mmc_disk_ioctl+0x322>
    3454:	8f ef       	ldi	r24, 0xFF	; 255
    3456:	f9 dc       	rcall	.-1550   	; 0x2e4a <xchg_spi>
    3458:	60 e1       	ldi	r22, 0x10	; 16
    345a:	70 e0       	ldi	r23, 0x00	; 0
    345c:	ce 01       	movw	r24, r28
    345e:	01 96       	adiw	r24, 0x01	; 1
    3460:	70 dd       	rcall	.-1312   	; 0x2f42 <rcvr_datablock>
    3462:	89 2b       	or	r24, r25
    3464:	09 f4       	brne	.+2      	; 0x3468 <mmc_disk_ioctl+0x16a>
    3466:	dc c0       	rjmp	.+440    	; 0x3620 <mmc_disk_ioctl+0x322>
    3468:	50 e3       	ldi	r21, 0x30	; 48
    346a:	f5 2e       	mov	r15, r21
    346c:	8f ef       	ldi	r24, 0xFF	; 255
    346e:	ed dc       	rcall	.-1574   	; 0x2e4a <xchg_spi>
    3470:	fa 94       	dec	r15
    3472:	f1 10       	cpse	r15, r1
    3474:	fb cf       	rjmp	.-10     	; 0x346c <mmc_disk_ioctl+0x16e>
    3476:	2b 85       	ldd	r18, Y+11	; 0x0b
    3478:	22 95       	swap	r18
    347a:	2f 70       	andi	r18, 0x0F	; 15
    347c:	80 e1       	ldi	r24, 0x10	; 16
    347e:	90 e0       	ldi	r25, 0x00	; 0
    3480:	a0 e0       	ldi	r26, 0x00	; 0
    3482:	b0 e0       	ldi	r27, 0x00	; 0
    3484:	ce cf       	rjmp	.-100    	; 0x3422 <mmc_disk_ioctl+0x124>
    3486:	89 e0       	ldi	r24, 0x09	; 9
    3488:	19 dd       	rcall	.-1486   	; 0x2ebc <send_cmd>
    348a:	81 11       	cpse	r24, r1
    348c:	c9 c0       	rjmp	.+402    	; 0x3620 <mmc_disk_ioctl+0x322>
    348e:	60 e1       	ldi	r22, 0x10	; 16
    3490:	70 e0       	ldi	r23, 0x00	; 0
    3492:	ce 01       	movw	r24, r28
    3494:	01 96       	adiw	r24, 0x01	; 1
    3496:	55 dd       	rcall	.-1366   	; 0x2f42 <rcvr_datablock>
    3498:	89 2b       	or	r24, r25
    349a:	09 f4       	brne	.+2      	; 0x349e <mmc_disk_ioctl+0x1a0>
    349c:	c1 c0       	rjmp	.+386    	; 0x3620 <mmc_disk_ioctl+0x322>
    349e:	8b 85       	ldd	r24, Y+11	; 0x0b
    34a0:	2c 85       	ldd	r18, Y+12	; 0x0c
    34a2:	f1 fe       	sbrs	r15, 1
    34a4:	1f c0       	rjmp	.+62     	; 0x34e4 <mmc_disk_ioctl+0x1e6>
    34a6:	22 1f       	adc	r18, r18
    34a8:	22 27       	eor	r18, r18
    34aa:	22 1f       	adc	r18, r18
    34ac:	42 2f       	mov	r20, r18
    34ae:	50 e0       	ldi	r21, 0x00	; 0
    34b0:	4f 5f       	subi	r20, 0xFF	; 255
    34b2:	5f 4f       	sbci	r21, 0xFF	; 255
    34b4:	8f 73       	andi	r24, 0x3F	; 63
    34b6:	48 0f       	add	r20, r24
    34b8:	51 1d       	adc	r21, r1
    34ba:	48 0f       	add	r20, r24
    34bc:	51 1d       	adc	r21, r1
    34be:	8e 85       	ldd	r24, Y+14	; 0x0e
    34c0:	82 95       	swap	r24
    34c2:	86 95       	lsr	r24
    34c4:	86 95       	lsr	r24
    34c6:	83 70       	andi	r24, 0x03	; 3
    34c8:	81 50       	subi	r24, 0x01	; 1
    34ca:	02 c0       	rjmp	.+4      	; 0x34d0 <mmc_disk_ioctl+0x1d2>
    34cc:	44 0f       	add	r20, r20
    34ce:	55 1f       	adc	r21, r21
    34d0:	8a 95       	dec	r24
    34d2:	e2 f7       	brpl	.-8      	; 0x34cc <mmc_disk_ioctl+0x1ce>
    34d4:	60 e0       	ldi	r22, 0x00	; 0
    34d6:	70 e0       	ldi	r23, 0x00	; 0
    34d8:	f8 01       	movw	r30, r16
    34da:	40 83       	st	Z, r20
    34dc:	51 83       	std	Z+1, r21	; 0x01
    34de:	62 83       	std	Z+2, r22	; 0x02
    34e0:	73 83       	std	Z+3, r23	; 0x03
    34e2:	ab cf       	rjmp	.-170    	; 0x343a <mmc_disk_ioctl+0x13c>
    34e4:	92 2f       	mov	r25, r18
    34e6:	93 70       	andi	r25, 0x03	; 3
    34e8:	22 95       	swap	r18
    34ea:	26 95       	lsr	r18
    34ec:	27 70       	andi	r18, 0x07	; 7
    34ee:	30 e0       	ldi	r19, 0x00	; 0
    34f0:	f8 e0       	ldi	r31, 0x08	; 8
    34f2:	9f 9f       	mul	r25, r31
    34f4:	20 0d       	add	r18, r0
    34f6:	31 1d       	adc	r19, r1
    34f8:	11 24       	eor	r1, r1
    34fa:	2f 5f       	subi	r18, 0xFF	; 255
    34fc:	3f 4f       	sbci	r19, 0xFF	; 255
    34fe:	8c 77       	andi	r24, 0x7C	; 124
    3500:	90 e0       	ldi	r25, 0x00	; 0
    3502:	95 95       	asr	r25
    3504:	87 95       	ror	r24
    3506:	95 95       	asr	r25
    3508:	87 95       	ror	r24
    350a:	01 96       	adiw	r24, 0x01	; 1
    350c:	28 9f       	mul	r18, r24
    350e:	a0 01       	movw	r20, r0
    3510:	29 9f       	mul	r18, r25
    3512:	50 0d       	add	r21, r0
    3514:	38 9f       	mul	r19, r24
    3516:	50 0d       	add	r21, r0
    3518:	11 24       	eor	r1, r1
    351a:	ca 01       	movw	r24, r20
    351c:	a0 e0       	ldi	r26, 0x00	; 0
    351e:	b0 e0       	ldi	r27, 0x00	; 0
    3520:	87 cf       	rjmp	.-242    	; 0x3430 <mmc_disk_ioctl+0x132>
    3522:	80 91 50 01 	lds	r24, 0x0150	; 0x800150 <CardType>
    3526:	86 70       	andi	r24, 0x06	; 6
    3528:	11 f4       	brne	.+4      	; 0x352e <mmc_disk_ioctl+0x230>
    352a:	11 e0       	ldi	r17, 0x01	; 1
    352c:	89 c0       	rjmp	.+274    	; 0x3640 <mmc_disk_ioctl+0x342>
    352e:	be 01       	movw	r22, r28
    3530:	6f 5f       	subi	r22, 0xFF	; 255
    3532:	7f 4f       	sbci	r23, 0xFF	; 255
    3534:	83 e3       	ldi	r24, 0x33	; 51
    3536:	e3 de       	rcall	.-570    	; 0x32fe <mmc_disk_ioctl>
    3538:	81 11       	cpse	r24, r1
    353a:	f7 cf       	rjmp	.-18     	; 0x352a <mmc_disk_ioctl+0x22c>
    353c:	89 81       	ldd	r24, Y+1	; 0x01
    353e:	82 95       	swap	r24
    3540:	86 95       	lsr	r24
    3542:	86 95       	lsr	r24
    3544:	83 70       	andi	r24, 0x03	; 3
    3546:	19 f4       	brne	.+6      	; 0x354e <mmc_disk_ioctl+0x250>
    3548:	8b 85       	ldd	r24, Y+11	; 0x0b
    354a:	86 ff       	sbrs	r24, 6
    354c:	ee cf       	rjmp	.-36     	; 0x352a <mmc_disk_ioctl+0x22c>
    354e:	f8 01       	movw	r30, r16
    3550:	40 81       	ld	r20, Z
    3552:	51 81       	ldd	r21, Z+1	; 0x01
    3554:	62 81       	ldd	r22, Z+2	; 0x02
    3556:	73 81       	ldd	r23, Z+3	; 0x03
    3558:	c4 80       	ldd	r12, Z+4	; 0x04
    355a:	d5 80       	ldd	r13, Z+5	; 0x05
    355c:	e6 80       	ldd	r14, Z+6	; 0x06
    355e:	f7 80       	ldd	r15, Z+7	; 0x07
    3560:	80 91 50 01 	lds	r24, 0x0150	; 0x800150 <CardType>
    3564:	83 fd       	sbrc	r24, 3
    3566:	0e c0       	rjmp	.+28     	; 0x3584 <mmc_disk_ioctl+0x286>
    3568:	89 e0       	ldi	r24, 0x09	; 9
    356a:	44 0f       	add	r20, r20
    356c:	55 1f       	adc	r21, r21
    356e:	66 1f       	adc	r22, r22
    3570:	77 1f       	adc	r23, r23
    3572:	8a 95       	dec	r24
    3574:	d1 f7       	brne	.-12     	; 0x356a <mmc_disk_ioctl+0x26c>
    3576:	99 e0       	ldi	r25, 0x09	; 9
    3578:	cc 0c       	add	r12, r12
    357a:	dd 1c       	adc	r13, r13
    357c:	ee 1c       	adc	r14, r14
    357e:	ff 1c       	adc	r15, r15
    3580:	9a 95       	dec	r25
    3582:	d1 f7       	brne	.-12     	; 0x3578 <mmc_disk_ioctl+0x27a>
    3584:	80 e2       	ldi	r24, 0x20	; 32
    3586:	9a dc       	rcall	.-1740   	; 0x2ebc <send_cmd>
    3588:	81 11       	cpse	r24, r1
    358a:	cf cf       	rjmp	.-98     	; 0x352a <mmc_disk_ioctl+0x22c>
    358c:	b7 01       	movw	r22, r14
    358e:	a6 01       	movw	r20, r12
    3590:	81 e2       	ldi	r24, 0x21	; 33
    3592:	94 dc       	rcall	.-1752   	; 0x2ebc <send_cmd>
    3594:	81 11       	cpse	r24, r1
    3596:	c9 cf       	rjmp	.-110    	; 0x352a <mmc_disk_ioctl+0x22c>
    3598:	40 e0       	ldi	r20, 0x00	; 0
    359a:	50 e0       	ldi	r21, 0x00	; 0
    359c:	ba 01       	movw	r22, r20
    359e:	86 e2       	ldi	r24, 0x26	; 38
    35a0:	8d dc       	rcall	.-1766   	; 0x2ebc <send_cmd>
    35a2:	81 11       	cpse	r24, r1
    35a4:	c2 cf       	rjmp	.-124    	; 0x352a <mmc_disk_ioctl+0x22c>
    35a6:	80 e3       	ldi	r24, 0x30	; 48
    35a8:	95 e7       	ldi	r25, 0x75	; 117
    35aa:	55 dc       	rcall	.-1878   	; 0x2e56 <wait_ready>
    35ac:	11 e0       	ldi	r17, 0x01	; 1
    35ae:	89 2b       	or	r24, r25
    35b0:	09 f4       	brne	.+2      	; 0x35b4 <mmc_disk_ioctl+0x2b6>
    35b2:	46 c0       	rjmp	.+140    	; 0x3640 <mmc_disk_ioctl+0x342>
    35b4:	04 c0       	rjmp	.+8      	; 0x35be <mmc_disk_ioctl+0x2c0>
    35b6:	80 91 50 01 	lds	r24, 0x0150	; 0x800150 <CardType>
    35ba:	fb 01       	movw	r30, r22
    35bc:	80 83       	st	Z, r24
    35be:	10 e0       	ldi	r17, 0x00	; 0
    35c0:	3f c0       	rjmp	.+126    	; 0x3640 <mmc_disk_ioctl+0x342>
    35c2:	40 e0       	ldi	r20, 0x00	; 0
    35c4:	50 e0       	ldi	r21, 0x00	; 0
    35c6:	ba 01       	movw	r22, r20
    35c8:	8a e0       	ldi	r24, 0x0A	; 10
    35ca:	78 dc       	rcall	.-1808   	; 0x2ebc <send_cmd>
    35cc:	81 11       	cpse	r24, r1
    35ce:	28 c0       	rjmp	.+80     	; 0x3620 <mmc_disk_ioctl+0x322>
    35d0:	60 e1       	ldi	r22, 0x10	; 16
    35d2:	70 e0       	ldi	r23, 0x00	; 0
    35d4:	1f c0       	rjmp	.+62     	; 0x3614 <mmc_disk_ioctl+0x316>
    35d6:	40 e0       	ldi	r20, 0x00	; 0
    35d8:	50 e0       	ldi	r21, 0x00	; 0
    35da:	ba 01       	movw	r22, r20
    35dc:	8a e3       	ldi	r24, 0x3A	; 58
    35de:	6e dc       	rcall	.-1828   	; 0x2ebc <send_cmd>
    35e0:	81 11       	cpse	r24, r1
    35e2:	1e c0       	rjmp	.+60     	; 0x3620 <mmc_disk_ioctl+0x322>
    35e4:	78 01       	movw	r14, r16
    35e6:	f4 e0       	ldi	r31, 0x04	; 4
    35e8:	ef 0e       	add	r14, r31
    35ea:	f1 1c       	adc	r15, r1
    35ec:	8f ef       	ldi	r24, 0xFF	; 255
    35ee:	2d dc       	rcall	.-1958   	; 0x2e4a <xchg_spi>
    35f0:	f8 01       	movw	r30, r16
    35f2:	81 93       	st	Z+, r24
    35f4:	8f 01       	movw	r16, r30
    35f6:	ee 15       	cp	r30, r14
    35f8:	ff 05       	cpc	r31, r15
    35fa:	c1 f7       	brne	.-16     	; 0x35ec <mmc_disk_ioctl+0x2ee>
    35fc:	1e cf       	rjmp	.-452    	; 0x343a <mmc_disk_ioctl+0x13c>
    35fe:	40 e0       	ldi	r20, 0x00	; 0
    3600:	50 e0       	ldi	r21, 0x00	; 0
    3602:	ba 01       	movw	r22, r20
    3604:	8d e8       	ldi	r24, 0x8D	; 141
    3606:	5a dc       	rcall	.-1868   	; 0x2ebc <send_cmd>
    3608:	81 11       	cpse	r24, r1
    360a:	0a c0       	rjmp	.+20     	; 0x3620 <mmc_disk_ioctl+0x322>
    360c:	8f ef       	ldi	r24, 0xFF	; 255
    360e:	1d dc       	rcall	.-1990   	; 0x2e4a <xchg_spi>
    3610:	60 e4       	ldi	r22, 0x40	; 64
    3612:	70 e0       	ldi	r23, 0x00	; 0
    3614:	c8 01       	movw	r24, r16
    3616:	95 dc       	rcall	.-1750   	; 0x2f42 <rcvr_datablock>
    3618:	11 e0       	ldi	r17, 0x01	; 1
    361a:	89 2b       	or	r24, r25
    361c:	11 f0       	breq	.+4      	; 0x3622 <mmc_disk_ioctl+0x324>
    361e:	0d cf       	rjmp	.-486    	; 0x343a <mmc_disk_ioctl+0x13c>
    3620:	11 e0       	ldi	r17, 0x01	; 1
    3622:	2f dc       	rcall	.-1954   	; 0x2e82 <deselect>
    3624:	0d c0       	rjmp	.+26     	; 0x3640 <mmc_disk_ioctl+0x342>
    3626:	84 e9       	ldi	r24, 0x94	; 148
    3628:	90 e0       	ldi	r25, 0x00	; 0
    362a:	0e 94 a9 28 	call	0x5152	; 0x5152 <avrSerialPrint_P>
    362e:	80 91 00 01 	lds	r24, 0x0100	; 0x800100 <__data_start>
    3632:	81 60       	ori	r24, 0x01	; 1
    3634:	80 93 00 01 	sts	0x0100, r24	; 0x800100 <__data_start>
    3638:	c2 cf       	rjmp	.-124    	; 0x35be <mmc_disk_ioctl+0x2c0>
    363a:	13 e0       	ldi	r17, 0x03	; 3
    363c:	01 c0       	rjmp	.+2      	; 0x3640 <mmc_disk_ioctl+0x342>
    363e:	14 e0       	ldi	r17, 0x04	; 4
    3640:	81 2f       	mov	r24, r17
    3642:	60 96       	adiw	r28, 0x10	; 16
    3644:	0f b6       	in	r0, 0x3f	; 63
    3646:	f8 94       	cli
    3648:	de bf       	out	0x3e, r29	; 62
    364a:	0f be       	out	0x3f, r0	; 63
    364c:	cd bf       	out	0x3d, r28	; 61
    364e:	df 91       	pop	r29
    3650:	cf 91       	pop	r28
    3652:	1f 91       	pop	r17
    3654:	0f 91       	pop	r16
    3656:	ff 90       	pop	r15
    3658:	ef 90       	pop	r14
    365a:	df 90       	pop	r13
    365c:	cf 90       	pop	r12
    365e:	08 95       	ret

00003660 <mmc_disk_timerproc>:
    3660:	80 91 52 01 	lds	r24, 0x0152	; 0x800152 <Timer1>
    3664:	88 23       	and	r24, r24
    3666:	19 f0       	breq	.+6      	; 0x366e <mmc_disk_timerproc+0xe>
    3668:	81 50       	subi	r24, 0x01	; 1
    366a:	80 93 52 01 	sts	0x0152, r24	; 0x800152 <Timer1>
    366e:	80 91 51 01 	lds	r24, 0x0151	; 0x800151 <Timer2>
    3672:	88 23       	and	r24, r24
    3674:	19 f0       	breq	.+6      	; 0x367c <mmc_disk_timerproc+0x1c>
    3676:	81 50       	subi	r24, 0x01	; 1
    3678:	80 93 51 01 	sts	0x0151, r24	; 0x800151 <Timer2>
    367c:	80 91 00 01 	lds	r24, 0x0100	; 0x800100 <__data_start>
    3680:	89 7f       	andi	r24, 0xF9	; 249
    3682:	80 93 00 01 	sts	0x0100, r24	; 0x800100 <__data_start>
    3686:	08 95       	ret

00003688 <_ZN5SHT1xC1Ev>:
    3688:	54 9a       	sbi	0x0a, 4	; 10
    368a:	55 9a       	sbi	0x0a, 5	; 10
    368c:	5c 9a       	sbi	0x0b, 4	; 11
    368e:	5d 98       	cbi	0x0b, 5	; 11
    3690:	08 95       	ret

00003692 <_ZN5SHT1x7shiftInEv>:
    3692:	28 e0       	ldi	r18, 0x08	; 8
    3694:	30 e0       	ldi	r19, 0x00	; 0
    3696:	80 e0       	ldi	r24, 0x00	; 0
    3698:	90 e0       	ldi	r25, 0x00	; 0
    369a:	5d 9a       	sbi	0x0b, 5	; 11
    369c:	69 b1       	in	r22, 0x09	; 9
    369e:	88 0f       	add	r24, r24
    36a0:	99 1f       	adc	r25, r25
    36a2:	64 fb       	bst	r22, 4
    36a4:	44 27       	eor	r20, r20
    36a6:	40 f9       	bld	r20, 0
    36a8:	50 e0       	ldi	r21, 0x00	; 0
    36aa:	84 0f       	add	r24, r20
    36ac:	95 1f       	adc	r25, r21
    36ae:	5d 98       	cbi	0x0b, 5	; 11
    36b0:	21 50       	subi	r18, 0x01	; 1
    36b2:	31 09       	sbc	r19, r1
    36b4:	91 f7       	brne	.-28     	; 0x369a <_ZN5SHT1x7shiftInEv+0x8>
    36b6:	08 95       	ret

000036b8 <_ZN5SHT1x8sendDataEi>:
    36b8:	54 9a       	sbi	0x0a, 4	; 10
    36ba:	87 e0       	ldi	r24, 0x07	; 7
    36bc:	90 e0       	ldi	r25, 0x00	; 0
    36be:	9b 01       	movw	r18, r22
    36c0:	08 2e       	mov	r0, r24
    36c2:	02 c0       	rjmp	.+4      	; 0x36c8 <_ZN5SHT1x8sendDataEi+0x10>
    36c4:	35 95       	asr	r19
    36c6:	27 95       	ror	r18
    36c8:	0a 94       	dec	r0
    36ca:	e2 f7       	brpl	.-8      	; 0x36c4 <_ZN5SHT1x8sendDataEi+0xc>
    36cc:	20 ff       	sbrs	r18, 0
    36ce:	02 c0       	rjmp	.+4      	; 0x36d4 <_ZN5SHT1x8sendDataEi+0x1c>
    36d0:	5c 9a       	sbi	0x0b, 4	; 11
    36d2:	01 c0       	rjmp	.+2      	; 0x36d6 <_ZN5SHT1x8sendDataEi+0x1e>
    36d4:	5c 98       	cbi	0x0b, 4	; 11
    36d6:	5d 9a       	sbi	0x0b, 5	; 11
    36d8:	81 11       	cpse	r24, r1
    36da:	01 c0       	rjmp	.+2      	; 0x36de <_ZN5SHT1x8sendDataEi+0x26>
    36dc:	54 98       	cbi	0x0a, 4	; 10
    36de:	5d 98       	cbi	0x0b, 5	; 11
    36e0:	01 97       	sbiw	r24, 0x01	; 1
    36e2:	68 f7       	brcc	.-38     	; 0x36be <_ZN5SHT1x8sendDataEi+0x6>
    36e4:	5d 9a       	sbi	0x0b, 5	; 11
    36e6:	89 b1       	in	r24, 0x09	; 9
    36e8:	5d 98       	cbi	0x0b, 5	; 11
    36ea:	89 b1       	in	r24, 0x09	; 9
    36ec:	08 95       	ret

000036ee <_ZN5SHT1x14sendCommandSHTEi>:
    36ee:	54 9a       	sbi	0x0a, 4	; 10
    36f0:	55 9a       	sbi	0x0a, 5	; 10
    36f2:	5c 9a       	sbi	0x0b, 4	; 11
    36f4:	5d 9a       	sbi	0x0b, 5	; 11
    36f6:	5c 98       	cbi	0x0b, 4	; 11
    36f8:	5d 98       	cbi	0x0b, 5	; 11
    36fa:	5d 9a       	sbi	0x0b, 5	; 11
    36fc:	5c 9a       	sbi	0x0b, 4	; 11
    36fe:	5d 98       	cbi	0x0b, 5	; 11
    3700:	db cf       	rjmp	.-74     	; 0x36b8 <_ZN5SHT1x8sendDataEi>

00003702 <_ZN5SHT1x16waitForResultSHTEv>:
    3702:	54 98       	cbi	0x0a, 4	; 10
    3704:	84 e6       	ldi	r24, 0x64	; 100
    3706:	90 e0       	ldi	r25, 0x00	; 0
    3708:	ef e4       	ldi	r30, 0x4F	; 79
    370a:	f3 ec       	ldi	r31, 0xC3	; 195
    370c:	31 97       	sbiw	r30, 0x01	; 1
    370e:	f1 f7       	brne	.-4      	; 0x370c <_ZN5SHT1x16waitForResultSHTEv+0xa>
    3710:	00 c0       	rjmp	.+0      	; 0x3712 <_ZN5SHT1x16waitForResultSHTEv+0x10>
    3712:	00 00       	nop
    3714:	4c 9b       	sbis	0x09, 4	; 9
    3716:	02 c0       	rjmp	.+4      	; 0x371c <_ZN5SHT1x16waitForResultSHTEv+0x1a>
    3718:	01 97       	sbiw	r24, 0x01	; 1
    371a:	b1 f7       	brne	.-20     	; 0x3708 <_ZN5SHT1x16waitForResultSHTEv+0x6>
    371c:	08 95       	ret

0000371e <_ZN5SHT1x12getData16SHTEv>:
    371e:	0f 93       	push	r16
    3720:	1f 93       	push	r17
    3722:	cf 93       	push	r28
    3724:	df 93       	push	r29
    3726:	8c 01       	movw	r16, r24
    3728:	54 98       	cbi	0x0a, 4	; 10
    372a:	55 9a       	sbi	0x0a, 5	; 10
    372c:	b2 df       	rcall	.-156    	; 0x3692 <_ZN5SHT1x7shiftInEv>
    372e:	d8 2f       	mov	r29, r24
    3730:	80 e0       	ldi	r24, 0x00	; 0
    3732:	c8 2f       	mov	r28, r24
    3734:	54 9a       	sbi	0x0a, 4	; 10
    3736:	5c 9a       	sbi	0x0b, 4	; 11
    3738:	5c 98       	cbi	0x0b, 4	; 11
    373a:	5d 9a       	sbi	0x0b, 5	; 11
    373c:	5d 98       	cbi	0x0b, 5	; 11
    373e:	54 98       	cbi	0x0a, 4	; 10
    3740:	c8 01       	movw	r24, r16
    3742:	a7 df       	rcall	.-178    	; 0x3692 <_ZN5SHT1x7shiftInEv>
    3744:	8c 2b       	or	r24, r28
    3746:	9d 2b       	or	r25, r29
    3748:	df 91       	pop	r29
    374a:	cf 91       	pop	r28
    374c:	1f 91       	pop	r17
    374e:	0f 91       	pop	r16
    3750:	08 95       	ret

00003752 <_ZN5SHT1x10skipCrcSHTEv>:
    3752:	54 9a       	sbi	0x0a, 4	; 10
    3754:	55 9a       	sbi	0x0a, 5	; 10
    3756:	5c 9a       	sbi	0x0b, 4	; 11
    3758:	5d 9a       	sbi	0x0b, 5	; 11
    375a:	5d 98       	cbi	0x0b, 5	; 11
    375c:	08 95       	ret

0000375e <_ZN5SHT1x9setHeaterEi>:
    375e:	0f 93       	push	r16
    3760:	1f 93       	push	r17
    3762:	cf 93       	push	r28
    3764:	df 93       	push	r29
    3766:	ec 01       	movw	r28, r24
    3768:	8b 01       	movw	r16, r22
    376a:	66 e0       	ldi	r22, 0x06	; 6
    376c:	70 e0       	ldi	r23, 0x00	; 0
    376e:	bf df       	rcall	.-130    	; 0x36ee <_ZN5SHT1x14sendCommandSHTEi>
    3770:	01 2b       	or	r16, r17
    3772:	19 f0       	breq	.+6      	; 0x377a <_ZN5SHT1x9setHeaterEi+0x1c>
    3774:	64 e0       	ldi	r22, 0x04	; 4
    3776:	70 e0       	ldi	r23, 0x00	; 0
    3778:	02 c0       	rjmp	.+4      	; 0x377e <_ZN5SHT1x9setHeaterEi+0x20>
    377a:	60 e0       	ldi	r22, 0x00	; 0
    377c:	70 e0       	ldi	r23, 0x00	; 0
    377e:	ce 01       	movw	r24, r28
    3780:	9b df       	rcall	.-202    	; 0x36b8 <_ZN5SHT1x8sendDataEi>
    3782:	ce 01       	movw	r24, r28
    3784:	df 91       	pop	r29
    3786:	cf 91       	pop	r28
    3788:	1f 91       	pop	r17
    378a:	0f 91       	pop	r16
    378c:	e2 cf       	rjmp	.-60     	; 0x3752 <_ZN5SHT1x10skipCrcSHTEv>

0000378e <_ZN5SHT1x18readTemperatureRawEv>:
    378e:	0f 93       	push	r16
    3790:	1f 93       	push	r17
    3792:	cf 93       	push	r28
    3794:	df 93       	push	r29
    3796:	ec 01       	movw	r28, r24
    3798:	63 e0       	ldi	r22, 0x03	; 3
    379a:	70 e0       	ldi	r23, 0x00	; 0
    379c:	a8 df       	rcall	.-176    	; 0x36ee <_ZN5SHT1x14sendCommandSHTEi>
    379e:	ce 01       	movw	r24, r28
    37a0:	b0 df       	rcall	.-160    	; 0x3702 <_ZN5SHT1x16waitForResultSHTEv>
    37a2:	ce 01       	movw	r24, r28
    37a4:	bc df       	rcall	.-136    	; 0x371e <_ZN5SHT1x12getData16SHTEv>
    37a6:	8c 01       	movw	r16, r24
    37a8:	ce 01       	movw	r24, r28
    37aa:	d3 df       	rcall	.-90     	; 0x3752 <_ZN5SHT1x10skipCrcSHTEv>
    37ac:	b8 01       	movw	r22, r16
    37ae:	11 0f       	add	r17, r17
    37b0:	88 0b       	sbc	r24, r24
    37b2:	99 0b       	sbc	r25, r25
    37b4:	0e 94 bf 30 	call	0x617e	; 0x617e <__floatsisf>
    37b8:	df 91       	pop	r29
    37ba:	cf 91       	pop	r28
    37bc:	1f 91       	pop	r17
    37be:	0f 91       	pop	r16
    37c0:	08 95       	ret

000037c2 <_ZN5SHT1x16readTemperatureCEv>:
    37c2:	e5 df       	rcall	.-54     	; 0x378e <_ZN5SHT1x18readTemperatureRawEv>
    37c4:	0e 94 8c 30 	call	0x6118	; 0x6118 <__fixsfsi>
    37c8:	07 2e       	mov	r0, r23
    37ca:	00 0c       	add	r0, r0
    37cc:	88 0b       	sbc	r24, r24
    37ce:	99 0b       	sbc	r25, r25
    37d0:	0e 94 bf 30 	call	0x617e	; 0x617e <__floatsisf>
    37d4:	2a e0       	ldi	r18, 0x0A	; 10
    37d6:	37 ed       	ldi	r19, 0xD7	; 215
    37d8:	43 e2       	ldi	r20, 0x23	; 35
    37da:	5c e3       	ldi	r21, 0x3C	; 60
    37dc:	0e 94 4b 31 	call	0x6296	; 0x6296 <__mulsf3>
    37e0:	20 e0       	ldi	r18, 0x00	; 0
    37e2:	30 e0       	ldi	r19, 0x00	; 0
    37e4:	40 e2       	ldi	r20, 0x20	; 32
    37e6:	52 e4       	ldi	r21, 0x42	; 66
    37e8:	0c 94 27 30 	jmp	0x604e	; 0x604e <__subsf3>

000037ec <_ZN5SHT1x12readHumidityEv>:
    37ec:	4f 92       	push	r4
    37ee:	5f 92       	push	r5
    37f0:	6f 92       	push	r6
    37f2:	7f 92       	push	r7
    37f4:	8f 92       	push	r8
    37f6:	9f 92       	push	r9
    37f8:	af 92       	push	r10
    37fa:	bf 92       	push	r11
    37fc:	cf 92       	push	r12
    37fe:	df 92       	push	r13
    3800:	ef 92       	push	r14
    3802:	ff 92       	push	r15
    3804:	0f 93       	push	r16
    3806:	1f 93       	push	r17
    3808:	cf 93       	push	r28
    380a:	df 93       	push	r29
    380c:	ec 01       	movw	r28, r24
    380e:	65 e0       	ldi	r22, 0x05	; 5
    3810:	70 e0       	ldi	r23, 0x00	; 0
    3812:	6d df       	rcall	.-294    	; 0x36ee <_ZN5SHT1x14sendCommandSHTEi>
    3814:	ce 01       	movw	r24, r28
    3816:	75 df       	rcall	.-278    	; 0x3702 <_ZN5SHT1x16waitForResultSHTEv>
    3818:	ce 01       	movw	r24, r28
    381a:	81 df       	rcall	.-254    	; 0x371e <_ZN5SHT1x12getData16SHTEv>
    381c:	8c 01       	movw	r16, r24
    381e:	ce 01       	movw	r24, r28
    3820:	98 df       	rcall	.-208    	; 0x3752 <_ZN5SHT1x10skipCrcSHTEv>
    3822:	b8 01       	movw	r22, r16
    3824:	11 0f       	add	r17, r17
    3826:	88 0b       	sbc	r24, r24
    3828:	99 0b       	sbc	r25, r25
    382a:	0e 94 bf 30 	call	0x617e	; 0x617e <__floatsisf>
    382e:	6b 01       	movw	r12, r22
    3830:	7c 01       	movw	r14, r24
    3832:	24 e5       	ldi	r18, 0x54	; 84
    3834:	33 ee       	ldi	r19, 0xE3	; 227
    3836:	45 e2       	ldi	r20, 0x25	; 37
    3838:	5d e3       	ldi	r21, 0x3D	; 61
    383a:	0e 94 4b 31 	call	0x6296	; 0x6296 <__mulsf3>
    383e:	20 e0       	ldi	r18, 0x00	; 0
    3840:	30 e0       	ldi	r19, 0x00	; 0
    3842:	40 e8       	ldi	r20, 0x80	; 128
    3844:	50 e4       	ldi	r21, 0x40	; 64
    3846:	0e 94 27 30 	call	0x604e	; 0x604e <__subsf3>
    384a:	4b 01       	movw	r8, r22
    384c:	5c 01       	movw	r10, r24
    384e:	22 ea       	ldi	r18, 0xA2	; 162
    3850:	37 ee       	ldi	r19, 0xE7	; 231
    3852:	4b e3       	ldi	r20, 0x3B	; 59
    3854:	56 eb       	ldi	r21, 0xB6	; 182
    3856:	c7 01       	movw	r24, r14
    3858:	b6 01       	movw	r22, r12
    385a:	0e 94 4b 31 	call	0x6296	; 0x6296 <__mulsf3>
    385e:	a7 01       	movw	r20, r14
    3860:	96 01       	movw	r18, r12
    3862:	0e 94 4b 31 	call	0x6296	; 0x6296 <__mulsf3>
    3866:	9b 01       	movw	r18, r22
    3868:	ac 01       	movw	r20, r24
    386a:	c5 01       	movw	r24, r10
    386c:	b4 01       	movw	r22, r8
    386e:	0e 94 28 30 	call	0x6050	; 0x6050 <__addsf3>
    3872:	4b 01       	movw	r8, r22
    3874:	5c 01       	movw	r10, r24
    3876:	ce 01       	movw	r24, r28
    3878:	a4 df       	rcall	.-184    	; 0x37c2 <_ZN5SHT1x16readTemperatureCEv>
    387a:	20 e0       	ldi	r18, 0x00	; 0
    387c:	30 e0       	ldi	r19, 0x00	; 0
    387e:	48 ec       	ldi	r20, 0xC8	; 200
    3880:	51 e4       	ldi	r21, 0x41	; 65
    3882:	0e 94 27 30 	call	0x604e	; 0x604e <__subsf3>
    3886:	2b 01       	movw	r4, r22
    3888:	3c 01       	movw	r6, r24
    388a:	2c ea       	ldi	r18, 0xAC	; 172
    388c:	35 ec       	ldi	r19, 0xC5	; 197
    388e:	47 ea       	ldi	r20, 0xA7	; 167
    3890:	58 e3       	ldi	r21, 0x38	; 56
    3892:	c7 01       	movw	r24, r14
    3894:	b6 01       	movw	r22, r12
    3896:	0e 94 4b 31 	call	0x6296	; 0x6296 <__mulsf3>
    389a:	2a e0       	ldi	r18, 0x0A	; 10
    389c:	37 ed       	ldi	r19, 0xD7	; 215
    389e:	43 e2       	ldi	r20, 0x23	; 35
    38a0:	5c e3       	ldi	r21, 0x3C	; 60
    38a2:	0e 94 28 30 	call	0x6050	; 0x6050 <__addsf3>
    38a6:	9b 01       	movw	r18, r22
    38a8:	ac 01       	movw	r20, r24
    38aa:	c3 01       	movw	r24, r6
    38ac:	b2 01       	movw	r22, r4
    38ae:	0e 94 4b 31 	call	0x6296	; 0x6296 <__mulsf3>
    38b2:	a5 01       	movw	r20, r10
    38b4:	94 01       	movw	r18, r8
    38b6:	0e 94 28 30 	call	0x6050	; 0x6050 <__addsf3>
    38ba:	df 91       	pop	r29
    38bc:	cf 91       	pop	r28
    38be:	1f 91       	pop	r17
    38c0:	0f 91       	pop	r16
    38c2:	ff 90       	pop	r15
    38c4:	ef 90       	pop	r14
    38c6:	df 90       	pop	r13
    38c8:	cf 90       	pop	r12
    38ca:	bf 90       	pop	r11
    38cc:	af 90       	pop	r10
    38ce:	9f 90       	pop	r9
    38d0:	8f 90       	pop	r8
    38d2:	7f 90       	pop	r7
    38d4:	6f 90       	pop	r6
    38d6:	5f 90       	pop	r5
    38d8:	4f 90       	pop	r4
    38da:	08 95       	ret

000038dc <ds3234_init>:
    38dc:	90 93 62 08 	sts	0x0862, r25	; 0x800862 <_ds3234_init+0x1>
    38e0:	80 93 61 08 	sts	0x0861, r24	; 0x800861 <_ds3234_init>
    38e4:	70 93 68 08 	sts	0x0868, r23	; 0x800868 <_ds3234_transfer+0x1>
    38e8:	60 93 67 08 	sts	0x0867, r22	; 0x800867 <_ds3234_transfer>
    38ec:	50 93 64 08 	sts	0x0864, r21	; 0x800864 <_ds3234_slave_select+0x1>
    38f0:	40 93 63 08 	sts	0x0863, r20	; 0x800863 <_ds3234_slave_select>
    38f4:	30 93 66 08 	sts	0x0866, r19	; 0x800866 <_ds3234_slave_unselect+0x1>
    38f8:	20 93 65 08 	sts	0x0865, r18	; 0x800865 <_ds3234_slave_unselect>
    38fc:	fc 01       	movw	r30, r24
    38fe:	09 94       	ijmp

00003900 <ds3234_read_time>:
    3900:	cf 93       	push	r28
    3902:	df 93       	push	r29
    3904:	ec 01       	movw	r28, r24
    3906:	e0 91 63 08 	lds	r30, 0x0863	; 0x800863 <_ds3234_slave_select>
    390a:	f0 91 64 08 	lds	r31, 0x0864	; 0x800864 <_ds3234_slave_select+0x1>
    390e:	09 95       	icall
    3910:	e0 91 67 08 	lds	r30, 0x0867	; 0x800867 <_ds3234_transfer>
    3914:	f0 91 68 08 	lds	r31, 0x0868	; 0x800868 <_ds3234_transfer+0x1>
    3918:	80 e0       	ldi	r24, 0x00	; 0
    391a:	09 95       	icall
    391c:	e0 91 67 08 	lds	r30, 0x0867	; 0x800867 <_ds3234_transfer>
    3920:	f0 91 68 08 	lds	r31, 0x0868	; 0x800868 <_ds3234_transfer+0x1>
    3924:	80 e0       	ldi	r24, 0x00	; 0
    3926:	09 95       	icall
    3928:	98 2f       	mov	r25, r24
    392a:	92 95       	swap	r25
    392c:	9f 70       	andi	r25, 0x0F	; 15
    392e:	8f 70       	andi	r24, 0x0F	; 15
    3930:	2a e0       	ldi	r18, 0x0A	; 10
    3932:	92 9f       	mul	r25, r18
    3934:	80 0d       	add	r24, r0
    3936:	11 24       	eor	r1, r1
    3938:	88 83       	st	Y, r24
    393a:	e0 91 67 08 	lds	r30, 0x0867	; 0x800867 <_ds3234_transfer>
    393e:	f0 91 68 08 	lds	r31, 0x0868	; 0x800868 <_ds3234_transfer+0x1>
    3942:	80 e0       	ldi	r24, 0x00	; 0
    3944:	09 95       	icall
    3946:	98 2f       	mov	r25, r24
    3948:	92 95       	swap	r25
    394a:	9f 70       	andi	r25, 0x0F	; 15
    394c:	8f 70       	andi	r24, 0x0F	; 15
    394e:	2a e0       	ldi	r18, 0x0A	; 10
    3950:	92 9f       	mul	r25, r18
    3952:	80 0d       	add	r24, r0
    3954:	11 24       	eor	r1, r1
    3956:	89 83       	std	Y+1, r24	; 0x01
    3958:	e0 91 67 08 	lds	r30, 0x0867	; 0x800867 <_ds3234_transfer>
    395c:	f0 91 68 08 	lds	r31, 0x0868	; 0x800868 <_ds3234_transfer+0x1>
    3960:	80 e0       	ldi	r24, 0x00	; 0
    3962:	09 95       	icall
    3964:	28 2f       	mov	r18, r24
    3966:	2f 70       	andi	r18, 0x0F	; 15
    3968:	86 ff       	sbrs	r24, 6
    396a:	08 c0       	rjmp	.+16     	; 0x397c <ds3234_read_time+0x7c>
    396c:	84 fd       	sbrc	r24, 4
    396e:	26 5f       	subi	r18, 0xF6	; 246
    3970:	2a 83       	std	Y+2, r18	; 0x02
    3972:	98 2f       	mov	r25, r24
    3974:	92 70       	andi	r25, 0x02	; 2
    3976:	91 60       	ori	r25, 0x01	; 1
    3978:	9b 83       	std	Y+3, r25	; 0x03
    397a:	09 c0       	rjmp	.+18     	; 0x398e <ds3234_read_time+0x8e>
    397c:	98 2f       	mov	r25, r24
    397e:	92 95       	swap	r25
    3980:	9f 70       	andi	r25, 0x0F	; 15
    3982:	8a e0       	ldi	r24, 0x0A	; 10
    3984:	98 9f       	mul	r25, r24
    3986:	20 0d       	add	r18, r0
    3988:	11 24       	eor	r1, r1
    398a:	2a 83       	std	Y+2, r18	; 0x02
    398c:	1b 82       	std	Y+3, r1	; 0x03
    398e:	e0 91 65 08 	lds	r30, 0x0865	; 0x800865 <_ds3234_slave_unselect>
    3992:	f0 91 66 08 	lds	r31, 0x0866	; 0x800866 <_ds3234_slave_unselect+0x1>
    3996:	df 91       	pop	r29
    3998:	cf 91       	pop	r28
    399a:	09 94       	ijmp

0000399c <ds3234_write_time>:
    399c:	0f 93       	push	r16
    399e:	1f 93       	push	r17
    39a0:	cf 93       	push	r28
    39a2:	df 93       	push	r29
    39a4:	8c 01       	movw	r16, r24
    39a6:	e0 91 63 08 	lds	r30, 0x0863	; 0x800863 <_ds3234_slave_select>
    39aa:	f0 91 64 08 	lds	r31, 0x0864	; 0x800864 <_ds3234_slave_select+0x1>
    39ae:	09 95       	icall
    39b0:	e0 91 67 08 	lds	r30, 0x0867	; 0x800867 <_ds3234_transfer>
    39b4:	f0 91 68 08 	lds	r31, 0x0868	; 0x800868 <_ds3234_transfer+0x1>
    39b8:	80 e8       	ldi	r24, 0x80	; 128
    39ba:	09 95       	icall
    39bc:	d8 01       	movw	r26, r16
    39be:	2c 91       	ld	r18, X
    39c0:	da e0       	ldi	r29, 0x0A	; 10
    39c2:	82 2f       	mov	r24, r18
    39c4:	6d 2f       	mov	r22, r29
    39c6:	0e 94 8f 2f 	call	0x5f1e	; 0x5f1e <__udivmodqi4>
    39ca:	b0 e1       	ldi	r27, 0x10	; 16
    39cc:	8b 9f       	mul	r24, r27
    39ce:	a0 01       	movw	r20, r0
    39d0:	11 24       	eor	r1, r1
    39d2:	c6 ef       	ldi	r28, 0xF6	; 246
    39d4:	8c 9f       	mul	r24, r28
    39d6:	20 0d       	add	r18, r0
    39d8:	11 24       	eor	r1, r1
    39da:	82 2f       	mov	r24, r18
    39dc:	e0 91 67 08 	lds	r30, 0x0867	; 0x800867 <_ds3234_transfer>
    39e0:	f0 91 68 08 	lds	r31, 0x0868	; 0x800868 <_ds3234_transfer+0x1>
    39e4:	84 2b       	or	r24, r20
    39e6:	09 95       	icall
    39e8:	f8 01       	movw	r30, r16
    39ea:	21 81       	ldd	r18, Z+1	; 0x01
    39ec:	82 2f       	mov	r24, r18
    39ee:	6d 2f       	mov	r22, r29
    39f0:	0e 94 8f 2f 	call	0x5f1e	; 0x5f1e <__udivmodqi4>
    39f4:	f0 e1       	ldi	r31, 0x10	; 16
    39f6:	8f 9f       	mul	r24, r31
    39f8:	a0 01       	movw	r20, r0
    39fa:	11 24       	eor	r1, r1
    39fc:	8c 9f       	mul	r24, r28
    39fe:	20 0d       	add	r18, r0
    3a00:	11 24       	eor	r1, r1
    3a02:	82 2f       	mov	r24, r18
    3a04:	e0 91 67 08 	lds	r30, 0x0867	; 0x800867 <_ds3234_transfer>
    3a08:	f0 91 68 08 	lds	r31, 0x0868	; 0x800868 <_ds3234_transfer+0x1>
    3a0c:	84 2b       	or	r24, r20
    3a0e:	09 95       	icall
    3a10:	d8 01       	movw	r26, r16
    3a12:	13 96       	adiw	r26, 0x03	; 3
    3a14:	8c 91       	ld	r24, X
    3a16:	13 97       	sbiw	r26, 0x03	; 3
    3a18:	e0 91 67 08 	lds	r30, 0x0867	; 0x800867 <_ds3234_transfer>
    3a1c:	f0 91 68 08 	lds	r31, 0x0868	; 0x800868 <_ds3234_transfer+0x1>
    3a20:	12 96       	adiw	r26, 0x02	; 2
    3a22:	2c 91       	ld	r18, X
    3a24:	88 23       	and	r24, r24
    3a26:	71 f0       	breq	.+28     	; 0x3a44 <ds3234_write_time+0xa8>
    3a28:	82 2f       	mov	r24, r18
    3a2a:	6d 2f       	mov	r22, r29
    3a2c:	0e 94 8f 2f 	call	0x5f1e	; 0x5f1e <__udivmodqi4>
    3a30:	8c 9f       	mul	r24, r28
    3a32:	20 0d       	add	r18, r0
    3a34:	11 24       	eor	r1, r1
    3a36:	b0 e1       	ldi	r27, 0x10	; 16
    3a38:	8b 9f       	mul	r24, r27
    3a3a:	c0 01       	movw	r24, r0
    3a3c:	11 24       	eor	r1, r1
    3a3e:	82 2b       	or	r24, r18
    3a40:	80 64       	ori	r24, 0x40	; 64
    3a42:	0d c0       	rjmp	.+26     	; 0x3a5e <ds3234_write_time+0xc2>
    3a44:	82 2f       	mov	r24, r18
    3a46:	6d 2f       	mov	r22, r29
    3a48:	0e 94 8f 2f 	call	0x5f1e	; 0x5f1e <__udivmodqi4>
    3a4c:	30 e1       	ldi	r19, 0x10	; 16
    3a4e:	83 9f       	mul	r24, r19
    3a50:	a0 01       	movw	r20, r0
    3a52:	11 24       	eor	r1, r1
    3a54:	8c 9f       	mul	r24, r28
    3a56:	20 0d       	add	r18, r0
    3a58:	11 24       	eor	r1, r1
    3a5a:	82 2f       	mov	r24, r18
    3a5c:	84 2b       	or	r24, r20
    3a5e:	09 95       	icall
    3a60:	e0 91 65 08 	lds	r30, 0x0865	; 0x800865 <_ds3234_slave_unselect>
    3a64:	f0 91 66 08 	lds	r31, 0x0866	; 0x800866 <_ds3234_slave_unselect+0x1>
    3a68:	df 91       	pop	r29
    3a6a:	cf 91       	pop	r28
    3a6c:	1f 91       	pop	r17
    3a6e:	0f 91       	pop	r16
    3a70:	09 94       	ijmp

00003a72 <ds3234_read_date>:
    3a72:	cf 93       	push	r28
    3a74:	df 93       	push	r29
    3a76:	ec 01       	movw	r28, r24
    3a78:	e0 91 63 08 	lds	r30, 0x0863	; 0x800863 <_ds3234_slave_select>
    3a7c:	f0 91 64 08 	lds	r31, 0x0864	; 0x800864 <_ds3234_slave_select+0x1>
    3a80:	09 95       	icall
    3a82:	e0 91 67 08 	lds	r30, 0x0867	; 0x800867 <_ds3234_transfer>
    3a86:	f0 91 68 08 	lds	r31, 0x0868	; 0x800868 <_ds3234_transfer+0x1>
    3a8a:	83 e0       	ldi	r24, 0x03	; 3
    3a8c:	09 95       	icall
    3a8e:	e0 91 67 08 	lds	r30, 0x0867	; 0x800867 <_ds3234_transfer>
    3a92:	f0 91 68 08 	lds	r31, 0x0868	; 0x800868 <_ds3234_transfer+0x1>
    3a96:	80 e0       	ldi	r24, 0x00	; 0
    3a98:	09 95       	icall
    3a9a:	98 2f       	mov	r25, r24
    3a9c:	92 95       	swap	r25
    3a9e:	9f 70       	andi	r25, 0x0F	; 15
    3aa0:	8f 70       	andi	r24, 0x0F	; 15
    3aa2:	2a e0       	ldi	r18, 0x0A	; 10
    3aa4:	92 9f       	mul	r25, r18
    3aa6:	80 0d       	add	r24, r0
    3aa8:	11 24       	eor	r1, r1
    3aaa:	88 83       	st	Y, r24
    3aac:	e0 91 67 08 	lds	r30, 0x0867	; 0x800867 <_ds3234_transfer>
    3ab0:	f0 91 68 08 	lds	r31, 0x0868	; 0x800868 <_ds3234_transfer+0x1>
    3ab4:	80 e0       	ldi	r24, 0x00	; 0
    3ab6:	09 95       	icall
    3ab8:	98 2f       	mov	r25, r24
    3aba:	92 95       	swap	r25
    3abc:	9f 70       	andi	r25, 0x0F	; 15
    3abe:	8f 70       	andi	r24, 0x0F	; 15
    3ac0:	2a e0       	ldi	r18, 0x0A	; 10
    3ac2:	92 9f       	mul	r25, r18
    3ac4:	80 0d       	add	r24, r0
    3ac6:	11 24       	eor	r1, r1
    3ac8:	89 83       	std	Y+1, r24	; 0x01
    3aca:	e0 91 67 08 	lds	r30, 0x0867	; 0x800867 <_ds3234_transfer>
    3ace:	f0 91 68 08 	lds	r31, 0x0868	; 0x800868 <_ds3234_transfer+0x1>
    3ad2:	83 e0       	ldi	r24, 0x03	; 3
    3ad4:	09 95       	icall
    3ad6:	98 2f       	mov	r25, r24
    3ad8:	96 95       	lsr	r25
    3ada:	96 95       	lsr	r25
    3adc:	96 95       	lsr	r25
    3ade:	9e 70       	andi	r25, 0x0E	; 14
    3ae0:	29 2f       	mov	r18, r25
    3ae2:	22 0f       	add	r18, r18
    3ae4:	22 0f       	add	r18, r18
    3ae6:	92 0f       	add	r25, r18
    3ae8:	28 2f       	mov	r18, r24
    3aea:	2f 70       	andi	r18, 0x0F	; 15
    3aec:	92 0f       	add	r25, r18
    3aee:	9a 83       	std	Y+2, r25	; 0x02
    3af0:	87 fd       	sbrc	r24, 7
    3af2:	02 c0       	rjmp	.+4      	; 0x3af8 <ds3234_read_date+0x86>
    3af4:	1c 82       	std	Y+4, r1	; 0x04
    3af6:	02 c0       	rjmp	.+4      	; 0x3afc <ds3234_read_date+0x8a>
    3af8:	81 e0       	ldi	r24, 0x01	; 1
    3afa:	8c 83       	std	Y+4, r24	; 0x04
    3afc:	e0 91 67 08 	lds	r30, 0x0867	; 0x800867 <_ds3234_transfer>
    3b00:	f0 91 68 08 	lds	r31, 0x0868	; 0x800868 <_ds3234_transfer+0x1>
    3b04:	80 e0       	ldi	r24, 0x00	; 0
    3b06:	09 95       	icall
    3b08:	98 2f       	mov	r25, r24
    3b0a:	92 95       	swap	r25
    3b0c:	9f 70       	andi	r25, 0x0F	; 15
    3b0e:	8f 70       	andi	r24, 0x0F	; 15
    3b10:	2a e0       	ldi	r18, 0x0A	; 10
    3b12:	92 9f       	mul	r25, r18
    3b14:	80 0d       	add	r24, r0
    3b16:	11 24       	eor	r1, r1
    3b18:	8b 83       	std	Y+3, r24	; 0x03
    3b1a:	e0 91 65 08 	lds	r30, 0x0865	; 0x800865 <_ds3234_slave_unselect>
    3b1e:	f0 91 66 08 	lds	r31, 0x0866	; 0x800866 <_ds3234_slave_unselect+0x1>
    3b22:	df 91       	pop	r29
    3b24:	cf 91       	pop	r28
    3b26:	09 94       	ijmp

00003b28 <ds3234_write_date>:
    3b28:	0f 93       	push	r16
    3b2a:	1f 93       	push	r17
    3b2c:	cf 93       	push	r28
    3b2e:	df 93       	push	r29
    3b30:	8c 01       	movw	r16, r24
    3b32:	e0 91 63 08 	lds	r30, 0x0863	; 0x800863 <_ds3234_slave_select>
    3b36:	f0 91 64 08 	lds	r31, 0x0864	; 0x800864 <_ds3234_slave_select+0x1>
    3b3a:	09 95       	icall
    3b3c:	e0 91 67 08 	lds	r30, 0x0867	; 0x800867 <_ds3234_transfer>
    3b40:	f0 91 68 08 	lds	r31, 0x0868	; 0x800868 <_ds3234_transfer+0x1>
    3b44:	83 e8       	ldi	r24, 0x83	; 131
    3b46:	09 95       	icall
    3b48:	f8 01       	movw	r30, r16
    3b4a:	20 81       	ld	r18, Z
    3b4c:	da e0       	ldi	r29, 0x0A	; 10
    3b4e:	82 2f       	mov	r24, r18
    3b50:	6d 2f       	mov	r22, r29
    3b52:	0e 94 8f 2f 	call	0x5f1e	; 0x5f1e <__udivmodqi4>
    3b56:	f0 e1       	ldi	r31, 0x10	; 16
    3b58:	8f 9f       	mul	r24, r31
    3b5a:	a0 01       	movw	r20, r0
    3b5c:	11 24       	eor	r1, r1
    3b5e:	c6 ef       	ldi	r28, 0xF6	; 246
    3b60:	8c 9f       	mul	r24, r28
    3b62:	20 0d       	add	r18, r0
    3b64:	11 24       	eor	r1, r1
    3b66:	82 2f       	mov	r24, r18
    3b68:	e0 91 67 08 	lds	r30, 0x0867	; 0x800867 <_ds3234_transfer>
    3b6c:	f0 91 68 08 	lds	r31, 0x0868	; 0x800868 <_ds3234_transfer+0x1>
    3b70:	84 2b       	or	r24, r20
    3b72:	09 95       	icall
    3b74:	f8 01       	movw	r30, r16
    3b76:	21 81       	ldd	r18, Z+1	; 0x01
    3b78:	82 2f       	mov	r24, r18
    3b7a:	6d 2f       	mov	r22, r29
    3b7c:	0e 94 8f 2f 	call	0x5f1e	; 0x5f1e <__udivmodqi4>
    3b80:	f0 e1       	ldi	r31, 0x10	; 16
    3b82:	8f 9f       	mul	r24, r31
    3b84:	a0 01       	movw	r20, r0
    3b86:	11 24       	eor	r1, r1
    3b88:	8c 9f       	mul	r24, r28
    3b8a:	20 0d       	add	r18, r0
    3b8c:	11 24       	eor	r1, r1
    3b8e:	82 2f       	mov	r24, r18
    3b90:	e0 91 67 08 	lds	r30, 0x0867	; 0x800867 <_ds3234_transfer>
    3b94:	f0 91 68 08 	lds	r31, 0x0868	; 0x800868 <_ds3234_transfer+0x1>
    3b98:	84 2b       	or	r24, r20
    3b9a:	09 95       	icall
    3b9c:	f8 01       	movw	r30, r16
    3b9e:	22 81       	ldd	r18, Z+2	; 0x02
    3ba0:	82 2f       	mov	r24, r18
    3ba2:	6d 2f       	mov	r22, r29
    3ba4:	0e 94 8f 2f 	call	0x5f1e	; 0x5f1e <__udivmodqi4>
    3ba8:	f0 e1       	ldi	r31, 0x10	; 16
    3baa:	8f 9f       	mul	r24, r31
    3bac:	a0 01       	movw	r20, r0
    3bae:	11 24       	eor	r1, r1
    3bb0:	8c 9f       	mul	r24, r28
    3bb2:	20 0d       	add	r18, r0
    3bb4:	11 24       	eor	r1, r1
    3bb6:	82 2f       	mov	r24, r18
    3bb8:	e0 91 67 08 	lds	r30, 0x0867	; 0x800867 <_ds3234_transfer>
    3bbc:	f0 91 68 08 	lds	r31, 0x0868	; 0x800868 <_ds3234_transfer+0x1>
    3bc0:	84 2b       	or	r24, r20
    3bc2:	09 95       	icall
    3bc4:	f8 01       	movw	r30, r16
    3bc6:	23 81       	ldd	r18, Z+3	; 0x03
    3bc8:	82 2f       	mov	r24, r18
    3bca:	6d 2f       	mov	r22, r29
    3bcc:	0e 94 8f 2f 	call	0x5f1e	; 0x5f1e <__udivmodqi4>
    3bd0:	f0 e1       	ldi	r31, 0x10	; 16
    3bd2:	8f 9f       	mul	r24, r31
    3bd4:	a0 01       	movw	r20, r0
    3bd6:	11 24       	eor	r1, r1
    3bd8:	8c 9f       	mul	r24, r28
    3bda:	20 0d       	add	r18, r0
    3bdc:	11 24       	eor	r1, r1
    3bde:	82 2f       	mov	r24, r18
    3be0:	e0 91 67 08 	lds	r30, 0x0867	; 0x800867 <_ds3234_transfer>
    3be4:	f0 91 68 08 	lds	r31, 0x0868	; 0x800868 <_ds3234_transfer+0x1>
    3be8:	84 2b       	or	r24, r20
    3bea:	09 95       	icall
    3bec:	e0 91 65 08 	lds	r30, 0x0865	; 0x800865 <_ds3234_slave_unselect>
    3bf0:	f0 91 66 08 	lds	r31, 0x0866	; 0x800866 <_ds3234_slave_unselect+0x1>
    3bf4:	df 91       	pop	r29
    3bf6:	cf 91       	pop	r28
    3bf8:	1f 91       	pop	r17
    3bfa:	0f 91       	pop	r16
    3bfc:	09 94       	ijmp

00003bfe <ds3234_read_register>:
    3bfe:	cf 93       	push	r28
    3c00:	df 93       	push	r29
    3c02:	1f 92       	push	r1
    3c04:	cd b7       	in	r28, 0x3d	; 61
    3c06:	de b7       	in	r29, 0x3e	; 62
    3c08:	e0 91 63 08 	lds	r30, 0x0863	; 0x800863 <_ds3234_slave_select>
    3c0c:	f0 91 64 08 	lds	r31, 0x0864	; 0x800864 <_ds3234_slave_select+0x1>
    3c10:	89 83       	std	Y+1, r24	; 0x01
    3c12:	09 95       	icall
    3c14:	e0 91 67 08 	lds	r30, 0x0867	; 0x800867 <_ds3234_transfer>
    3c18:	f0 91 68 08 	lds	r31, 0x0868	; 0x800868 <_ds3234_transfer+0x1>
    3c1c:	89 81       	ldd	r24, Y+1	; 0x01
    3c1e:	09 95       	icall
    3c20:	e0 91 67 08 	lds	r30, 0x0867	; 0x800867 <_ds3234_transfer>
    3c24:	f0 91 68 08 	lds	r31, 0x0868	; 0x800868 <_ds3234_transfer+0x1>
    3c28:	80 e0       	ldi	r24, 0x00	; 0
    3c2a:	09 95       	icall
    3c2c:	e0 91 65 08 	lds	r30, 0x0865	; 0x800865 <_ds3234_slave_unselect>
    3c30:	f0 91 66 08 	lds	r31, 0x0866	; 0x800866 <_ds3234_slave_unselect+0x1>
    3c34:	89 83       	std	Y+1, r24	; 0x01
    3c36:	09 95       	icall
    3c38:	89 81       	ldd	r24, Y+1	; 0x01
    3c3a:	0f 90       	pop	r0
    3c3c:	df 91       	pop	r29
    3c3e:	cf 91       	pop	r28
    3c40:	08 95       	ret

00003c42 <ds3234_write_register>:
    3c42:	cf 93       	push	r28
    3c44:	df 93       	push	r29
    3c46:	00 d0       	rcall	.+0      	; 0x3c48 <ds3234_write_register+0x6>
    3c48:	cd b7       	in	r28, 0x3d	; 61
    3c4a:	de b7       	in	r29, 0x3e	; 62
    3c4c:	e0 91 63 08 	lds	r30, 0x0863	; 0x800863 <_ds3234_slave_select>
    3c50:	f0 91 64 08 	lds	r31, 0x0864	; 0x800864 <_ds3234_slave_select+0x1>
    3c54:	6a 83       	std	Y+2, r22	; 0x02
    3c56:	89 83       	std	Y+1, r24	; 0x01
    3c58:	09 95       	icall
    3c5a:	e0 91 67 08 	lds	r30, 0x0867	; 0x800867 <_ds3234_transfer>
    3c5e:	f0 91 68 08 	lds	r31, 0x0868	; 0x800868 <_ds3234_transfer+0x1>
    3c62:	89 81       	ldd	r24, Y+1	; 0x01
    3c64:	80 68       	ori	r24, 0x80	; 128
    3c66:	09 95       	icall
    3c68:	e0 91 67 08 	lds	r30, 0x0867	; 0x800867 <_ds3234_transfer>
    3c6c:	f0 91 68 08 	lds	r31, 0x0868	; 0x800868 <_ds3234_transfer+0x1>
    3c70:	6a 81       	ldd	r22, Y+2	; 0x02
    3c72:	86 2f       	mov	r24, r22
    3c74:	09 95       	icall
    3c76:	e0 91 65 08 	lds	r30, 0x0865	; 0x800865 <_ds3234_slave_unselect>
    3c7a:	f0 91 66 08 	lds	r31, 0x0866	; 0x800866 <_ds3234_slave_unselect+0x1>
    3c7e:	0f 90       	pop	r0
    3c80:	0f 90       	pop	r0
    3c82:	df 91       	pop	r29
    3c84:	cf 91       	pop	r28
    3c86:	09 94       	ijmp

00003c88 <ds3234_read_alarm1>:
    3c88:	af 92       	push	r10
    3c8a:	bf 92       	push	r11
    3c8c:	cf 92       	push	r12
    3c8e:	df 92       	push	r13
    3c90:	ef 92       	push	r14
    3c92:	ff 92       	push	r15
    3c94:	0f 93       	push	r16
    3c96:	1f 93       	push	r17
    3c98:	cf 93       	push	r28
    3c9a:	df 93       	push	r29
    3c9c:	00 d0       	rcall	.+0      	; 0x3c9e <ds3234_read_alarm1+0x16>
    3c9e:	cd b7       	in	r28, 0x3d	; 61
    3ca0:	de b7       	in	r29, 0x3e	; 62
    3ca2:	6c 01       	movw	r12, r24
    3ca4:	7b 01       	movw	r14, r22
    3ca6:	5a 01       	movw	r10, r20
    3ca8:	e0 91 63 08 	lds	r30, 0x0863	; 0x800863 <_ds3234_slave_select>
    3cac:	f0 91 64 08 	lds	r31, 0x0864	; 0x800864 <_ds3234_slave_select+0x1>
    3cb0:	09 95       	icall
    3cb2:	e0 91 67 08 	lds	r30, 0x0867	; 0x800867 <_ds3234_transfer>
    3cb6:	f0 91 68 08 	lds	r31, 0x0868	; 0x800868 <_ds3234_transfer+0x1>
    3cba:	87 e0       	ldi	r24, 0x07	; 7
    3cbc:	09 95       	icall
    3cbe:	e0 91 67 08 	lds	r30, 0x0867	; 0x800867 <_ds3234_transfer>
    3cc2:	f0 91 68 08 	lds	r31, 0x0868	; 0x800868 <_ds3234_transfer+0x1>
    3cc6:	80 e0       	ldi	r24, 0x00	; 0
    3cc8:	09 95       	icall
    3cca:	08 2f       	mov	r16, r24
    3ccc:	e0 91 67 08 	lds	r30, 0x0867	; 0x800867 <_ds3234_transfer>
    3cd0:	f0 91 68 08 	lds	r31, 0x0868	; 0x800868 <_ds3234_transfer+0x1>
    3cd4:	80 e0       	ldi	r24, 0x00	; 0
    3cd6:	09 95       	icall
    3cd8:	18 2f       	mov	r17, r24
    3cda:	e0 91 67 08 	lds	r30, 0x0867	; 0x800867 <_ds3234_transfer>
    3cde:	f0 91 68 08 	lds	r31, 0x0868	; 0x800868 <_ds3234_transfer+0x1>
    3ce2:	80 e0       	ldi	r24, 0x00	; 0
    3ce4:	09 95       	icall
    3ce6:	38 2f       	mov	r19, r24
    3ce8:	e0 91 67 08 	lds	r30, 0x0867	; 0x800867 <_ds3234_transfer>
    3cec:	f0 91 68 08 	lds	r31, 0x0868	; 0x800868 <_ds3234_transfer+0x1>
    3cf0:	80 e0       	ldi	r24, 0x00	; 0
    3cf2:	3a 83       	std	Y+2, r19	; 0x02
    3cf4:	09 95       	icall
    3cf6:	e0 91 65 08 	lds	r30, 0x0865	; 0x800865 <_ds3234_slave_unselect>
    3cfa:	f0 91 66 08 	lds	r31, 0x0866	; 0x800866 <_ds3234_slave_unselect+0x1>
    3cfe:	89 83       	std	Y+1, r24	; 0x01
    3d00:	09 95       	icall
    3d02:	91 e0       	ldi	r25, 0x01	; 1
    3d04:	f6 01       	movw	r30, r12
    3d06:	94 83       	std	Z+4, r25	; 0x04
    3d08:	90 2f       	mov	r25, r16
    3d0a:	99 1f       	adc	r25, r25
    3d0c:	99 27       	eor	r25, r25
    3d0e:	99 1f       	adc	r25, r25
    3d10:	f5 01       	movw	r30, r10
    3d12:	90 83       	st	Z, r25
    3d14:	3a 81       	ldd	r19, Y+2	; 0x02
    3d16:	89 81       	ldd	r24, Y+1	; 0x01
    3d18:	17 ff       	sbrs	r17, 7
    3d1a:	02 c0       	rjmp	.+4      	; 0x3d20 <ds3234_read_alarm1+0x98>
    3d1c:	92 60       	ori	r25, 0x02	; 2
    3d1e:	90 83       	st	Z, r25
    3d20:	37 ff       	sbrs	r19, 7
    3d22:	04 c0       	rjmp	.+8      	; 0x3d2c <ds3234_read_alarm1+0xa4>
    3d24:	f5 01       	movw	r30, r10
    3d26:	90 81       	ld	r25, Z
    3d28:	94 60       	ori	r25, 0x04	; 4
    3d2a:	90 83       	st	Z, r25
    3d2c:	87 ff       	sbrs	r24, 7
    3d2e:	04 c0       	rjmp	.+8      	; 0x3d38 <ds3234_read_alarm1+0xb0>
    3d30:	f5 01       	movw	r30, r10
    3d32:	90 81       	ld	r25, Z
    3d34:	98 60       	ori	r25, 0x08	; 8
    3d36:	90 83       	st	Z, r25
    3d38:	28 2f       	mov	r18, r24
    3d3a:	2f 73       	andi	r18, 0x3F	; 63
    3d3c:	98 2f       	mov	r25, r24
    3d3e:	9f 70       	andi	r25, 0x0F	; 15
    3d40:	86 ff       	sbrs	r24, 6
    3d42:	11 c0       	rjmp	.+34     	; 0x3d66 <ds3234_read_alarm1+0xde>
    3d44:	f5 01       	movw	r30, r10
    3d46:	80 81       	ld	r24, Z
    3d48:	80 61       	ori	r24, 0x10	; 16
    3d4a:	80 83       	st	Z, r24
    3d4c:	f6 01       	movw	r30, r12
    3d4e:	84 81       	ldd	r24, Z+4	; 0x04
    3d50:	82 60       	ori	r24, 0x02	; 2
    3d52:	84 83       	std	Z+4, r24	; 0x04
    3d54:	22 95       	swap	r18
    3d56:	2f 70       	andi	r18, 0x0F	; 15
    3d58:	fa e0       	ldi	r31, 0x0A	; 10
    3d5a:	2f 9f       	mul	r18, r31
    3d5c:	90 0d       	add	r25, r0
    3d5e:	11 24       	eor	r1, r1
    3d60:	f6 01       	movw	r30, r12
    3d62:	90 83       	st	Z, r25
    3d64:	08 c0       	rjmp	.+16     	; 0x3d76 <ds3234_read_alarm1+0xee>
    3d66:	22 95       	swap	r18
    3d68:	2f 70       	andi	r18, 0x0F	; 15
    3d6a:	fa e0       	ldi	r31, 0x0A	; 10
    3d6c:	2f 9f       	mul	r18, r31
    3d6e:	90 0d       	add	r25, r0
    3d70:	11 24       	eor	r1, r1
    3d72:	f6 01       	movw	r30, r12
    3d74:	91 83       	std	Z+1, r25	; 0x01
    3d76:	23 2f       	mov	r18, r19
    3d78:	2f 77       	andi	r18, 0x7F	; 127
    3d7a:	80 2f       	mov	r24, r16
    3d7c:	86 95       	lsr	r24
    3d7e:	86 95       	lsr	r24
    3d80:	86 95       	lsr	r24
    3d82:	8e 70       	andi	r24, 0x0E	; 14
    3d84:	98 2f       	mov	r25, r24
    3d86:	99 0f       	add	r25, r25
    3d88:	99 0f       	add	r25, r25
    3d8a:	89 0f       	add	r24, r25
    3d8c:	0f 70       	andi	r16, 0x0F	; 15
    3d8e:	08 0f       	add	r16, r24
    3d90:	f7 01       	movw	r30, r14
    3d92:	00 83       	st	Z, r16
    3d94:	81 2f       	mov	r24, r17
    3d96:	86 95       	lsr	r24
    3d98:	86 95       	lsr	r24
    3d9a:	86 95       	lsr	r24
    3d9c:	8e 70       	andi	r24, 0x0E	; 14
    3d9e:	98 2f       	mov	r25, r24
    3da0:	99 0f       	add	r25, r25
    3da2:	99 0f       	add	r25, r25
    3da4:	89 0f       	add	r24, r25
    3da6:	1f 70       	andi	r17, 0x0F	; 15
    3da8:	18 0f       	add	r17, r24
    3daa:	11 83       	std	Z+1, r17	; 0x01
    3dac:	93 2f       	mov	r25, r19
    3dae:	9f 70       	andi	r25, 0x0F	; 15
    3db0:	36 ff       	sbrs	r19, 6
    3db2:	08 c0       	rjmp	.+16     	; 0x3dc4 <ds3234_read_alarm1+0x13c>
    3db4:	34 fd       	sbrc	r19, 4
    3db6:	96 5f       	subi	r25, 0xF6	; 246
    3db8:	f7 01       	movw	r30, r14
    3dba:	92 83       	std	Z+2, r25	; 0x02
    3dbc:	22 70       	andi	r18, 0x02	; 2
    3dbe:	21 60       	ori	r18, 0x01	; 1
    3dc0:	23 83       	std	Z+3, r18	; 0x03
    3dc2:	09 c0       	rjmp	.+18     	; 0x3dd6 <ds3234_read_alarm1+0x14e>
    3dc4:	22 95       	swap	r18
    3dc6:	2f 70       	andi	r18, 0x0F	; 15
    3dc8:	fa e0       	ldi	r31, 0x0A	; 10
    3dca:	2f 9f       	mul	r18, r31
    3dcc:	90 0d       	add	r25, r0
    3dce:	11 24       	eor	r1, r1
    3dd0:	f7 01       	movw	r30, r14
    3dd2:	92 83       	std	Z+2, r25	; 0x02
    3dd4:	13 82       	std	Z+3, r1	; 0x03
    3dd6:	0f 90       	pop	r0
    3dd8:	0f 90       	pop	r0
    3dda:	df 91       	pop	r29
    3ddc:	cf 91       	pop	r28
    3dde:	1f 91       	pop	r17
    3de0:	0f 91       	pop	r16
    3de2:	ff 90       	pop	r15
    3de4:	ef 90       	pop	r14
    3de6:	df 90       	pop	r13
    3de8:	cf 90       	pop	r12
    3dea:	bf 90       	pop	r11
    3dec:	af 90       	pop	r10
    3dee:	08 95       	ret

00003df0 <ds3234_write_alarm1>:
    3df0:	0f 93       	push	r16
    3df2:	1f 93       	push	r17
    3df4:	cf 93       	push	r28
    3df6:	df 93       	push	r29
    3df8:	fc 01       	movw	r30, r24
    3dfa:	db 01       	movw	r26, r22
    3dfc:	2c 91       	ld	r18, X
    3dfe:	5a e0       	ldi	r21, 0x0A	; 10
    3e00:	82 2f       	mov	r24, r18
    3e02:	65 2f       	mov	r22, r21
    3e04:	0e 94 8f 2f 	call	0x5f1e	; 0x5f1e <__udivmodqi4>
    3e08:	90 e1       	ldi	r25, 0x10	; 16
    3e0a:	89 9f       	mul	r24, r25
    3e0c:	80 01       	movw	r16, r0
    3e0e:	11 24       	eor	r1, r1
    3e10:	36 ef       	ldi	r19, 0xF6	; 246
    3e12:	83 9f       	mul	r24, r19
    3e14:	20 0d       	add	r18, r0
    3e16:	11 24       	eor	r1, r1
    3e18:	02 2b       	or	r16, r18
    3e1a:	11 96       	adiw	r26, 0x01	; 1
    3e1c:	2c 91       	ld	r18, X
    3e1e:	11 97       	sbiw	r26, 0x01	; 1
    3e20:	82 2f       	mov	r24, r18
    3e22:	0e 94 8f 2f 	call	0x5f1e	; 0x5f1e <__udivmodqi4>
    3e26:	90 e1       	ldi	r25, 0x10	; 16
    3e28:	89 9f       	mul	r24, r25
    3e2a:	b0 01       	movw	r22, r0
    3e2c:	11 24       	eor	r1, r1
    3e2e:	83 9f       	mul	r24, r19
    3e30:	20 0d       	add	r18, r0
    3e32:	11 24       	eor	r1, r1
    3e34:	12 2f       	mov	r17, r18
    3e36:	16 2b       	or	r17, r22
    3e38:	13 96       	adiw	r26, 0x03	; 3
    3e3a:	8c 91       	ld	r24, X
    3e3c:	13 97       	sbiw	r26, 0x03	; 3
    3e3e:	12 96       	adiw	r26, 0x02	; 2
    3e40:	2c 91       	ld	r18, X
    3e42:	88 23       	and	r24, r24
    3e44:	79 f0       	breq	.+30     	; 0x3e64 <ds3234_write_alarm1+0x74>
    3e46:	82 2f       	mov	r24, r18
    3e48:	65 2f       	mov	r22, r21
    3e4a:	0e 94 8f 2f 	call	0x5f1e	; 0x5f1e <__udivmodqi4>
    3e4e:	83 9f       	mul	r24, r19
    3e50:	20 0d       	add	r18, r0
    3e52:	11 24       	eor	r1, r1
    3e54:	90 e1       	ldi	r25, 0x10	; 16
    3e56:	89 9f       	mul	r24, r25
    3e58:	b0 01       	movw	r22, r0
    3e5a:	11 24       	eor	r1, r1
    3e5c:	26 2b       	or	r18, r22
    3e5e:	d2 2f       	mov	r29, r18
    3e60:	d0 64       	ori	r29, 0x40	; 64
    3e62:	0d c0       	rjmp	.+26     	; 0x3e7e <ds3234_write_alarm1+0x8e>
    3e64:	82 2f       	mov	r24, r18
    3e66:	65 2f       	mov	r22, r21
    3e68:	0e 94 8f 2f 	call	0x5f1e	; 0x5f1e <__udivmodqi4>
    3e6c:	90 e1       	ldi	r25, 0x10	; 16
    3e6e:	89 9f       	mul	r24, r25
    3e70:	b0 01       	movw	r22, r0
    3e72:	11 24       	eor	r1, r1
    3e74:	83 9f       	mul	r24, r19
    3e76:	20 0d       	add	r18, r0
    3e78:	11 24       	eor	r1, r1
    3e7a:	d2 2f       	mov	r29, r18
    3e7c:	d6 2b       	or	r29, r22
    3e7e:	84 81       	ldd	r24, Z+4	; 0x04
    3e80:	81 ff       	sbrs	r24, 1
    3e82:	12 c0       	rjmp	.+36     	; 0x3ea8 <ds3234_write_alarm1+0xb8>
    3e84:	c0 81       	ld	r28, Z
    3e86:	8c 2f       	mov	r24, r28
    3e88:	6a e0       	ldi	r22, 0x0A	; 10
    3e8a:	0e 94 8f 2f 	call	0x5f1e	; 0x5f1e <__udivmodqi4>
    3e8e:	90 e1       	ldi	r25, 0x10	; 16
    3e90:	89 9f       	mul	r24, r25
    3e92:	b0 01       	movw	r22, r0
    3e94:	11 24       	eor	r1, r1
    3e96:	9a e0       	ldi	r25, 0x0A	; 10
    3e98:	89 9f       	mul	r24, r25
    3e9a:	c0 19       	sub	r28, r0
    3e9c:	11 24       	eor	r1, r1
    3e9e:	2c 2f       	mov	r18, r28
    3ea0:	26 2b       	or	r18, r22
    3ea2:	c2 2f       	mov	r28, r18
    3ea4:	c0 64       	ori	r28, 0x40	; 64
    3ea6:	0e c0       	rjmp	.+28     	; 0x3ec4 <ds3234_write_alarm1+0xd4>
    3ea8:	c1 81       	ldd	r28, Z+1	; 0x01
    3eaa:	8c 2f       	mov	r24, r28
    3eac:	6a e0       	ldi	r22, 0x0A	; 10
    3eae:	0e 94 8f 2f 	call	0x5f1e	; 0x5f1e <__udivmodqi4>
    3eb2:	90 e1       	ldi	r25, 0x10	; 16
    3eb4:	89 9f       	mul	r24, r25
    3eb6:	90 01       	movw	r18, r0
    3eb8:	11 24       	eor	r1, r1
    3eba:	9a e0       	ldi	r25, 0x0A	; 10
    3ebc:	89 9f       	mul	r24, r25
    3ebe:	c0 19       	sub	r28, r0
    3ec0:	11 24       	eor	r1, r1
    3ec2:	c2 2b       	or	r28, r18
    3ec4:	40 fd       	sbrc	r20, 0
    3ec6:	00 68       	ori	r16, 0x80	; 128
    3ec8:	41 fd       	sbrc	r20, 1
    3eca:	10 68       	ori	r17, 0x80	; 128
    3ecc:	42 fd       	sbrc	r20, 2
    3ece:	d0 68       	ori	r29, 0x80	; 128
    3ed0:	43 fd       	sbrc	r20, 3
    3ed2:	c0 68       	ori	r28, 0x80	; 128
    3ed4:	44 fd       	sbrc	r20, 4
    3ed6:	c0 64       	ori	r28, 0x40	; 64
    3ed8:	e0 91 63 08 	lds	r30, 0x0863	; 0x800863 <_ds3234_slave_select>
    3edc:	f0 91 64 08 	lds	r31, 0x0864	; 0x800864 <_ds3234_slave_select+0x1>
    3ee0:	09 95       	icall
    3ee2:	e0 91 67 08 	lds	r30, 0x0867	; 0x800867 <_ds3234_transfer>
    3ee6:	f0 91 68 08 	lds	r31, 0x0868	; 0x800868 <_ds3234_transfer+0x1>
    3eea:	87 e8       	ldi	r24, 0x87	; 135
    3eec:	09 95       	icall
    3eee:	e0 91 67 08 	lds	r30, 0x0867	; 0x800867 <_ds3234_transfer>
    3ef2:	f0 91 68 08 	lds	r31, 0x0868	; 0x800868 <_ds3234_transfer+0x1>
    3ef6:	80 2f       	mov	r24, r16
    3ef8:	09 95       	icall
    3efa:	e0 91 67 08 	lds	r30, 0x0867	; 0x800867 <_ds3234_transfer>
    3efe:	f0 91 68 08 	lds	r31, 0x0868	; 0x800868 <_ds3234_transfer+0x1>
    3f02:	81 2f       	mov	r24, r17
    3f04:	09 95       	icall
    3f06:	e0 91 67 08 	lds	r30, 0x0867	; 0x800867 <_ds3234_transfer>
    3f0a:	f0 91 68 08 	lds	r31, 0x0868	; 0x800868 <_ds3234_transfer+0x1>
    3f0e:	8d 2f       	mov	r24, r29
    3f10:	09 95       	icall
    3f12:	e0 91 67 08 	lds	r30, 0x0867	; 0x800867 <_ds3234_transfer>
    3f16:	f0 91 68 08 	lds	r31, 0x0868	; 0x800868 <_ds3234_transfer+0x1>
    3f1a:	8c 2f       	mov	r24, r28
    3f1c:	09 95       	icall
    3f1e:	e0 91 65 08 	lds	r30, 0x0865	; 0x800865 <_ds3234_slave_unselect>
    3f22:	f0 91 66 08 	lds	r31, 0x0866	; 0x800866 <_ds3234_slave_unselect+0x1>
    3f26:	df 91       	pop	r29
    3f28:	cf 91       	pop	r28
    3f2a:	1f 91       	pop	r17
    3f2c:	0f 91       	pop	r16
    3f2e:	09 94       	ijmp

00003f30 <_Z12spi_transferh>:
    3f30:	8e bd       	out	0x2e, r24	; 46
    3f32:	0d b4       	in	r0, 0x2d	; 45
    3f34:	07 fe       	sbrs	r0, 7
    3f36:	fd cf       	rjmp	.-6      	; 0x3f32 <_Z12spi_transferh+0x2>
    3f38:	8e b5       	in	r24, 0x2e	; 46
    3f3a:	08 95       	ret

00003f3c <_Z23ds3234_spi_slave_selectv>:
    3f3c:	2a 98       	cbi	0x05, 2	; 5
    3f3e:	08 95       	ret

00003f40 <_Z25ds3234_spi_slave_unselectv>:
    3f40:	2a 9a       	sbi	0x05, 2	; 5
    3f42:	08 95       	ret

00003f44 <_Z8spi_initv>:
    3f44:	8d e8       	ldi	r24, 0x8D	; 141
    3f46:	94 e0       	ldi	r25, 0x04	; 4
    3f48:	0e 94 a9 28 	call	0x5152	; 0x5152 <avrSerialPrint_P>
    3f4c:	84 b1       	in	r24, 0x04	; 4
    3f4e:	8c 62       	ori	r24, 0x2C	; 44
    3f50:	84 b9       	out	0x04, r24	; 4
    3f52:	24 98       	cbi	0x04, 4	; 4
    3f54:	22 9a       	sbi	0x04, 2	; 4
    3f56:	8c e1       	ldi	r24, 0x1C	; 28
    3f58:	8c bd       	out	0x2c, r24	; 44
    3f5a:	8c b5       	in	r24, 0x2c	; 44
    3f5c:	80 64       	ori	r24, 0x40	; 64
    3f5e:	8c bd       	out	0x2c, r24	; 44
    3f60:	2a 98       	cbi	0x05, 2	; 5
    3f62:	2a 9a       	sbi	0x05, 2	; 5
    3f64:	08 95       	ret

00003f66 <_ZL11TaskReadSHTPv>:
    3f66:	cf 93       	push	r28
    3f68:	df 93       	push	r29
    3f6a:	00 d0       	rcall	.+0      	; 0x3f6c <_ZL11TaskReadSHTPv+0x6>
    3f6c:	00 d0       	rcall	.+0      	; 0x3f6e <_ZL11TaskReadSHTPv+0x8>
    3f6e:	00 d0       	rcall	.+0      	; 0x3f70 <_ZL11TaskReadSHTPv+0xa>
    3f70:	cd b7       	in	r28, 0x3d	; 61
    3f72:	de b7       	in	r29, 0x3e	; 62
    3f74:	25 9a       	sbi	0x04, 5	; 4
    3f76:	2d 98       	cbi	0x05, 5	; 5
    3f78:	83 e0       	ldi	r24, 0x03	; 3
    3f7a:	80 93 6e 01 	sts	0x016E, r24	; 0x80016e <canSleep>
    3f7e:	87 eb       	ldi	r24, 0xB7	; 183
    3f80:	91 e0       	ldi	r25, 0x01	; 1
    3f82:	be dc       	rcall	.-1668   	; 0x3900 <ds3234_read_time>
    3f84:	10 92 b7 01 	sts	0x01B7, r1	; 0x8001b7 <time>
    3f88:	82 eb       	ldi	r24, 0xB2	; 178
    3f8a:	91 e0       	ldi	r25, 0x01	; 1
    3f8c:	72 dd       	rcall	.-1308   	; 0x3a72 <ds3234_read_date>
    3f8e:	4e e0       	ldi	r20, 0x0E	; 14
    3f90:	67 eb       	ldi	r22, 0xB7	; 183
    3f92:	71 e0       	ldi	r23, 0x01	; 1
    3f94:	82 eb       	ldi	r24, 0xB2	; 178
    3f96:	91 e0       	ldi	r25, 0x01	; 1
    3f98:	2b df       	rcall	.-426    	; 0x3df0 <ds3234_write_alarm1>
    3f9a:	8e e0       	ldi	r24, 0x0E	; 14
    3f9c:	30 de       	rcall	.-928    	; 0x3bfe <ds3234_read_register>
    3f9e:	68 2f       	mov	r22, r24
    3fa0:	65 60       	ori	r22, 0x05	; 5
    3fa2:	8e e0       	ldi	r24, 0x0E	; 14
    3fa4:	4e de       	rcall	.-868    	; 0x3c42 <ds3234_write_register>
    3fa6:	8f e0       	ldi	r24, 0x0F	; 15
    3fa8:	2a de       	rcall	.-940    	; 0x3bfe <ds3234_read_register>
    3faa:	68 2f       	mov	r22, r24
    3fac:	6e 7f       	andi	r22, 0xFE	; 254
    3fae:	8f e0       	ldi	r24, 0x0F	; 15
    3fb0:	48 de       	rcall	.-880    	; 0x3c42 <ds3234_write_register>
    3fb2:	10 92 69 00 	sts	0x0069, r1	; 0x800069 <__data_load_end+0x7f98f3>
    3fb6:	81 e0       	ldi	r24, 0x01	; 1
    3fb8:	8d bb       	out	0x1d, r24	; 29
    3fba:	84 e6       	ldi	r24, 0x64	; 100
    3fbc:	90 e0       	ldi	r25, 0x00	; 0
    3fbe:	0e 94 02 2e 	call	0x5c04	; 0x5c04 <vTaskDelay>
    3fc2:	8e e2       	ldi	r24, 0x2E	; 46
    3fc4:	94 e0       	ldi	r25, 0x04	; 4
    3fc6:	c5 d6       	rcall	.+3466   	; 0x4d52 <xSerialPrint_P>
    3fc8:	88 ee       	ldi	r24, 0xE8	; 232
    3fca:	93 e0       	ldi	r25, 0x03	; 3
    3fcc:	0e 94 02 2e 	call	0x5c04	; 0x5c04 <vTaskDelay>
    3fd0:	8f e2       	ldi	r24, 0x2F	; 47
    3fd2:	92 e0       	ldi	r25, 0x02	; 2
    3fd4:	0e 94 77 29 	call	0x52ee	; 0x52ee <pvPortMalloc>
    3fd8:	90 93 70 01 	sts	0x0170, r25	; 0x800170 <fs+0x1>
    3fdc:	80 93 6f 01 	sts	0x016F, r24	; 0x80016f <fs>
    3fe0:	89 2b       	or	r24, r25
    3fe2:	19 f4       	brne	.+6      	; 0x3fea <_ZL11TaskReadSHTPv+0x84>
    3fe4:	83 e1       	ldi	r24, 0x13	; 19
    3fe6:	94 e0       	ldi	r25, 0x04	; 4
    3fe8:	b4 d6       	rcall	.+3432   	; 0x4d52 <xSerialPrint_P>
    3fea:	41 e0       	ldi	r20, 0x01	; 1
    3fec:	6d e2       	ldi	r22, 0x2D	; 45
    3fee:	71 e0       	ldi	r23, 0x01	; 1
    3ff0:	80 91 6f 01 	lds	r24, 0x016F	; 0x80016f <fs>
    3ff4:	90 91 70 01 	lds	r25, 0x0170	; 0x800170 <fs+0x1>
    3ff8:	0e 94 25 12 	call	0x244a	; 0x244a <f_mount>
    3ffc:	1f 92       	push	r1
    3ffe:	8f 93       	push	r24
    4000:	85 e0       	ldi	r24, 0x05	; 5
    4002:	94 e0       	ldi	r25, 0x04	; 4
    4004:	9f 93       	push	r25
    4006:	8f 93       	push	r24
    4008:	72 d6       	rcall	.+3300   	; 0x4cee <xSerialPrintf_P>
    400a:	82 e2       	ldi	r24, 0x22	; 34
    400c:	90 e0       	ldi	r25, 0x00	; 0
    400e:	0e 94 77 29 	call	0x52ee	; 0x52ee <pvPortMalloc>
    4012:	7c 01       	movw	r14, r24
    4014:	0f 90       	pop	r0
    4016:	0f 90       	pop	r0
    4018:	0f 90       	pop	r0
    401a:	0f 90       	pop	r0
    401c:	89 2b       	or	r24, r25
    401e:	61 f4       	brne	.+24     	; 0x4038 <_ZL11TaskReadSHTPv+0xd2>
    4020:	1f 92       	push	r1
    4022:	82 e2       	ldi	r24, 0x22	; 34
    4024:	8f 93       	push	r24
    4026:	89 ee       	ldi	r24, 0xE9	; 233
    4028:	93 e0       	ldi	r25, 0x03	; 3
    402a:	9f 93       	push	r25
    402c:	8f 93       	push	r24
    402e:	5f d6       	rcall	.+3262   	; 0x4cee <xSerialPrintf_P>
    4030:	0f 90       	pop	r0
    4032:	0f 90       	pop	r0
    4034:	0f 90       	pop	r0
    4036:	0f 90       	pop	r0
    4038:	42 e3       	ldi	r20, 0x32	; 50
    403a:	60 e1       	ldi	r22, 0x10	; 16
    403c:	71 e0       	ldi	r23, 0x01	; 1
    403e:	c7 01       	movw	r24, r14
    4040:	0e 94 6b 12 	call	0x24d6	; 0x24d6 <f_open>
    4044:	1f 92       	push	r1
    4046:	8f 93       	push	r24
    4048:	87 ed       	ldi	r24, 0xD7	; 215
    404a:	93 e0       	ldi	r25, 0x03	; 3
    404c:	9f 93       	push	r25
    404e:	8f 93       	push	r24
    4050:	4e d6       	rcall	.+3228   	; 0x4cee <xSerialPrintf_P>
    4052:	81 e0       	ldi	r24, 0x01	; 1
    4054:	80 93 b1 01 	sts	0x01B1, r24	; 0x8001b1 <readCount>
    4058:	0f 90       	pop	r0
    405a:	0f 90       	pop	r0
    405c:	0f 90       	pop	r0
    405e:	0f 90       	pop	r0
    4060:	00 e0       	ldi	r16, 0x00	; 0
    4062:	8c e9       	ldi	r24, 0x9C	; 156
    4064:	a8 2e       	mov	r10, r24
    4066:	83 e0       	ldi	r24, 0x03	; 3
    4068:	b8 2e       	mov	r11, r24
    406a:	93 e8       	ldi	r25, 0x83	; 131
    406c:	89 2e       	mov	r8, r25
    406e:	93 e0       	ldi	r25, 0x03	; 3
    4070:	99 2e       	mov	r9, r25
    4072:	25 e4       	ldi	r18, 0x45	; 69
    4074:	62 2e       	mov	r6, r18
    4076:	23 e0       	ldi	r18, 0x03	; 3
    4078:	72 2e       	mov	r7, r18
    407a:	31 e7       	ldi	r19, 0x71	; 113
    407c:	c3 2e       	mov	r12, r19
    407e:	31 e0       	ldi	r19, 0x01	; 1
    4080:	d3 2e       	mov	r13, r19
    4082:	0e 94 5d 2e 	call	0x5cba	; 0x5cba <xTaskGetCurrentTaskHandle>
    4086:	90 93 be 01 	sts	0x01BE, r25	; 0x8001be <_ZL13xTaskToNotify+0x1>
    408a:	80 93 bd 01 	sts	0x01BD, r24	; 0x8001bd <_ZL13xTaskToNotify>
    408e:	43 98       	cbi	0x08, 3	; 8
    4090:	80 91 6e 01 	lds	r24, 0x016E	; 0x80016e <canSleep>
    4094:	81 11       	cpse	r24, r1
    4096:	19 c0       	rjmp	.+50     	; 0x40ca <_ZL11TaskReadSHTPv+0x164>
    4098:	0f b6       	in	r0, 0x3f	; 63
    409a:	f8 94       	cli
    409c:	0f 92       	push	r0
    409e:	8c b5       	in	r24, 0x2c	; 44
    40a0:	8f 7b       	andi	r24, 0xBF	; 191
    40a2:	8c bd       	out	0x2c, r24	; 44
    40a4:	2d 98       	cbi	0x05, 5	; 5
    40a6:	83 b7       	in	r24, 0x33	; 51
    40a8:	81 7f       	andi	r24, 0xF1	; 241
    40aa:	84 60       	ori	r24, 0x04	; 4
    40ac:	83 bf       	out	0x33, r24	; 51
    40ae:	83 b7       	in	r24, 0x33	; 51
    40b0:	81 60       	ori	r24, 0x01	; 1
    40b2:	83 bf       	out	0x33, r24	; 51
    40b4:	78 94       	sei
    40b6:	88 95       	sleep
    40b8:	83 b7       	in	r24, 0x33	; 51
    40ba:	8e 7f       	andi	r24, 0xFE	; 254
    40bc:	83 bf       	out	0x33, r24	; 51
    40be:	f8 94       	cli
    40c0:	8c b5       	in	r24, 0x2c	; 44
    40c2:	80 64       	ori	r24, 0x40	; 64
    40c4:	8c bd       	out	0x2c, r24	; 44
    40c6:	0f 90       	pop	r0
    40c8:	0f be       	out	0x3f, r0	; 63
    40ca:	60 e3       	ldi	r22, 0x30	; 48
    40cc:	72 ef       	ldi	r23, 0xF2	; 242
    40ce:	81 e0       	ldi	r24, 0x01	; 1
    40d0:	0e 94 62 2e 	call	0x5cc4	; 0x5cc4 <ulTaskNotifyTake>
    40d4:	1b 01       	movw	r2, r22
    40d6:	2c 01       	movw	r4, r24
    40d8:	43 9a       	sbi	0x08, 3	; 8
    40da:	8f e0       	ldi	r24, 0x0F	; 15
    40dc:	90 dd       	rcall	.-1248   	; 0x3bfe <ds3234_read_register>
    40de:	68 2f       	mov	r22, r24
    40e0:	6c 7f       	andi	r22, 0xFC	; 252
    40e2:	8f e0       	ldi	r24, 0x0F	; 15
    40e4:	ae dd       	rcall	.-1188   	; 0x3c42 <ds3234_write_register>
    40e6:	2a 94       	dec	r2
    40e8:	23 28       	or	r2, r3
    40ea:	24 28       	or	r2, r4
    40ec:	25 28       	or	r2, r5
    40ee:	09 f0       	breq	.+2      	; 0x40f2 <_ZL11TaskReadSHTPv+0x18c>
    40f0:	e5 c0       	rjmp	.+458    	; 0x42bc <_ZL11TaskReadSHTPv+0x356>
    40f2:	2d 9a       	sbi	0x05, 5	; 5
    40f4:	10 e0       	ldi	r17, 0x00	; 0
    40f6:	80 91 b1 01 	lds	r24, 0x01B1	; 0x8001b1 <readCount>
    40fa:	18 17       	cp	r17, r24
    40fc:	08 f0       	brcs	.+2      	; 0x4100 <_ZL11TaskReadSHTPv+0x19a>
    40fe:	b2 c0       	rjmp	.+356    	; 0x4264 <_ZL11TaskReadSHTPv+0x2fe>
    4100:	13 30       	cpi	r17, 0x03	; 3
    4102:	51 f4       	brne	.+20     	; 0x4118 <_ZL11TaskReadSHTPv+0x1b2>
    4104:	8e ec       	ldi	r24, 0xCE	; 206
    4106:	93 e0       	ldi	r25, 0x03	; 3
    4108:	24 d6       	rcall	.+3144   	; 0x4d52 <xSerialPrint_P>
    410a:	61 e0       	ldi	r22, 0x01	; 1
    410c:	70 e0       	ldi	r23, 0x00	; 0
    410e:	8f eb       	ldi	r24, 0xBF	; 191
    4110:	91 e0       	ldi	r25, 0x01	; 1
    4112:	25 db       	rcall	.-2486   	; 0x375e <_ZN5SHT1x9setHeaterEi>
    4114:	01 e0       	ldi	r16, 0x01	; 1
    4116:	0b c0       	rjmp	.+22     	; 0x412e <_ZL11TaskReadSHTPv+0x1c8>
    4118:	14 31       	cpi	r17, 0x14	; 20
    411a:	49 f4       	brne	.+18     	; 0x412e <_ZL11TaskReadSHTPv+0x1c8>
    411c:	60 e0       	ldi	r22, 0x00	; 0
    411e:	70 e0       	ldi	r23, 0x00	; 0
    4120:	8f eb       	ldi	r24, 0xBF	; 191
    4122:	91 e0       	ldi	r25, 0x01	; 1
    4124:	1c db       	rcall	.-2504   	; 0x375e <_ZN5SHT1x9setHeaterEi>
    4126:	84 ec       	ldi	r24, 0xC4	; 196
    4128:	93 e0       	ldi	r25, 0x03	; 3
    412a:	13 d6       	rcall	.+3110   	; 0x4d52 <xSerialPrint_P>
    412c:	00 e0       	ldi	r16, 0x00	; 0
    412e:	87 eb       	ldi	r24, 0xB7	; 183
    4130:	91 e0       	ldi	r25, 0x01	; 1
    4132:	e6 db       	rcall	.-2100   	; 0x3900 <ds3234_read_time>
    4134:	82 eb       	ldi	r24, 0xB2	; 178
    4136:	91 e0       	ldi	r25, 0x01	; 1
    4138:	9c dc       	rcall	.-1736   	; 0x3a72 <ds3234_read_date>
    413a:	80 91 b3 01 	lds	r24, 0x01B3	; 0x8001b3 <date+0x1>
    413e:	1f 92       	push	r1
    4140:	8f 93       	push	r24
    4142:	80 91 b4 01 	lds	r24, 0x01B4	; 0x8001b4 <date+0x2>
    4146:	1f 92       	push	r1
    4148:	8f 93       	push	r24
    414a:	80 91 b5 01 	lds	r24, 0x01B5	; 0x8001b5 <date+0x3>
    414e:	90 e0       	ldi	r25, 0x00	; 0
    4150:	80 53       	subi	r24, 0x30	; 48
    4152:	98 4f       	sbci	r25, 0xF8	; 248
    4154:	9f 93       	push	r25
    4156:	8f 93       	push	r24
    4158:	a5 eb       	ldi	r26, 0xB5	; 181
    415a:	b3 e0       	ldi	r27, 0x03	; 3
    415c:	bf 93       	push	r27
    415e:	af 93       	push	r26
    4160:	c6 d5       	rcall	.+2956   	; 0x4cee <xSerialPrintf_P>
    4162:	80 91 b7 01 	lds	r24, 0x01B7	; 0x8001b7 <time>
    4166:	1f 92       	push	r1
    4168:	8f 93       	push	r24
    416a:	80 91 b8 01 	lds	r24, 0x01B8	; 0x8001b8 <time+0x1>
    416e:	1f 92       	push	r1
    4170:	8f 93       	push	r24
    4172:	80 91 b9 01 	lds	r24, 0x01B9	; 0x8001b9 <time+0x2>
    4176:	1f 92       	push	r1
    4178:	8f 93       	push	r24
    417a:	a5 ea       	ldi	r26, 0xA5	; 165
    417c:	b3 e0       	ldi	r27, 0x03	; 3
    417e:	bf 93       	push	r27
    4180:	af 93       	push	r26
    4182:	b5 d5       	rcall	.+2922   	; 0x4cee <xSerialPrintf_P>
    4184:	1f 92       	push	r1
    4186:	0f 93       	push	r16
    4188:	1f 92       	push	r1
    418a:	1f 93       	push	r17
    418c:	bf 92       	push	r11
    418e:	af 92       	push	r10
    4190:	ae d5       	rcall	.+2908   	; 0x4cee <xSerialPrintf_P>
    4192:	8f eb       	ldi	r24, 0xBF	; 191
    4194:	91 e0       	ldi	r25, 0x01	; 1
    4196:	15 db       	rcall	.-2518   	; 0x37c2 <_ZN5SHT1x16readTemperatureCEv>
    4198:	56 2e       	mov	r5, r22
    419a:	47 2e       	mov	r4, r23
    419c:	38 2e       	mov	r3, r24
    419e:	29 2e       	mov	r2, r25
    41a0:	8f eb       	ldi	r24, 0xBF	; 191
    41a2:	91 e0       	ldi	r25, 0x01	; 1
    41a4:	23 db       	rcall	.-2490   	; 0x37ec <_ZN5SHT1x12readHumidityEv>
    41a6:	9f 93       	push	r25
    41a8:	8f 93       	push	r24
    41aa:	7f 93       	push	r23
    41ac:	6f 93       	push	r22
    41ae:	2f 92       	push	r2
    41b0:	3f 92       	push	r3
    41b2:	4f 92       	push	r4
    41b4:	5f 92       	push	r5
    41b6:	9f 92       	push	r9
    41b8:	8f 92       	push	r8
    41ba:	6b 83       	std	Y+3, r22	; 0x03
    41bc:	7c 83       	std	Y+4, r23	; 0x04
    41be:	8d 83       	std	Y+5, r24	; 0x05
    41c0:	9e 83       	std	Y+6, r25	; 0x06
    41c2:	95 d5       	rcall	.+2858   	; 0x4cee <xSerialPrintf_P>
    41c4:	0f b6       	in	r0, 0x3f	; 63
    41c6:	f8 94       	cli
    41c8:	de bf       	out	0x3e, r29	; 62
    41ca:	0f be       	out	0x3f, r0	; 63
    41cc:	cd bf       	out	0x3d, r28	; 61
    41ce:	9e 81       	ldd	r25, Y+6	; 0x06
    41d0:	9f 93       	push	r25
    41d2:	8d 81       	ldd	r24, Y+5	; 0x05
    41d4:	8f 93       	push	r24
    41d6:	7c 81       	ldd	r23, Y+4	; 0x04
    41d8:	7f 93       	push	r23
    41da:	6b 81       	ldd	r22, Y+3	; 0x03
    41dc:	6f 93       	push	r22
    41de:	2f 92       	push	r2
    41e0:	3f 92       	push	r3
    41e2:	4f 92       	push	r4
    41e4:	5f 92       	push	r5
    41e6:	1f 92       	push	r1
    41e8:	0f 93       	push	r16
    41ea:	1f 92       	push	r1
    41ec:	1f 93       	push	r17
    41ee:	80 91 b7 01 	lds	r24, 0x01B7	; 0x8001b7 <time>
    41f2:	1f 92       	push	r1
    41f4:	8f 93       	push	r24
    41f6:	80 91 b8 01 	lds	r24, 0x01B8	; 0x8001b8 <time+0x1>
    41fa:	1f 92       	push	r1
    41fc:	8f 93       	push	r24
    41fe:	80 91 b9 01 	lds	r24, 0x01B9	; 0x8001b9 <time+0x2>
    4202:	1f 92       	push	r1
    4204:	8f 93       	push	r24
    4206:	80 91 b3 01 	lds	r24, 0x01B3	; 0x8001b3 <date+0x1>
    420a:	1f 92       	push	r1
    420c:	8f 93       	push	r24
    420e:	80 91 b4 01 	lds	r24, 0x01B4	; 0x8001b4 <date+0x2>
    4212:	1f 92       	push	r1
    4214:	8f 93       	push	r24
    4216:	80 91 b5 01 	lds	r24, 0x01B5	; 0x8001b5 <date+0x3>
    421a:	90 e0       	ldi	r25, 0x00	; 0
    421c:	80 53       	subi	r24, 0x30	; 48
    421e:	98 4f       	sbci	r25, 0xF8	; 248
    4220:	9f 93       	push	r25
    4222:	8f 93       	push	r24
    4224:	7f 92       	push	r7
    4226:	6f 92       	push	r6
    4228:	1f 92       	push	r1
    422a:	b0 e4       	ldi	r27, 0x40	; 64
    422c:	bf 93       	push	r27
    422e:	df 92       	push	r13
    4230:	cf 92       	push	r12
    4232:	0e 94 dd 32 	call	0x65ba	; 0x65ba <snprintf_P>
    4236:	f6 01       	movw	r30, r12
    4238:	01 90       	ld	r0, Z+
    423a:	00 20       	and	r0, r0
    423c:	e9 f7       	brne	.-6      	; 0x4238 <_ZL11TaskReadSHTPv+0x2d2>
    423e:	31 97       	sbiw	r30, 0x01	; 1
    4240:	af 01       	movw	r20, r30
    4242:	41 57       	subi	r20, 0x71	; 113
    4244:	51 40       	sbci	r21, 0x01	; 1
    4246:	9e 01       	movw	r18, r28
    4248:	2f 5f       	subi	r18, 0xFF	; 255
    424a:	3f 4f       	sbci	r19, 0xFF	; 255
    424c:	61 e7       	ldi	r22, 0x71	; 113
    424e:	71 e0       	ldi	r23, 0x01	; 1
    4250:	c7 01       	movw	r24, r14
    4252:	0e 94 07 14 	call	0x280e	; 0x280e <f_write>
    4256:	1f 5f       	subi	r17, 0xFF	; 255
    4258:	0f b6       	in	r0, 0x3f	; 63
    425a:	f8 94       	cli
    425c:	de bf       	out	0x3e, r29	; 62
    425e:	0f be       	out	0x3f, r0	; 63
    4260:	cd bf       	out	0x3d, r28	; 61
    4262:	49 cf       	rjmp	.-366    	; 0x40f6 <_ZL11TaskReadSHTPv+0x190>
    4264:	81 e0       	ldi	r24, 0x01	; 1
    4266:	80 93 b1 01 	sts	0x01B1, r24	; 0x8001b1 <readCount>
    426a:	80 91 b8 01 	lds	r24, 0x01B8	; 0x8001b8 <time+0x1>
    426e:	8a 30       	cpi	r24, 0x0A	; 10
    4270:	31 f4       	brne	.+12     	; 0x427e <_ZL11TaskReadSHTPv+0x318>
    4272:	85 e3       	ldi	r24, 0x35	; 53
    4274:	93 e0       	ldi	r25, 0x03	; 3
    4276:	6d d5       	rcall	.+2778   	; 0x4d52 <xSerialPrint_P>
    4278:	89 e1       	ldi	r24, 0x19	; 25
    427a:	80 93 b1 01 	sts	0x01B1, r24	; 0x8001b1 <readCount>
    427e:	80 91 b8 01 	lds	r24, 0x01B8	; 0x8001b8 <time+0x1>
    4282:	8b 33       	cpi	r24, 0x3B	; 59
    4284:	71 f4       	brne	.+28     	; 0x42a2 <_ZL11TaskReadSHTPv+0x33c>
    4286:	c7 01       	movw	r24, r14
    4288:	0e 94 b1 15 	call	0x2b62	; 0x2b62 <f_sync>
    428c:	1f 92       	push	r1
    428e:	8f 93       	push	r24
    4290:	83 e2       	ldi	r24, 0x23	; 35
    4292:	93 e0       	ldi	r25, 0x03	; 3
    4294:	9f 93       	push	r25
    4296:	8f 93       	push	r24
    4298:	2a d5       	rcall	.+2644   	; 0x4cee <xSerialPrintf_P>
    429a:	0f 90       	pop	r0
    429c:	0f 90       	pop	r0
    429e:	0f 90       	pop	r0
    42a0:	0f 90       	pop	r0
    42a2:	80 91 6e 01 	lds	r24, 0x016E	; 0x80016e <canSleep>
    42a6:	88 23       	and	r24, r24
    42a8:	19 f0       	breq	.+6      	; 0x42b0 <_ZL11TaskReadSHTPv+0x34a>
    42aa:	81 50       	subi	r24, 0x01	; 1
    42ac:	80 93 6e 01 	sts	0x016E, r24	; 0x80016e <canSleep>
    42b0:	84 e6       	ldi	r24, 0x64	; 100
    42b2:	90 e0       	ldi	r25, 0x00	; 0
    42b4:	0e 94 02 2e 	call	0x5c04	; 0x5c04 <vTaskDelay>
    42b8:	2d 98       	cbi	0x05, 5	; 5
    42ba:	e3 ce       	rjmp	.-570    	; 0x4082 <_ZL11TaskReadSHTPv+0x11c>
    42bc:	89 e1       	ldi	r24, 0x19	; 25
    42be:	93 e0       	ldi	r25, 0x03	; 3
    42c0:	48 d5       	rcall	.+2704   	; 0x4d52 <xSerialPrint_P>
    42c2:	84 e6       	ldi	r24, 0x64	; 100
    42c4:	90 e0       	ldi	r25, 0x00	; 0
    42c6:	0e 94 02 2e 	call	0x5c04	; 0x5c04 <vTaskDelay>
    42ca:	db ce       	rjmp	.-586    	; 0x4082 <_ZL11TaskReadSHTPv+0x11c>

000042cc <_ZL8put_dumpPKhmh>:
    42cc:	8f 92       	push	r8
    42ce:	9f 92       	push	r9
    42d0:	bf 92       	push	r11
    42d2:	cf 92       	push	r12
    42d4:	df 92       	push	r13
    42d6:	ef 92       	push	r14
    42d8:	ff 92       	push	r15
    42da:	0f 93       	push	r16
    42dc:	1f 93       	push	r17
    42de:	cf 93       	push	r28
    42e0:	df 93       	push	r29
    42e2:	1f 92       	push	r1
    42e4:	cd b7       	in	r28, 0x3d	; 61
    42e6:	de b7       	in	r29, 0x3e	; 62
    42e8:	f8 2e       	mov	r15, r24
    42ea:	e2 2e       	mov	r14, r18
    42ec:	7f 93       	push	r23
    42ee:	6f 93       	push	r22
    42f0:	5f 93       	push	r21
    42f2:	4f 93       	push	r20
    42f4:	2f ec       	ldi	r18, 0xCF	; 207
    42f6:	30 e0       	ldi	r19, 0x00	; 0
    42f8:	3f 93       	push	r19
    42fa:	2f 93       	push	r18
    42fc:	99 83       	std	Y+1, r25	; 0x01
    42fe:	f7 d4       	rcall	.+2542   	; 0x4cee <xSerialPrintf_P>
    4300:	8f 2c       	mov	r8, r15
    4302:	99 81       	ldd	r25, Y+1	; 0x01
    4304:	99 2e       	mov	r9, r25
    4306:	0f 90       	pop	r0
    4308:	0f 90       	pop	r0
    430a:	0f 90       	pop	r0
    430c:	0f 90       	pop	r0
    430e:	0f 90       	pop	r0
    4310:	0f 90       	pop	r0
    4312:	0f 2d       	mov	r16, r15
    4314:	19 2f       	mov	r17, r25
    4316:	bf 2c       	mov	r11, r15
    4318:	89 ec       	ldi	r24, 0xC9	; 201
    431a:	c8 2e       	mov	r12, r24
    431c:	80 e0       	ldi	r24, 0x00	; 0
    431e:	d8 2e       	mov	r13, r24
    4320:	80 2f       	mov	r24, r16
    4322:	8f 19       	sub	r24, r15
    4324:	8e 15       	cp	r24, r14
    4326:	68 f4       	brcc	.+26     	; 0x4342 <_ZL8put_dumpPKhmh+0x76>
    4328:	f8 01       	movw	r30, r16
    432a:	81 91       	ld	r24, Z+
    432c:	8f 01       	movw	r16, r30
    432e:	1f 92       	push	r1
    4330:	8f 93       	push	r24
    4332:	df 92       	push	r13
    4334:	cf 92       	push	r12
    4336:	db d4       	rcall	.+2486   	; 0x4cee <xSerialPrintf_P>
    4338:	0f 90       	pop	r0
    433a:	0f 90       	pop	r0
    433c:	0f 90       	pop	r0
    433e:	0f 90       	pop	r0
    4340:	ef cf       	rjmp	.-34     	; 0x4320 <_ZL8put_dumpPKhmh+0x54>
    4342:	60 e2       	ldi	r22, 0x20	; 32
    4344:	89 e6       	ldi	r24, 0x69	; 105
    4346:	98 e0       	ldi	r25, 0x08	; 8
    4348:	91 d5       	rcall	.+2850   	; 0x4e6c <xSerialPutChar>
    434a:	88 2d       	mov	r24, r8
    434c:	8b 19       	sub	r24, r11
    434e:	8e 15       	cp	r24, r14
    4350:	48 f4       	brcc	.+18     	; 0x4364 <_ZL8put_dumpPKhmh+0x98>
    4352:	f4 01       	movw	r30, r8
    4354:	61 91       	ld	r22, Z+
    4356:	4f 01       	movw	r8, r30
    4358:	80 ee       	ldi	r24, 0xE0	; 224
    435a:	86 0f       	add	r24, r22
    435c:	8f 35       	cpi	r24, 0x5F	; 95
    435e:	90 f3       	brcs	.-28     	; 0x4344 <_ZL8put_dumpPKhmh+0x78>
    4360:	6e e2       	ldi	r22, 0x2E	; 46
    4362:	f0 cf       	rjmp	.-32     	; 0x4344 <_ZL8put_dumpPKhmh+0x78>
    4364:	86 ec       	ldi	r24, 0xC6	; 198
    4366:	90 e0       	ldi	r25, 0x00	; 0
    4368:	0f 90       	pop	r0
    436a:	df 91       	pop	r29
    436c:	cf 91       	pop	r28
    436e:	1f 91       	pop	r17
    4370:	0f 91       	pop	r16
    4372:	ff 90       	pop	r15
    4374:	ef 90       	pop	r14
    4376:	df 90       	pop	r13
    4378:	cf 90       	pop	r12
    437a:	bf 90       	pop	r11
    437c:	9f 90       	pop	r9
    437e:	8f 90       	pop	r8
    4380:	e8 c4       	rjmp	.+2512   	; 0x4d52 <xSerialPrint_P>

00004382 <_ZL17TaskBlinkGreenLEDPv>:
    4382:	cf 93       	push	r28
    4384:	df 93       	push	r29
    4386:	00 d0       	rcall	.+0      	; 0x4388 <_ZL17TaskBlinkGreenLEDPv+0x6>
    4388:	cd b7       	in	r28, 0x3d	; 61
    438a:	de b7       	in	r29, 0x3e	; 62
    438c:	38 9a       	sbi	0x07, 0	; 7
    438e:	0e 94 ad 2c 	call	0x595a	; 0x595a <xTaskGetTickCount>
    4392:	9a 83       	std	Y+2, r25	; 0x02
    4394:	89 83       	std	Y+1, r24	; 0x01
    4396:	40 9a       	sbi	0x08, 0	; 8
    4398:	64 e6       	ldi	r22, 0x64	; 100
    439a:	70 e0       	ldi	r23, 0x00	; 0
    439c:	ce 01       	movw	r24, r28
    439e:	01 96       	adiw	r24, 0x01	; 1
    43a0:	0e 94 ce 2d 	call	0x5b9c	; 0x5b9c <vTaskDelayUntil>
    43a4:	40 98       	cbi	0x08, 0	; 8
    43a6:	68 ee       	ldi	r22, 0xE8	; 232
    43a8:	73 e0       	ldi	r23, 0x03	; 3
    43aa:	ce 01       	movw	r24, r28
    43ac:	01 96       	adiw	r24, 0x01	; 1
    43ae:	0e 94 ce 2d 	call	0x5b9c	; 0x5b9c <vTaskDelayUntil>
    43b2:	f1 cf       	rjmp	.-30     	; 0x4396 <_ZL17TaskBlinkGreenLEDPv+0x14>

000043b4 <_ZL11TaskCommandPv>:
    43b4:	cf 93       	push	r28
    43b6:	df 93       	push	r29
    43b8:	cd b7       	in	r28, 0x3d	; 61
    43ba:	de b7       	in	r29, 0x3e	; 62
    43bc:	2c 97       	sbiw	r28, 0x0c	; 12
    43be:	0f b6       	in	r0, 0x3f	; 63
    43c0:	f8 94       	cli
    43c2:	de bf       	out	0x3e, r29	; 62
    43c4:	0f be       	out	0x3f, r0	; 63
    43c6:	cd bf       	out	0x3d, r28	; 61
    43c8:	8a e0       	ldi	r24, 0x0A	; 10
    43ca:	93 e0       	ldi	r25, 0x03	; 3
    43cc:	c2 d4       	rcall	.+2436   	; 0x4d52 <xSerialPrint_P>
    43ce:	35 e5       	ldi	r19, 0x55	; 85
    43d0:	83 2e       	mov	r8, r19
    43d2:	31 e0       	ldi	r19, 0x01	; 1
    43d4:	93 2e       	mov	r9, r19
    43d6:	09 ed       	ldi	r16, 0xD9	; 217
    43d8:	10 e0       	ldi	r17, 0x00	; 0
    43da:	4e e0       	ldi	r20, 0x0E	; 14
    43dc:	e4 2e       	mov	r14, r20
    43de:	41 e0       	ldi	r20, 0x01	; 1
    43e0:	f4 2e       	mov	r15, r20
    43e2:	51 ef       	ldi	r21, 0xF1	; 241
    43e4:	c5 2e       	mov	r12, r21
    43e6:	50 e0       	ldi	r21, 0x00	; 0
    43e8:	d5 2e       	mov	r13, r21
    43ea:	62 e2       	ldi	r22, 0x22	; 34
    43ec:	a6 2e       	mov	r10, r22
    43ee:	61 e0       	ldi	r22, 0x01	; 1
    43f0:	b6 2e       	mov	r11, r22
    43f2:	9a 86       	std	Y+10, r9	; 0x0a
    43f4:	89 86       	std	Y+9, r8	; 0x09
    43f6:	71 2c       	mov	r7, r1
    43f8:	0e 94 5d 2e 	call	0x5cba	; 0x5cba <xTaskGetCurrentTaskHandle>
    43fc:	90 93 bc 01 	sts	0x01BC, r25	; 0x8001bc <xUSARTTaskToNotify+0x1>
    4400:	80 93 bb 01 	sts	0x01BB, r24	; 0x8001bb <xUSARTTaskToNotify>
    4404:	be 01       	movw	r22, r28
    4406:	65 5f       	subi	r22, 0xF5	; 245
    4408:	7f 4f       	sbci	r23, 0xFF	; 255
    440a:	89 e6       	ldi	r24, 0x69	; 105
    440c:	98 e0       	ldi	r25, 0x08	; 8
    440e:	04 d5       	rcall	.+2568   	; 0x4e18 <xSerialGetChar>
    4410:	81 11       	cpse	r24, r1
    4412:	06 c0       	rjmp	.+12     	; 0x4420 <_ZL11TaskCommandPv+0x6c>
    4414:	64 e6       	ldi	r22, 0x64	; 100
    4416:	70 e0       	ldi	r23, 0x00	; 0
    4418:	81 e0       	ldi	r24, 0x01	; 1
    441a:	0e 94 62 2e 	call	0x5cc4	; 0x5cc4 <ulTaskNotifyTake>
    441e:	f2 cf       	rjmp	.-28     	; 0x4404 <_ZL11TaskCommandPv+0x50>
    4420:	6b 85       	ldd	r22, Y+11	; 0x0b
    4422:	6d 30       	cpi	r22, 0x0D	; 13
    4424:	b1 f0       	breq	.+44     	; 0x4452 <_ZL11TaskCommandPv+0x9e>
    4426:	68 30       	cpi	r22, 0x08	; 8
    4428:	21 f4       	brne	.+8      	; 0x4432 <_ZL11TaskCommandPv+0x7e>
    442a:	77 20       	and	r7, r7
    442c:	29 f3       	breq	.-54     	; 0x43f8 <_ZL11TaskCommandPv+0x44>
    442e:	7a 94       	dec	r7
    4430:	0c c0       	rjmp	.+24     	; 0x444a <_ZL11TaskCommandPv+0x96>
    4432:	60 32       	cpi	r22, 0x20	; 32
    4434:	08 f3       	brcs	.-62     	; 0x43f8 <_ZL11TaskCommandPv+0x44>
    4436:	87 2d       	mov	r24, r7
    4438:	90 e0       	ldi	r25, 0x00	; 0
    443a:	88 31       	cpi	r24, 0x18	; 24
    443c:	91 05       	cpc	r25, r1
    443e:	e4 f6       	brge	.-72     	; 0x43f8 <_ZL11TaskCommandPv+0x44>
    4440:	73 94       	inc	r7
    4442:	fc 01       	movw	r30, r24
    4444:	eb 5a       	subi	r30, 0xAB	; 171
    4446:	fe 4f       	sbci	r31, 0xFE	; 254
    4448:	60 83       	st	Z, r22
    444a:	89 e6       	ldi	r24, 0x69	; 105
    444c:	98 e0       	ldi	r25, 0x08	; 8
    444e:	0e d5       	rcall	.+2588   	; 0x4e6c <xSerialPutChar>
    4450:	d3 cf       	rjmp	.-90     	; 0x43f8 <_ZL11TaskCommandPv+0x44>
    4452:	e7 2d       	mov	r30, r7
    4454:	f0 e0       	ldi	r31, 0x00	; 0
    4456:	eb 5a       	subi	r30, 0xAB	; 171
    4458:	fe 4f       	sbci	r31, 0xFE	; 254
    445a:	10 82       	st	Z, r1
    445c:	86 ed       	ldi	r24, 0xD6	; 214
    445e:	90 e0       	ldi	r25, 0x00	; 0
    4460:	78 d4       	rcall	.+2288   	; 0x4d52 <xSerialPrint_P>
    4462:	e9 85       	ldd	r30, Y+9	; 0x09
    4464:	fa 85       	ldd	r31, Y+10	; 0x0a
    4466:	cf 01       	movw	r24, r30
    4468:	01 96       	adiw	r24, 0x01	; 1
    446a:	9a 87       	std	Y+10, r25	; 0x0a
    446c:	89 87       	std	Y+9, r24	; 0x09
    446e:	e0 81       	ld	r30, Z
    4470:	8e 2f       	mov	r24, r30
    4472:	90 e0       	ldi	r25, 0x00	; 0
    4474:	fc 01       	movw	r30, r24
    4476:	e3 56       	subi	r30, 0x63	; 99
    4478:	f1 09       	sbc	r31, r1
    447a:	e2 31       	cpi	r30, 0x12	; 18
    447c:	f1 05       	cpc	r31, r1
    447e:	08 f0       	brcs	.+2      	; 0x4482 <_ZL11TaskCommandPv+0xce>
    4480:	c6 c2       	rjmp	.+1420   	; 0x4a0e <_ZL11TaskCommandPv+0x65a>
    4482:	ec 5c       	subi	r30, 0xCC	; 204
    4484:	ff 4f       	sbci	r31, 0xFF	; 255
    4486:	0c 94 d1 2f 	jmp	0x5fa2	; 0x5fa2 <__tablejump2__>
    448a:	8f eb       	ldi	r24, 0xBF	; 191
    448c:	91 e0       	ldi	r25, 0x01	; 1
    448e:	99 d9       	rcall	.-3278   	; 0x37c2 <_ZN5SHT1x16readTemperatureCEv>
    4490:	9f 93       	push	r25
    4492:	8f 93       	push	r24
    4494:	7f 93       	push	r23
    4496:	6f 93       	push	r22
    4498:	89 ef       	ldi	r24, 0xF9	; 249
    449a:	92 e0       	ldi	r25, 0x02	; 2
    449c:	9f 93       	push	r25
    449e:	8f 93       	push	r24
    44a0:	26 d4       	rcall	.+2124   	; 0x4cee <xSerialPrintf_P>
    44a2:	0f 90       	pop	r0
    44a4:	0f 90       	pop	r0
    44a6:	0f 90       	pop	r0
    44a8:	0f 90       	pop	r0
    44aa:	0f 90       	pop	r0
    44ac:	0f 90       	pop	r0
    44ae:	a1 cf       	rjmp	.-190    	; 0x43f2 <_ZL11TaskCommandPv+0x3e>
    44b0:	80 e0       	ldi	r24, 0x00	; 0
    44b2:	0e 94 d0 06 	call	0xda0	; 0xda0 <disk_initialize>
    44b6:	1f 92       	push	r1
    44b8:	8f 93       	push	r24
    44ba:	8a ee       	ldi	r24, 0xEA	; 234
    44bc:	92 e0       	ldi	r25, 0x02	; 2
    44be:	0d c0       	rjmp	.+26     	; 0x44da <_ZL11TaskCommandPv+0x126>
    44c0:	41 e0       	ldi	r20, 0x01	; 1
    44c2:	6d e2       	ldi	r22, 0x2D	; 45
    44c4:	71 e0       	ldi	r23, 0x01	; 1
    44c6:	80 91 6f 01 	lds	r24, 0x016F	; 0x80016f <fs>
    44ca:	90 91 70 01 	lds	r25, 0x0170	; 0x800170 <fs+0x1>
    44ce:	0e 94 25 12 	call	0x244a	; 0x244a <f_mount>
    44d2:	1f 92       	push	r1
    44d4:	8f 93       	push	r24
    44d6:	8c ed       	ldi	r24, 0xDC	; 220
    44d8:	92 e0       	ldi	r25, 0x02	; 2
    44da:	9f 93       	push	r25
    44dc:	8f 93       	push	r24
    44de:	07 d4       	rcall	.+2062   	; 0x4cee <xSerialPrintf_P>
    44e0:	91 c2       	rjmp	.+1314   	; 0x4a04 <_ZL11TaskCommandPv+0x650>
    44e2:	36 d7       	rcall	.+3692   	; 0x5350 <xPortGetFreeHeapSize>
    44e4:	9f 93       	push	r25
    44e6:	8f 93       	push	r24
    44e8:	87 ec       	ldi	r24, 0xC7	; 199
    44ea:	92 e0       	ldi	r25, 0x02	; 2
    44ec:	f6 cf       	rjmp	.-20     	; 0x44da <_ZL11TaskCommandPv+0x126>
    44ee:	ae 01       	movw	r20, r28
    44f0:	4b 5f       	subi	r20, 0xFB	; 251
    44f2:	5f 4f       	sbci	r21, 0xFF	; 255
    44f4:	61 e0       	ldi	r22, 0x01	; 1
    44f6:	80 e0       	ldi	r24, 0x00	; 0
    44f8:	0e 94 f8 06 	call	0xdf0	; 0xdf0 <disk_ioctl>
    44fc:	81 11       	cpse	r24, r1
    44fe:	13 c0       	rjmp	.+38     	; 0x4526 <_ZL11TaskCommandPv+0x172>
    4500:	88 85       	ldd	r24, Y+8	; 0x08
    4502:	8f 93       	push	r24
    4504:	8f 81       	ldd	r24, Y+7	; 0x07
    4506:	8f 93       	push	r24
    4508:	8e 81       	ldd	r24, Y+6	; 0x06
    450a:	8f 93       	push	r24
    450c:	8d 81       	ldd	r24, Y+5	; 0x05
    450e:	8f 93       	push	r24
    4510:	8d ea       	ldi	r24, 0xAD	; 173
    4512:	92 e0       	ldi	r25, 0x02	; 2
    4514:	9f 93       	push	r25
    4516:	8f 93       	push	r24
    4518:	ea d3       	rcall	.+2004   	; 0x4cee <xSerialPrintf_P>
    451a:	0f 90       	pop	r0
    451c:	0f 90       	pop	r0
    451e:	0f 90       	pop	r0
    4520:	0f 90       	pop	r0
    4522:	0f 90       	pop	r0
    4524:	0f 90       	pop	r0
    4526:	ae 01       	movw	r20, r28
    4528:	4b 5f       	subi	r20, 0xFB	; 251
    452a:	5f 4f       	sbci	r21, 0xFF	; 255
    452c:	63 e0       	ldi	r22, 0x03	; 3
    452e:	80 e0       	ldi	r24, 0x00	; 0
    4530:	0e 94 f8 06 	call	0xdf0	; 0xdf0 <disk_ioctl>
    4534:	81 11       	cpse	r24, r1
    4536:	13 c0       	rjmp	.+38     	; 0x455e <_ZL11TaskCommandPv+0x1aa>
    4538:	88 85       	ldd	r24, Y+8	; 0x08
    453a:	8f 93       	push	r24
    453c:	8f 81       	ldd	r24, Y+7	; 0x07
    453e:	8f 93       	push	r24
    4540:	8e 81       	ldd	r24, Y+6	; 0x06
    4542:	8f 93       	push	r24
    4544:	8d 81       	ldd	r24, Y+5	; 0x05
    4546:	8f 93       	push	r24
    4548:	82 e9       	ldi	r24, 0x92	; 146
    454a:	92 e0       	ldi	r25, 0x02	; 2
    454c:	9f 93       	push	r25
    454e:	8f 93       	push	r24
    4550:	ce d3       	rcall	.+1948   	; 0x4cee <xSerialPrintf_P>
    4552:	0f 90       	pop	r0
    4554:	0f 90       	pop	r0
    4556:	0f 90       	pop	r0
    4558:	0f 90       	pop	r0
    455a:	0f 90       	pop	r0
    455c:	0f 90       	pop	r0
    455e:	ae 01       	movw	r20, r28
    4560:	44 5f       	subi	r20, 0xF4	; 244
    4562:	5f 4f       	sbci	r21, 0xFF	; 255
    4564:	62 e3       	ldi	r22, 0x32	; 50
    4566:	80 e0       	ldi	r24, 0x00	; 0
    4568:	0e 94 f8 06 	call	0xdf0	; 0xdf0 <disk_ioctl>
    456c:	81 11       	cpse	r24, r1
    456e:	0c c0       	rjmp	.+24     	; 0x4588 <_ZL11TaskCommandPv+0x1d4>
    4570:	8c 85       	ldd	r24, Y+12	; 0x0c
    4572:	1f 92       	push	r1
    4574:	8f 93       	push	r24
    4576:	82 e8       	ldi	r24, 0x82	; 130
    4578:	92 e0       	ldi	r25, 0x02	; 2
    457a:	9f 93       	push	r25
    457c:	8f 93       	push	r24
    457e:	b7 d3       	rcall	.+1902   	; 0x4cee <xSerialPrintf_P>
    4580:	0f 90       	pop	r0
    4582:	0f 90       	pop	r0
    4584:	0f 90       	pop	r0
    4586:	0f 90       	pop	r0
    4588:	41 e7       	ldi	r20, 0x71	; 113
    458a:	51 e0       	ldi	r21, 0x01	; 1
    458c:	63 e3       	ldi	r22, 0x33	; 51
    458e:	80 e0       	ldi	r24, 0x00	; 0
    4590:	0e 94 f8 06 	call	0xdf0	; 0xdf0 <disk_ioctl>
    4594:	81 11       	cpse	r24, r1
    4596:	0a c0       	rjmp	.+20     	; 0x45ac <_ZL11TaskCommandPv+0x1f8>
    4598:	8b e7       	ldi	r24, 0x7B	; 123
    459a:	92 e0       	ldi	r25, 0x02	; 2
    459c:	da d3       	rcall	.+1972   	; 0x4d52 <xSerialPrint_P>
    459e:	20 e1       	ldi	r18, 0x10	; 16
    45a0:	40 e0       	ldi	r20, 0x00	; 0
    45a2:	50 e0       	ldi	r21, 0x00	; 0
    45a4:	ba 01       	movw	r22, r20
    45a6:	81 e7       	ldi	r24, 0x71	; 113
    45a8:	91 e0       	ldi	r25, 0x01	; 1
    45aa:	90 de       	rcall	.-736    	; 0x42cc <_ZL8put_dumpPKhmh>
    45ac:	41 e7       	ldi	r20, 0x71	; 113
    45ae:	51 e0       	ldi	r21, 0x01	; 1
    45b0:	64 e3       	ldi	r22, 0x34	; 52
    45b2:	80 e0       	ldi	r24, 0x00	; 0
    45b4:	0e 94 f8 06 	call	0xdf0	; 0xdf0 <disk_ioctl>
    45b8:	81 11       	cpse	r24, r1
    45ba:	0a c0       	rjmp	.+20     	; 0x45d0 <_ZL11TaskCommandPv+0x21c>
    45bc:	84 e7       	ldi	r24, 0x74	; 116
    45be:	92 e0       	ldi	r25, 0x02	; 2
    45c0:	c8 d3       	rcall	.+1936   	; 0x4d52 <xSerialPrint_P>
    45c2:	20 e1       	ldi	r18, 0x10	; 16
    45c4:	40 e0       	ldi	r20, 0x00	; 0
    45c6:	50 e0       	ldi	r21, 0x00	; 0
    45c8:	ba 01       	movw	r22, r20
    45ca:	81 e7       	ldi	r24, 0x71	; 113
    45cc:	91 e0       	ldi	r25, 0x01	; 1
    45ce:	7e de       	rcall	.-772    	; 0x42cc <_ZL8put_dumpPKhmh>
    45d0:	41 e7       	ldi	r20, 0x71	; 113
    45d2:	51 e0       	ldi	r21, 0x01	; 1
    45d4:	65 e3       	ldi	r22, 0x35	; 53
    45d6:	80 e0       	ldi	r24, 0x00	; 0
    45d8:	0e 94 f8 06 	call	0xdf0	; 0xdf0 <disk_ioctl>
    45dc:	81 11       	cpse	r24, r1
    45de:	0a c0       	rjmp	.+20     	; 0x45f4 <_ZL11TaskCommandPv+0x240>
    45e0:	8d e6       	ldi	r24, 0x6D	; 109
    45e2:	92 e0       	ldi	r25, 0x02	; 2
    45e4:	b6 d3       	rcall	.+1900   	; 0x4d52 <xSerialPrint_P>
    45e6:	24 e0       	ldi	r18, 0x04	; 4
    45e8:	40 e0       	ldi	r20, 0x00	; 0
    45ea:	50 e0       	ldi	r21, 0x00	; 0
    45ec:	ba 01       	movw	r22, r20
    45ee:	81 e7       	ldi	r24, 0x71	; 113
    45f0:	91 e0       	ldi	r25, 0x01	; 1
    45f2:	6c de       	rcall	.-808    	; 0x42cc <_ZL8put_dumpPKhmh>
    45f4:	41 e7       	ldi	r20, 0x71	; 113
    45f6:	51 e0       	ldi	r21, 0x01	; 1
    45f8:	66 e3       	ldi	r22, 0x36	; 54
    45fa:	80 e0       	ldi	r24, 0x00	; 0
    45fc:	0e 94 f8 06 	call	0xdf0	; 0xdf0 <disk_ioctl>
    4600:	88 23       	and	r24, r24
    4602:	c1 f0       	breq	.+48     	; 0x4634 <_ZL11TaskCommandPv+0x280>
    4604:	41 e7       	ldi	r20, 0x71	; 113
    4606:	51 e0       	ldi	r21, 0x01	; 1
    4608:	6d e3       	ldi	r22, 0x3D	; 61
    460a:	80 e0       	ldi	r24, 0x00	; 0
    460c:	0e 94 f8 06 	call	0xdf0	; 0xdf0 <disk_ioctl>
    4610:	81 11       	cpse	r24, r1
    4612:	29 c0       	rjmp	.+82     	; 0x4666 <_ZL11TaskCommandPv+0x2b2>
    4614:	81 e7       	ldi	r24, 0x71	; 113
    4616:	91 e0       	ldi	r25, 0x01	; 1
    4618:	10 92 99 01 	sts	0x0199, r1	; 0x800199 <Buff+0x28>
    461c:	9f 93       	push	r25
    461e:	8f 93       	push	r24
    4620:	84 e5       	ldi	r24, 0x54	; 84
    4622:	92 e0       	ldi	r25, 0x02	; 2
    4624:	9f 93       	push	r25
    4626:	8f 93       	push	r24
    4628:	62 d3       	rcall	.+1732   	; 0x4cee <xSerialPrintf_P>
    462a:	0f 90       	pop	r0
    462c:	0f 90       	pop	r0
    462e:	0f 90       	pop	r0
    4630:	0f 90       	pop	r0
    4632:	19 c0       	rjmp	.+50     	; 0x4666 <_ZL11TaskCommandPv+0x2b2>
    4634:	80 e6       	ldi	r24, 0x60	; 96
    4636:	92 e0       	ldi	r25, 0x02	; 2
    4638:	8c d3       	rcall	.+1816   	; 0x4d52 <xSerialPrint_P>
    463a:	41 2c       	mov	r4, r1
    463c:	51 2c       	mov	r5, r1
    463e:	32 01       	movw	r6, r4
    4640:	c2 01       	movw	r24, r4
    4642:	8f 58       	subi	r24, 0x8F	; 143
    4644:	9e 4f       	sbci	r25, 0xFE	; 254
    4646:	20 e1       	ldi	r18, 0x10	; 16
    4648:	b3 01       	movw	r22, r6
    464a:	a2 01       	movw	r20, r4
    464c:	3f de       	rcall	.-898    	; 0x42cc <_ZL8put_dumpPKhmh>
    464e:	80 e1       	ldi	r24, 0x10	; 16
    4650:	48 0e       	add	r4, r24
    4652:	51 1c       	adc	r5, r1
    4654:	61 1c       	adc	r6, r1
    4656:	71 1c       	adc	r7, r1
    4658:	90 e4       	ldi	r25, 0x40	; 64
    465a:	49 16       	cp	r4, r25
    465c:	51 04       	cpc	r5, r1
    465e:	61 04       	cpc	r6, r1
    4660:	71 04       	cpc	r7, r1
    4662:	71 f7       	brne	.-36     	; 0x4640 <_ZL11TaskCommandPv+0x28c>
    4664:	cf cf       	rjmp	.-98     	; 0x4604 <_ZL11TaskCommandPv+0x250>
    4666:	41 e7       	ldi	r20, 0x71	; 113
    4668:	51 e0       	ldi	r21, 0x01	; 1
    466a:	6e e3       	ldi	r22, 0x3E	; 62
    466c:	80 e0       	ldi	r24, 0x00	; 0
    466e:	0e 94 f8 06 	call	0xdf0	; 0xdf0 <disk_ioctl>
    4672:	81 11       	cpse	r24, r1
    4674:	be ce       	rjmp	.-644    	; 0x43f2 <_ZL11TaskCommandPv+0x3e>
    4676:	81 e7       	ldi	r24, 0x71	; 113
    4678:	91 e0       	ldi	r25, 0x01	; 1
    467a:	10 92 85 01 	sts	0x0185, r1	; 0x800185 <Buff+0x14>
    467e:	9f 93       	push	r25
    4680:	8f 93       	push	r24
    4682:	8a e4       	ldi	r24, 0x4A	; 74
    4684:	92 e0       	ldi	r25, 0x02	; 2
    4686:	29 cf       	rjmp	.-430    	; 0x44da <_ZL11TaskCommandPv+0x126>
    4688:	be 01       	movw	r22, r28
    468a:	6f 5f       	subi	r22, 0xFF	; 255
    468c:	7f 4f       	sbci	r23, 0xFF	; 255
    468e:	ce 01       	movw	r24, r28
    4690:	09 96       	adiw	r24, 0x09	; 9
    4692:	0e 94 f3 02 	call	0x5e6	; 0x5e6 <xatoi>
    4696:	88 23       	and	r24, r24
    4698:	09 f4       	brne	.+2      	; 0x469c <_ZL11TaskCommandPv+0x2e8>
    469a:	65 c0       	rjmp	.+202    	; 0x4766 <_ZL11TaskCommandPv+0x3b2>
    469c:	89 81       	ldd	r24, Y+1	; 0x01
    469e:	80 5d       	subi	r24, 0xD0	; 208
    46a0:	80 93 b5 01 	sts	0x01B5, r24	; 0x8001b5 <date+0x3>
    46a4:	be 01       	movw	r22, r28
    46a6:	6f 5f       	subi	r22, 0xFF	; 255
    46a8:	7f 4f       	sbci	r23, 0xFF	; 255
    46aa:	ce 01       	movw	r24, r28
    46ac:	09 96       	adiw	r24, 0x09	; 9
    46ae:	0e 94 f3 02 	call	0x5e6	; 0x5e6 <xatoi>
    46b2:	89 81       	ldd	r24, Y+1	; 0x01
    46b4:	80 93 b4 01 	sts	0x01B4, r24	; 0x8001b4 <date+0x2>
    46b8:	be 01       	movw	r22, r28
    46ba:	6f 5f       	subi	r22, 0xFF	; 255
    46bc:	7f 4f       	sbci	r23, 0xFF	; 255
    46be:	ce 01       	movw	r24, r28
    46c0:	09 96       	adiw	r24, 0x09	; 9
    46c2:	0e 94 f3 02 	call	0x5e6	; 0x5e6 <xatoi>
    46c6:	89 81       	ldd	r24, Y+1	; 0x01
    46c8:	80 93 b3 01 	sts	0x01B3, r24	; 0x8001b3 <date+0x1>
    46cc:	be 01       	movw	r22, r28
    46ce:	6f 5f       	subi	r22, 0xFF	; 255
    46d0:	7f 4f       	sbci	r23, 0xFF	; 255
    46d2:	ce 01       	movw	r24, r28
    46d4:	09 96       	adiw	r24, 0x09	; 9
    46d6:	0e 94 f3 02 	call	0x5e6	; 0x5e6 <xatoi>
    46da:	89 81       	ldd	r24, Y+1	; 0x01
    46dc:	80 93 b9 01 	sts	0x01B9, r24	; 0x8001b9 <time+0x2>
    46e0:	be 01       	movw	r22, r28
    46e2:	6f 5f       	subi	r22, 0xFF	; 255
    46e4:	7f 4f       	sbci	r23, 0xFF	; 255
    46e6:	ce 01       	movw	r24, r28
    46e8:	09 96       	adiw	r24, 0x09	; 9
    46ea:	0e 94 f3 02 	call	0x5e6	; 0x5e6 <xatoi>
    46ee:	89 81       	ldd	r24, Y+1	; 0x01
    46f0:	80 93 b8 01 	sts	0x01B8, r24	; 0x8001b8 <time+0x1>
    46f4:	be 01       	movw	r22, r28
    46f6:	6f 5f       	subi	r22, 0xFF	; 255
    46f8:	7f 4f       	sbci	r23, 0xFF	; 255
    46fa:	ce 01       	movw	r24, r28
    46fc:	09 96       	adiw	r24, 0x09	; 9
    46fe:	0e 94 f3 02 	call	0x5e6	; 0x5e6 <xatoi>
    4702:	88 23       	and	r24, r24
    4704:	09 f4       	brne	.+2      	; 0x4708 <_ZL11TaskCommandPv+0x354>
    4706:	75 ce       	rjmp	.-790    	; 0x43f2 <_ZL11TaskCommandPv+0x3e>
    4708:	89 81       	ldd	r24, Y+1	; 0x01
    470a:	80 93 b7 01 	sts	0x01B7, r24	; 0x8001b7 <time>
    470e:	80 91 b3 01 	lds	r24, 0x01B3	; 0x8001b3 <date+0x1>
    4712:	1f 92       	push	r1
    4714:	8f 93       	push	r24
    4716:	80 91 b4 01 	lds	r24, 0x01B4	; 0x8001b4 <date+0x2>
    471a:	1f 92       	push	r1
    471c:	8f 93       	push	r24
    471e:	80 91 b5 01 	lds	r24, 0x01B5	; 0x8001b5 <date+0x3>
    4722:	90 e0       	ldi	r25, 0x00	; 0
    4724:	80 53       	subi	r24, 0x30	; 48
    4726:	98 4f       	sbci	r25, 0xF8	; 248
    4728:	9f 93       	push	r25
    472a:	8f 93       	push	r24
    472c:	87 e3       	ldi	r24, 0x37	; 55
    472e:	92 e0       	ldi	r25, 0x02	; 2
    4730:	9f 93       	push	r25
    4732:	8f 93       	push	r24
    4734:	dc d2       	rcall	.+1464   	; 0x4cee <xSerialPrintf_P>
    4736:	80 91 b7 01 	lds	r24, 0x01B7	; 0x8001b7 <time>
    473a:	1f 92       	push	r1
    473c:	8f 93       	push	r24
    473e:	80 91 b8 01 	lds	r24, 0x01B8	; 0x8001b8 <time+0x1>
    4742:	1f 92       	push	r1
    4744:	8f 93       	push	r24
    4746:	80 91 b9 01 	lds	r24, 0x01B9	; 0x8001b9 <time+0x2>
    474a:	1f 92       	push	r1
    474c:	8f 93       	push	r24
    474e:	85 e2       	ldi	r24, 0x25	; 37
    4750:	92 e0       	ldi	r25, 0x02	; 2
    4752:	9f 93       	push	r25
    4754:	8f 93       	push	r24
    4756:	cb d2       	rcall	.+1430   	; 0x4cee <xSerialPrintf_P>
    4758:	82 eb       	ldi	r24, 0xB2	; 178
    475a:	91 e0       	ldi	r25, 0x01	; 1
    475c:	e5 d9       	rcall	.-3126   	; 0x3b28 <ds3234_write_date>
    475e:	87 eb       	ldi	r24, 0xB7	; 183
    4760:	91 e0       	ldi	r25, 0x01	; 1
    4762:	1c d9       	rcall	.-3528   	; 0x399c <ds3234_write_time>
    4764:	41 c1       	rjmp	.+642    	; 0x49e8 <_ZL11TaskCommandPv+0x634>
    4766:	87 eb       	ldi	r24, 0xB7	; 183
    4768:	91 e0       	ldi	r25, 0x01	; 1
    476a:	ca d8       	rcall	.-3692   	; 0x3900 <ds3234_read_time>
    476c:	82 eb       	ldi	r24, 0xB2	; 178
    476e:	91 e0       	ldi	r25, 0x01	; 1
    4770:	80 d9       	rcall	.-3328   	; 0x3a72 <ds3234_read_date>
    4772:	80 91 b3 01 	lds	r24, 0x01B3	; 0x8001b3 <date+0x1>
    4776:	1f 92       	push	r1
    4778:	8f 93       	push	r24
    477a:	80 91 b4 01 	lds	r24, 0x01B4	; 0x8001b4 <date+0x2>
    477e:	1f 92       	push	r1
    4780:	8f 93       	push	r24
    4782:	80 91 b5 01 	lds	r24, 0x01B5	; 0x8001b5 <date+0x3>
    4786:	90 e0       	ldi	r25, 0x00	; 0
    4788:	80 53       	subi	r24, 0x30	; 48
    478a:	98 4f       	sbci	r25, 0xF8	; 248
    478c:	9f 93       	push	r25
    478e:	8f 93       	push	r24
    4790:	86 e1       	ldi	r24, 0x16	; 22
    4792:	92 e0       	ldi	r25, 0x02	; 2
    4794:	9f 93       	push	r25
    4796:	8f 93       	push	r24
    4798:	aa d2       	rcall	.+1364   	; 0x4cee <xSerialPrintf_P>
    479a:	80 91 b7 01 	lds	r24, 0x01B7	; 0x8001b7 <time>
    479e:	1f 92       	push	r1
    47a0:	8f 93       	push	r24
    47a2:	80 91 b8 01 	lds	r24, 0x01B8	; 0x8001b8 <time+0x1>
    47a6:	1f 92       	push	r1
    47a8:	8f 93       	push	r24
    47aa:	80 91 b9 01 	lds	r24, 0x01B9	; 0x8001b9 <time+0x2>
    47ae:	1f 92       	push	r1
    47b0:	8f 93       	push	r24
    47b2:	84 e0       	ldi	r24, 0x04	; 4
    47b4:	92 e0       	ldi	r25, 0x02	; 2
    47b6:	9f 93       	push	r25
    47b8:	8f 93       	push	r24
    47ba:	99 d2       	rcall	.+1330   	; 0x4cee <xSerialPrintf_P>
    47bc:	15 c1       	rjmp	.+554    	; 0x49e8 <_ZL11TaskCommandPv+0x634>
    47be:	4f e6       	ldi	r20, 0x6F	; 111
    47c0:	51 e0       	ldi	r21, 0x01	; 1
    47c2:	be 01       	movw	r22, r28
    47c4:	6b 5f       	subi	r22, 0xFB	; 251
    47c6:	7f 4f       	sbci	r23, 0xFF	; 255
    47c8:	8a e1       	ldi	r24, 0x1A	; 26
    47ca:	91 e0       	ldi	r25, 0x01	; 1
    47cc:	0e 94 13 16 	call	0x2c26	; 0x2c26 <f_getfree>
    47d0:	88 23       	and	r24, r24
    47d2:	29 f0       	breq	.+10     	; 0x47de <_ZL11TaskCommandPv+0x42a>
    47d4:	1f 92       	push	r1
    47d6:	8f 93       	push	r24
    47d8:	8e eb       	ldi	r24, 0xBE	; 190
    47da:	90 e0       	ldi	r25, 0x00	; 0
    47dc:	7e ce       	rjmp	.-772    	; 0x44da <_ZL11TaskCommandPv+0x126>
    47de:	e0 91 6f 01 	lds	r30, 0x016F	; 0x80016f <fs>
    47e2:	f0 91 70 01 	lds	r31, 0x0170	; 0x800170 <fs+0x1>
    47e6:	80 81       	ld	r24, Z
    47e8:	1f 92       	push	r1
    47ea:	8f 93       	push	r24
    47ec:	84 ef       	ldi	r24, 0xF4	; 244
    47ee:	91 e0       	ldi	r25, 0x01	; 1
    47f0:	9f 93       	push	r25
    47f2:	8f 93       	push	r24
    47f4:	7c d2       	rcall	.+1272   	; 0x4cee <xSerialPrintf_P>
    47f6:	84 e6       	ldi	r24, 0x64	; 100
    47f8:	90 e0       	ldi	r25, 0x00	; 0
    47fa:	0e 94 02 2e 	call	0x5c04	; 0x5c04 <vTaskDelay>
    47fe:	e0 91 6f 01 	lds	r30, 0x016F	; 0x80016f <fs>
    4802:	f0 91 70 01 	lds	r31, 0x0170	; 0x800170 <fs+0x1>
    4806:	81 85       	ldd	r24, Z+9	; 0x09
    4808:	92 85       	ldd	r25, Z+10	; 0x0a
    480a:	a0 e0       	ldi	r26, 0x00	; 0
    480c:	b0 e0       	ldi	r27, 0x00	; 0
    480e:	29 e0       	ldi	r18, 0x09	; 9
    4810:	88 0f       	add	r24, r24
    4812:	99 1f       	adc	r25, r25
    4814:	aa 1f       	adc	r26, r26
    4816:	bb 1f       	adc	r27, r27
    4818:	2a 95       	dec	r18
    481a:	d1 f7       	brne	.-12     	; 0x4810 <_ZL11TaskCommandPv+0x45c>
    481c:	bf 93       	push	r27
    481e:	af 93       	push	r26
    4820:	9f 93       	push	r25
    4822:	8f 93       	push	r24
    4824:	8e ed       	ldi	r24, 0xDE	; 222
    4826:	91 e0       	ldi	r25, 0x01	; 1
    4828:	9f 93       	push	r25
    482a:	8f 93       	push	r24
    482c:	60 d2       	rcall	.+1216   	; 0x4cee <xSerialPrintf_P>
    482e:	84 e6       	ldi	r24, 0x64	; 100
    4830:	90 e0       	ldi	r25, 0x00	; 0
    4832:	0e 94 02 2e 	call	0x5c04	; 0x5c04 <vTaskDelay>
    4836:	e0 91 6f 01 	lds	r30, 0x016F	; 0x80016f <fs>
    483a:	f0 91 70 01 	lds	r31, 0x0170	; 0x800170 <fs+0x1>
    483e:	82 81       	ldd	r24, Z+2	; 0x02
    4840:	1f 92       	push	r1
    4842:	8f 93       	push	r24
    4844:	88 ec       	ldi	r24, 0xC8	; 200
    4846:	91 e0       	ldi	r25, 0x01	; 1
    4848:	9f 93       	push	r25
    484a:	8f 93       	push	r24
    484c:	50 d2       	rcall	.+1184   	; 0x4cee <xSerialPrintf_P>
    484e:	84 e6       	ldi	r24, 0x64	; 100
    4850:	90 e0       	ldi	r25, 0x00	; 0
    4852:	0e 94 02 2e 	call	0x5c04	; 0x5c04 <vTaskDelay>
    4856:	e0 91 6f 01 	lds	r30, 0x016F	; 0x80016f <fs>
    485a:	f0 91 70 01 	lds	r31, 0x0170	; 0x800170 <fs+0x1>
    485e:	80 85       	ldd	r24, Z+8	; 0x08
    4860:	8f 93       	push	r24
    4862:	87 81       	ldd	r24, Z+7	; 0x07
    4864:	8f 93       	push	r24
    4866:	80 eb       	ldi	r24, 0xB0	; 176
    4868:	91 e0       	ldi	r25, 0x01	; 1
    486a:	9f 93       	push	r25
    486c:	8f 93       	push	r24
    486e:	3f d2       	rcall	.+1150   	; 0x4cee <xSerialPrintf_P>
    4870:	84 e6       	ldi	r24, 0x64	; 100
    4872:	90 e0       	ldi	r25, 0x00	; 0
    4874:	0e 94 02 2e 	call	0x5c04	; 0x5c04 <vTaskDelay>
    4878:	e0 91 6f 01 	lds	r30, 0x016F	; 0x80016f <fs>
    487c:	f0 91 70 01 	lds	r31, 0x0170	; 0x800170 <fs+0x1>
    4880:	82 8d       	ldd	r24, Z+26	; 0x1a
    4882:	8f 93       	push	r24
    4884:	81 8d       	ldd	r24, Z+25	; 0x19
    4886:	8f 93       	push	r24
    4888:	80 8d       	ldd	r24, Z+24	; 0x18
    488a:	8f 93       	push	r24
    488c:	87 89       	ldd	r24, Z+23	; 0x17
    488e:	8f 93       	push	r24
    4890:	8c e9       	ldi	r24, 0x9C	; 156
    4892:	91 e0       	ldi	r25, 0x01	; 1
    4894:	9f 93       	push	r25
    4896:	8f 93       	push	r24
    4898:	2a d2       	rcall	.+1108   	; 0x4cee <xSerialPrintf_P>
    489a:	84 e6       	ldi	r24, 0x64	; 100
    489c:	90 e0       	ldi	r25, 0x00	; 0
    489e:	0e 94 02 2e 	call	0x5c04	; 0x5c04 <vTaskDelay>
    48a2:	e0 91 6f 01 	lds	r30, 0x016F	; 0x80016f <fs>
    48a6:	f0 91 70 01 	lds	r31, 0x0170	; 0x800170 <fs+0x1>
    48aa:	86 89       	ldd	r24, Z+22	; 0x16
    48ac:	8f 93       	push	r24
    48ae:	85 89       	ldd	r24, Z+21	; 0x15
    48b0:	8f 93       	push	r24
    48b2:	84 89       	ldd	r24, Z+20	; 0x14
    48b4:	8f 93       	push	r24
    48b6:	83 89       	ldd	r24, Z+19	; 0x13
    48b8:	8f 93       	push	r24
    48ba:	81 e8       	ldi	r24, 0x81	; 129
    48bc:	91 e0       	ldi	r25, 0x01	; 1
    48be:	9f 93       	push	r25
    48c0:	8f 93       	push	r24
    48c2:	15 d2       	rcall	.+1066   	; 0x4cee <xSerialPrintf_P>
    48c4:	84 e6       	ldi	r24, 0x64	; 100
    48c6:	90 e0       	ldi	r25, 0x00	; 0
    48c8:	0e 94 02 2e 	call	0x5c04	; 0x5c04 <vTaskDelay>
    48cc:	e0 91 6f 01 	lds	r30, 0x016F	; 0x80016f <fs>
    48d0:	f0 91 70 01 	lds	r31, 0x0170	; 0x800170 <fs+0x1>
    48d4:	82 a1       	ldd	r24, Z+34	; 0x22
    48d6:	8f 93       	push	r24
    48d8:	81 a1       	ldd	r24, Z+33	; 0x21
    48da:	8f 93       	push	r24
    48dc:	80 a1       	ldd	r24, Z+32	; 0x20
    48de:	8f 93       	push	r24
    48e0:	87 8d       	ldd	r24, Z+31	; 0x1f
    48e2:	8f 93       	push	r24
    48e4:	89 e6       	ldi	r24, 0x69	; 105
    48e6:	91 e0       	ldi	r25, 0x01	; 1
    48e8:	9f 93       	push	r25
    48ea:	8f 93       	push	r24
    48ec:	00 d2       	rcall	.+1024   	; 0x4cee <xSerialPrintf_P>
    48ee:	0f b6       	in	r0, 0x3f	; 63
    48f0:	f8 94       	cli
    48f2:	de bf       	out	0x3e, r29	; 62
    48f4:	0f be       	out	0x3f, r0	; 63
    48f6:	cd bf       	out	0x3d, r28	; 61
    48f8:	84 e6       	ldi	r24, 0x64	; 100
    48fa:	90 e0       	ldi	r25, 0x00	; 0
    48fc:	0e 94 02 2e 	call	0x5c04	; 0x5c04 <vTaskDelay>
    4900:	e0 91 6f 01 	lds	r30, 0x016F	; 0x80016f <fs>
    4904:	f0 91 70 01 	lds	r31, 0x0170	; 0x800170 <fs+0x1>
    4908:	86 a1       	ldd	r24, Z+38	; 0x26
    490a:	8f 93       	push	r24
    490c:	85 a1       	ldd	r24, Z+37	; 0x25
    490e:	8f 93       	push	r24
    4910:	84 a1       	ldd	r24, Z+36	; 0x24
    4912:	8f 93       	push	r24
    4914:	83 a1       	ldd	r24, Z+35	; 0x23
    4916:	8f 93       	push	r24
    4918:	89 e4       	ldi	r24, 0x49	; 73
    491a:	91 e0       	ldi	r25, 0x01	; 1
    491c:	9f 93       	push	r25
    491e:	8f 93       	push	r24
    4920:	e6 d1       	rcall	.+972    	; 0x4cee <xSerialPrintf_P>
    4922:	84 e6       	ldi	r24, 0x64	; 100
    4924:	90 e0       	ldi	r25, 0x00	; 0
    4926:	0e 94 02 2e 	call	0x5c04	; 0x5c04 <vTaskDelay>
    492a:	e0 91 6f 01 	lds	r30, 0x016F	; 0x80016f <fs>
    492e:	f0 91 70 01 	lds	r31, 0x0170	; 0x800170 <fs+0x1>
    4932:	82 a5       	ldd	r24, Z+42	; 0x2a
    4934:	8f 93       	push	r24
    4936:	81 a5       	ldd	r24, Z+41	; 0x29
    4938:	8f 93       	push	r24
    493a:	80 a5       	ldd	r24, Z+40	; 0x28
    493c:	8f 93       	push	r24
    493e:	87 a1       	ldd	r24, Z+39	; 0x27
    4940:	8f 93       	push	r24
    4942:	80 e3       	ldi	r24, 0x30	; 48
    4944:	91 e0       	ldi	r25, 0x01	; 1
    4946:	9f 93       	push	r25
    4948:	8f 93       	push	r24
    494a:	d1 d1       	rcall	.+930    	; 0x4cee <xSerialPrintf_P>
    494c:	84 e6       	ldi	r24, 0x64	; 100
    494e:	90 e0       	ldi	r25, 0x00	; 0
    4950:	0e 94 02 2e 	call	0x5c04	; 0x5c04 <vTaskDelay>
    4954:	49 c0       	rjmp	.+146    	; 0x49e8 <_ZL11TaskCommandPv+0x634>
    4956:	0e 94 ad 2c 	call	0x595a	; 0x595a <xTaskGetTickCount>
    495a:	9f 93       	push	r25
    495c:	8f 93       	push	r24
    495e:	bf 92       	push	r11
    4960:	af 92       	push	r10
    4962:	bd cd       	rjmp	.-1158   	; 0x44de <_ZL11TaskCommandPv+0x12a>
    4964:	ae 01       	movw	r20, r28
    4966:	45 5f       	subi	r20, 0xF5	; 245
    4968:	5f 4f       	sbci	r21, 0xFF	; 255
    496a:	67 eb       	ldi	r22, 0xB7	; 183
    496c:	71 e0       	ldi	r23, 0x01	; 1
    496e:	82 eb       	ldi	r24, 0xB2	; 178
    4970:	91 e0       	ldi	r25, 0x01	; 1
    4972:	8a d9       	rcall	.-3308   	; 0x3c88 <ds3234_read_alarm1>
    4974:	80 91 b3 01 	lds	r24, 0x01B3	; 0x8001b3 <date+0x1>
    4978:	1f 92       	push	r1
    497a:	8f 93       	push	r24
    497c:	80 91 b4 01 	lds	r24, 0x01B4	; 0x8001b4 <date+0x2>
    4980:	1f 92       	push	r1
    4982:	8f 93       	push	r24
    4984:	80 91 b5 01 	lds	r24, 0x01B5	; 0x8001b5 <date+0x3>
    4988:	90 e0       	ldi	r25, 0x00	; 0
    498a:	80 53       	subi	r24, 0x30	; 48
    498c:	98 4f       	sbci	r25, 0xF8	; 248
    498e:	9f 93       	push	r25
    4990:	8f 93       	push	r24
    4992:	ff 92       	push	r15
    4994:	ef 92       	push	r14
    4996:	ab d1       	rcall	.+854    	; 0x4cee <xSerialPrintf_P>
    4998:	8b 85       	ldd	r24, Y+11	; 0x0b
    499a:	1f 92       	push	r1
    499c:	8f 93       	push	r24
    499e:	80 91 b7 01 	lds	r24, 0x01B7	; 0x8001b7 <time>
    49a2:	1f 92       	push	r1
    49a4:	8f 93       	push	r24
    49a6:	80 91 b8 01 	lds	r24, 0x01B8	; 0x8001b8 <time+0x1>
    49aa:	1f 92       	push	r1
    49ac:	8f 93       	push	r24
    49ae:	80 91 b9 01 	lds	r24, 0x01B9	; 0x8001b9 <time+0x2>
    49b2:	1f 92       	push	r1
    49b4:	8f 93       	push	r24
    49b6:	df 92       	push	r13
    49b8:	cf 92       	push	r12
    49ba:	99 d1       	rcall	.+818    	; 0x4cee <xSerialPrintf_P>
    49bc:	84 e6       	ldi	r24, 0x64	; 100
    49be:	90 e0       	ldi	r25, 0x00	; 0
    49c0:	0e 94 02 2e 	call	0x5c04	; 0x5c04 <vTaskDelay>
    49c4:	0f b6       	in	r0, 0x3f	; 63
    49c6:	f8 94       	cli
    49c8:	0f 92       	push	r0
    49ca:	83 b7       	in	r24, 0x33	; 51
    49cc:	81 7f       	andi	r24, 0xF1	; 241
    49ce:	84 60       	ori	r24, 0x04	; 4
    49d0:	83 bf       	out	0x33, r24	; 51
    49d2:	83 b7       	in	r24, 0x33	; 51
    49d4:	81 60       	ori	r24, 0x01	; 1
    49d6:	83 bf       	out	0x33, r24	; 51
    49d8:	78 94       	sei
    49da:	88 95       	sleep
    49dc:	83 b7       	in	r24, 0x33	; 51
    49de:	8e 7f       	andi	r24, 0xFE	; 254
    49e0:	83 bf       	out	0x33, r24	; 51
    49e2:	f8 94       	cli
    49e4:	0f 90       	pop	r0
    49e6:	0f be       	out	0x3f, r0	; 63
    49e8:	0f b6       	in	r0, 0x3f	; 63
    49ea:	f8 94       	cli
    49ec:	de bf       	out	0x3e, r29	; 62
    49ee:	0f be       	out	0x3f, r0	; 63
    49f0:	cd bf       	out	0x3d, r28	; 61
    49f2:	ff cc       	rjmp	.-1538   	; 0x43f2 <_ZL11TaskCommandPv+0x3e>
    49f4:	b2 d7       	rcall	.+3940   	; 0x595a <xTaskGetTickCount>
    49f6:	9f 93       	push	r25
    49f8:	8f 93       	push	r24
    49fa:	1f 93       	push	r17
    49fc:	0f 93       	push	r16
    49fe:	77 d1       	rcall	.+750    	; 0x4cee <xSerialPrintf_P>
    4a00:	10 92 6e 01 	sts	0x016E, r1	; 0x80016e <canSleep>
    4a04:	0f 90       	pop	r0
    4a06:	0f 90       	pop	r0
    4a08:	0f 90       	pop	r0
    4a0a:	0f 90       	pop	r0
    4a0c:	f2 cc       	rjmp	.-1564   	; 0x43f2 <_ZL11TaskCommandPv+0x3e>
    4a0e:	8c e1       	ldi	r24, 0x1C	; 28
    4a10:	91 e0       	ldi	r25, 0x01	; 1
    4a12:	0c d1       	rcall	.+536    	; 0x4c2c <xSerialPrint>
    4a14:	ee cc       	rjmp	.-1572   	; 0x43f2 <_ZL11TaskCommandPv+0x3e>

00004a16 <main>:
    4a16:	cf 93       	push	r28
    4a18:	df 93       	push	r29
    4a1a:	cd b7       	in	r28, 0x3d	; 61
    4a1c:	de b7       	in	r29, 0x3e	; 62
    4a1e:	a2 97       	sbiw	r28, 0x22	; 34
    4a20:	0f b6       	in	r0, 0x3f	; 63
    4a22:	f8 94       	cli
    4a24:	de bf       	out	0x3e, r29	; 62
    4a26:	0f be       	out	0x3f, r0	; 63
    4a28:	cd bf       	out	0x3d, r28	; 61
    4a2a:	22 9a       	sbi	0x04, 2	; 4
    4a2c:	2a 98       	cbi	0x05, 2	; 5
    4a2e:	2a 9a       	sbi	0x05, 2	; 5
    4a30:	8f e0       	ldi	r24, 0x0F	; 15
    4a32:	87 b9       	out	0x07, r24	; 7
    4a34:	18 b8       	out	0x08, r1	; 8
    4a36:	88 e0       	ldi	r24, 0x08	; 8
    4a38:	e8 2e       	mov	r14, r24
    4a3a:	f1 2c       	mov	r15, r1
    4a3c:	00 e2       	ldi	r16, 0x20	; 32
    4a3e:	10 e0       	ldi	r17, 0x00	; 0
    4a40:	20 e0       	ldi	r18, 0x00	; 0
    4a42:	36 e9       	ldi	r19, 0x96	; 150
    4a44:	40 e0       	ldi	r20, 0x00	; 0
    4a46:	50 e0       	ldi	r21, 0x00	; 0
    4a48:	60 e0       	ldi	r22, 0x00	; 0
    4a4a:	ce 01       	movw	r24, r28
    4a4c:	01 96       	adiw	r24, 0x01	; 1
    4a4e:	63 d2       	rcall	.+1222   	; 0x4f16 <xSerialPortInitMinimal>
    4a50:	82 e2       	ldi	r24, 0x22	; 34
    4a52:	fe 01       	movw	r30, r28
    4a54:	31 96       	adiw	r30, 0x01	; 1
    4a56:	a9 e6       	ldi	r26, 0x69	; 105
    4a58:	b8 e0       	ldi	r27, 0x08	; 8
    4a5a:	01 90       	ld	r0, Z+
    4a5c:	0d 92       	st	X+, r0
    4a5e:	8a 95       	dec	r24
    4a60:	e1 f7       	brne	.-8      	; 0x4a5a <main+0x44>
    4a62:	20 ea       	ldi	r18, 0xA0	; 160
    4a64:	3f e1       	ldi	r19, 0x1F	; 31
    4a66:	4e e9       	ldi	r20, 0x9E	; 158
    4a68:	5f e1       	ldi	r21, 0x1F	; 31
    4a6a:	68 e9       	ldi	r22, 0x98	; 152
    4a6c:	7f e1       	ldi	r23, 0x1F	; 31
    4a6e:	82 ea       	ldi	r24, 0xA2	; 162
    4a70:	9f e1       	ldi	r25, 0x1F	; 31
    4a72:	0e 94 6e 1c 	call	0x38dc	; 0x38dc <ds3234_init>
    4a76:	89 e6       	ldi	r24, 0x69	; 105
    4a78:	94 e0       	ldi	r25, 0x04	; 4
    4a7a:	6b d3       	rcall	.+1750   	; 0x5152 <avrSerialPrint_P>
    4a7c:	84 e5       	ldi	r24, 0x54	; 84
    4a7e:	94 e0       	ldi	r25, 0x04	; 4
    4a80:	68 d3       	rcall	.+1744   	; 0x5152 <avrSerialPrint_P>
    4a82:	e1 2c       	mov	r14, r1
    4a84:	f1 2c       	mov	r15, r1
    4a86:	04 e0       	ldi	r16, 0x04	; 4
    4a88:	20 e0       	ldi	r18, 0x00	; 0
    4a8a:	30 e0       	ldi	r19, 0x00	; 0
    4a8c:	45 e5       	ldi	r20, 0x55	; 85
    4a8e:	50 e0       	ldi	r21, 0x00	; 0
    4a90:	6e e2       	ldi	r22, 0x2E	; 46
    4a92:	71 e0       	ldi	r23, 0x01	; 1
    4a94:	81 ec       	ldi	r24, 0xC1	; 193
    4a96:	91 e2       	ldi	r25, 0x21	; 33
    4a98:	43 d6       	rcall	.+3206   	; 0x5720 <xTaskCreate>
    4a9a:	03 e0       	ldi	r16, 0x03	; 3
    4a9c:	20 e0       	ldi	r18, 0x00	; 0
    4a9e:	30 e0       	ldi	r19, 0x00	; 0
    4aa0:	40 e8       	ldi	r20, 0x80	; 128
    4aa2:	50 e0       	ldi	r21, 0x00	; 0
    4aa4:	67 e3       	ldi	r22, 0x37	; 55
    4aa6:	71 e0       	ldi	r23, 0x01	; 1
    4aa8:	8a ed       	ldi	r24, 0xDA	; 218
    4aaa:	91 e2       	ldi	r25, 0x21	; 33
    4aac:	39 d6       	rcall	.+3186   	; 0x5720 <xTaskCreate>
    4aae:	02 e0       	ldi	r16, 0x02	; 2
    4ab0:	20 e0       	ldi	r18, 0x00	; 0
    4ab2:	30 e0       	ldi	r19, 0x00	; 0
    4ab4:	4c e2       	ldi	r20, 0x2C	; 44
    4ab6:	51 e0       	ldi	r21, 0x01	; 1
    4ab8:	6f e3       	ldi	r22, 0x3F	; 63
    4aba:	71 e0       	ldi	r23, 0x01	; 1
    4abc:	83 eb       	ldi	r24, 0xB3	; 179
    4abe:	9f e1       	ldi	r25, 0x1F	; 31
    4ac0:	2f d6       	rcall	.+3166   	; 0x5720 <xTaskCreate>
    4ac2:	46 d4       	rcall	.+2188   	; 0x5350 <xPortGetFreeHeapSize>
    4ac4:	9f 93       	push	r25
    4ac6:	8f 93       	push	r24
    4ac8:	8d e3       	ldi	r24, 0x3D	; 61
    4aca:	94 e0       	ldi	r25, 0x04	; 4
    4acc:	9f 93       	push	r25
    4ace:	8f 93       	push	r24
    4ad0:	15 d3       	rcall	.+1578   	; 0x50fc <avrSerialPrintf_P>
    4ad2:	15 d7       	rcall	.+3626   	; 0x58fe <vTaskStartScheduler>
    4ad4:	0f 90       	pop	r0
    4ad6:	0f 90       	pop	r0
    4ad8:	0f 90       	pop	r0
    4ada:	0f 90       	pop	r0
    4adc:	ff cf       	rjmp	.-2      	; 0x4adc <main+0xc6>

00004ade <get_fattime>:
    4ade:	0f 93       	push	r16
    4ae0:	1f 93       	push	r17
    4ae2:	cf 93       	push	r28
    4ae4:	df 93       	push	r29
    4ae6:	e2 eb       	ldi	r30, 0xB2	; 178
    4ae8:	f1 e0       	ldi	r31, 0x01	; 1
    4aea:	81 81       	ldd	r24, Z+1	; 0x01
    4aec:	42 81       	ldd	r20, Z+2	; 0x02
    4aee:	50 e0       	ldi	r21, 0x00	; 0
    4af0:	60 e0       	ldi	r22, 0x00	; 0
    4af2:	70 e0       	ldi	r23, 0x00	; 0
    4af4:	95 e1       	ldi	r25, 0x15	; 21
    4af6:	44 0f       	add	r20, r20
    4af8:	55 1f       	adc	r21, r21
    4afa:	66 1f       	adc	r22, r22
    4afc:	77 1f       	adc	r23, r23
    4afe:	9a 95       	dec	r25
    4b00:	d1 f7       	brne	.-12     	; 0x4af6 <get_fattime+0x18>
    4b02:	68 2b       	or	r22, r24
    4b04:	c7 eb       	ldi	r28, 0xB7	; 183
    4b06:	d1 e0       	ldi	r29, 0x01	; 1
    4b08:	8a 81       	ldd	r24, Y+2	; 0x02
    4b0a:	90 e0       	ldi	r25, 0x00	; 0
    4b0c:	a0 e0       	ldi	r26, 0x00	; 0
    4b0e:	b0 e0       	ldi	r27, 0x00	; 0
    4b10:	2b e0       	ldi	r18, 0x0B	; 11
    4b12:	88 0f       	add	r24, r24
    4b14:	99 1f       	adc	r25, r25
    4b16:	aa 1f       	adc	r26, r26
    4b18:	bb 1f       	adc	r27, r27
    4b1a:	2a 95       	dec	r18
    4b1c:	d1 f7       	brne	.-12     	; 0x4b12 <get_fattime+0x34>
    4b1e:	48 2b       	or	r20, r24
    4b20:	59 2b       	or	r21, r25
    4b22:	6a 2b       	or	r22, r26
    4b24:	7b 2b       	or	r23, r27
    4b26:	89 81       	ldd	r24, Y+1	; 0x01
    4b28:	90 e0       	ldi	r25, 0x00	; 0
    4b2a:	a0 e0       	ldi	r26, 0x00	; 0
    4b2c:	b0 e0       	ldi	r27, 0x00	; 0
    4b2e:	35 e0       	ldi	r19, 0x05	; 5
    4b30:	88 0f       	add	r24, r24
    4b32:	99 1f       	adc	r25, r25
    4b34:	aa 1f       	adc	r26, r26
    4b36:	bb 1f       	adc	r27, r27
    4b38:	3a 95       	dec	r19
    4b3a:	d1 f7       	brne	.-12     	; 0x4b30 <get_fattime+0x52>
    4b3c:	48 2b       	or	r20, r24
    4b3e:	59 2b       	or	r21, r25
    4b40:	6a 2b       	or	r22, r26
    4b42:	7b 2b       	or	r23, r27
    4b44:	88 81       	ld	r24, Y
    4b46:	90 e0       	ldi	r25, 0x00	; 0
    4b48:	a0 e0       	ldi	r26, 0x00	; 0
    4b4a:	b0 e0       	ldi	r27, 0x00	; 0
    4b4c:	b6 95       	lsr	r27
    4b4e:	a7 95       	ror	r26
    4b50:	97 95       	ror	r25
    4b52:	87 95       	ror	r24
    4b54:	48 2b       	or	r20, r24
    4b56:	59 2b       	or	r21, r25
    4b58:	6a 2b       	or	r22, r26
    4b5a:	7b 2b       	or	r23, r27
    4b5c:	83 81       	ldd	r24, Z+3	; 0x03
    4b5e:	90 e0       	ldi	r25, 0x00	; 0
    4b60:	44 96       	adiw	r24, 0x14	; 20
    4b62:	09 2e       	mov	r0, r25
    4b64:	00 0c       	add	r0, r0
    4b66:	aa 0b       	sbc	r26, r26
    4b68:	bb 0b       	sbc	r27, r27
    4b6a:	d9 e1       	ldi	r29, 0x19	; 25
    4b6c:	88 0f       	add	r24, r24
    4b6e:	99 1f       	adc	r25, r25
    4b70:	aa 1f       	adc	r26, r26
    4b72:	bb 1f       	adc	r27, r27
    4b74:	da 95       	dec	r29
    4b76:	d1 f7       	brne	.-12     	; 0x4b6c <get_fattime+0x8e>
    4b78:	8a 01       	movw	r16, r20
    4b7a:	9b 01       	movw	r18, r22
    4b7c:	08 2b       	or	r16, r24
    4b7e:	19 2b       	or	r17, r25
    4b80:	2a 2b       	or	r18, r26
    4b82:	3b 2b       	or	r19, r27
    4b84:	c9 01       	movw	r24, r18
    4b86:	b8 01       	movw	r22, r16
    4b88:	df 91       	pop	r29
    4b8a:	cf 91       	pop	r28
    4b8c:	1f 91       	pop	r17
    4b8e:	0f 91       	pop	r16
    4b90:	08 95       	ret

00004b92 <__vector_1>:
    4b92:	1f 92       	push	r1
    4b94:	0f 92       	push	r0
    4b96:	0f b6       	in	r0, 0x3f	; 63
    4b98:	0f 92       	push	r0
    4b9a:	11 24       	eor	r1, r1
    4b9c:	2f 93       	push	r18
    4b9e:	3f 93       	push	r19
    4ba0:	4f 93       	push	r20
    4ba2:	5f 93       	push	r21
    4ba4:	6f 93       	push	r22
    4ba6:	7f 93       	push	r23
    4ba8:	8f 93       	push	r24
    4baa:	9f 93       	push	r25
    4bac:	af 93       	push	r26
    4bae:	bf 93       	push	r27
    4bb0:	ef 93       	push	r30
    4bb2:	ff 93       	push	r31
    4bb4:	63 e5       	ldi	r22, 0x53	; 83
    4bb6:	71 e0       	ldi	r23, 0x01	; 1
    4bb8:	80 91 bd 01 	lds	r24, 0x01BD	; 0x8001bd <_ZL13xTaskToNotify>
    4bbc:	90 91 be 01 	lds	r25, 0x01BE	; 0x8001be <_ZL13xTaskToNotify+0x1>
    4bc0:	0e 94 b1 2e 	call	0x5d62	; 0x5d62 <vTaskNotifyGiveFromISR>
    4bc4:	10 92 be 01 	sts	0x01BE, r1	; 0x8001be <_ZL13xTaskToNotify+0x1>
    4bc8:	10 92 bd 01 	sts	0x01BD, r1	; 0x8001bd <_ZL13xTaskToNotify>
    4bcc:	8c b5       	in	r24, 0x2c	; 44
    4bce:	80 64       	ori	r24, 0x40	; 64
    4bd0:	8c bd       	out	0x2c, r24	; 44
    4bd2:	8f e0       	ldi	r24, 0x0F	; 15
    4bd4:	14 d8       	rcall	.-4056   	; 0x3bfe <ds3234_read_register>
    4bd6:	68 2f       	mov	r22, r24
    4bd8:	6c 7f       	andi	r22, 0xFC	; 252
    4bda:	8f e0       	ldi	r24, 0x0F	; 15
    4bdc:	32 d8       	rcall	.-3996   	; 0x3c42 <ds3234_write_register>
    4bde:	e0 9a       	sbi	0x1c, 0	; 28
    4be0:	80 91 53 01 	lds	r24, 0x0153	; 0x800153 <_ZZ10__vector_1E24xHigherPriorityTaskWoken>
    4be4:	81 11       	cpse	r24, r1
    4be6:	63 d4       	rcall	.+2246   	; 0x54ae <vPortYield>
    4be8:	ff 91       	pop	r31
    4bea:	ef 91       	pop	r30
    4bec:	bf 91       	pop	r27
    4bee:	af 91       	pop	r26
    4bf0:	9f 91       	pop	r25
    4bf2:	8f 91       	pop	r24
    4bf4:	7f 91       	pop	r23
    4bf6:	6f 91       	pop	r22
    4bf8:	5f 91       	pop	r21
    4bfa:	4f 91       	pop	r20
    4bfc:	3f 91       	pop	r19
    4bfe:	2f 91       	pop	r18
    4c00:	0f 90       	pop	r0
    4c02:	0f be       	out	0x3f, r0	; 63
    4c04:	0f 90       	pop	r0
    4c06:	1f 90       	pop	r1
    4c08:	18 95       	reti

00004c0a <vApplicationIdleHook>:
    4c0a:	08 95       	ret

00004c0c <vApplicationTickHook>:
    4c0c:	80 91 54 01 	lds	r24, 0x0154	; 0x800154 <disk_tick>
    4c10:	8f 5f       	subi	r24, 0xFF	; 255
    4c12:	80 93 54 01 	sts	0x0154, r24	; 0x800154 <disk_tick>
    4c16:	8b 30       	cpi	r24, 0x0B	; 11
    4c18:	20 f0       	brcs	.+8      	; 0x4c22 <vApplicationTickHook+0x16>
    4c1a:	0e 94 01 07 	call	0xe02	; 0xe02 <disk_timerproc>
    4c1e:	10 92 54 01 	sts	0x0154, r1	; 0x800154 <disk_tick>
    4c22:	08 95       	ret

00004c24 <_GLOBAL__sub_I__Z8spi_initv>:
    4c24:	8f eb       	ldi	r24, 0xBF	; 191
    4c26:	91 e0       	ldi	r25, 0x01	; 1
    4c28:	0c 94 44 1b 	jmp	0x3688	; 0x3688 <_ZN5SHT1xC1Ev>

00004c2c <xSerialPrint>:
    4c2c:	cf 93       	push	r28
    4c2e:	df 93       	push	r29
    4c30:	fc 01       	movw	r30, r24
    4c32:	01 90       	ld	r0, Z+
    4c34:	00 20       	and	r0, r0
    4c36:	e9 f7       	brne	.-6      	; 0x4c32 <xSerialPrint+0x6>
    4c38:	dc 01       	movw	r26, r24
    4c3a:	9f 01       	movw	r18, r30
    4c3c:	21 50       	subi	r18, 0x01	; 1
    4c3e:	31 09       	sbc	r19, r1
    4c40:	46 e7       	ldi	r20, 0x76	; 118
    4c42:	58 e0       	ldi	r21, 0x08	; 8
    4c44:	a2 17       	cp	r26, r18
    4c46:	b3 07       	cpc	r27, r19
    4c48:	09 f4       	brne	.+2      	; 0x4c4c <xSerialPrint+0x20>
    4c4a:	4e c0       	rjmp	.+156    	; 0x4ce8 <xSerialPrint+0xbc>
    4c4c:	8d 91       	ld	r24, X+
    4c4e:	0f b6       	in	r0, 0x3f	; 63
    4c50:	f8 94       	cli
    4c52:	0f 92       	push	r0
    4c54:	e0 91 76 08 	lds	r30, 0x0876	; 0x800876 <xSerialPort+0xd>
    4c58:	f0 91 77 08 	lds	r31, 0x0877	; 0x800877 <xSerialPort+0xe>
    4c5c:	0f 90       	pop	r0
    4c5e:	0f be       	out	0x3f, r0	; 63
    4c60:	60 91 80 08 	lds	r22, 0x0880	; 0x800880 <xSerialPort+0x17>
    4c64:	70 91 81 08 	lds	r23, 0x0881	; 0x800881 <xSerialPort+0x18>
    4c68:	e6 17       	cp	r30, r22
    4c6a:	f7 07       	cpc	r31, r23
    4c6c:	b1 f4       	brne	.+44     	; 0x4c9a <xSerialPrint+0x6e>
    4c6e:	ef ef       	ldi	r30, 0xFF	; 255
    4c70:	f9 ef       	ldi	r31, 0xF9	; 249
    4c72:	31 97       	sbiw	r30, 0x01	; 1
    4c74:	f1 f7       	brne	.-4      	; 0x4c72 <xSerialPrint+0x46>
    4c76:	00 c0       	rjmp	.+0      	; 0x4c78 <xSerialPrint+0x4c>
    4c78:	00 00       	nop
    4c7a:	0f b6       	in	r0, 0x3f	; 63
    4c7c:	f8 94       	cli
    4c7e:	0f 92       	push	r0
    4c80:	e0 91 76 08 	lds	r30, 0x0876	; 0x800876 <xSerialPort+0xd>
    4c84:	f0 91 77 08 	lds	r31, 0x0877	; 0x800877 <xSerialPort+0xe>
    4c88:	0f 90       	pop	r0
    4c8a:	0f be       	out	0x3f, r0	; 63
    4c8c:	60 91 80 08 	lds	r22, 0x0880	; 0x800880 <xSerialPort+0x17>
    4c90:	70 91 81 08 	lds	r23, 0x0881	; 0x800881 <xSerialPort+0x18>
    4c94:	e6 17       	cp	r30, r22
    4c96:	f7 07       	cpc	r31, r23
    4c98:	a9 f2       	breq	.-86     	; 0x4c44 <xSerialPrint+0x18>
    4c9a:	fa 01       	movw	r30, r20
    4c9c:	c2 81       	ldd	r28, Z+2	; 0x02
    4c9e:	d3 81       	ldd	r29, Z+3	; 0x03
    4ca0:	88 83       	st	Y, r24
    4ca2:	82 81       	ldd	r24, Z+2	; 0x02
    4ca4:	93 81       	ldd	r25, Z+3	; 0x03
    4ca6:	01 96       	adiw	r24, 0x01	; 1
    4ca8:	93 83       	std	Z+3, r25	; 0x03
    4caa:	82 83       	std	Z+2, r24	; 0x02
    4cac:	60 85       	ldd	r22, Z+8	; 0x08
    4cae:	71 85       	ldd	r23, Z+9	; 0x09
    4cb0:	86 17       	cp	r24, r22
    4cb2:	97 07       	cpc	r25, r23
    4cb4:	21 f4       	brne	.+8      	; 0x4cbe <xSerialPrint+0x92>
    4cb6:	86 81       	ldd	r24, Z+6	; 0x06
    4cb8:	97 81       	ldd	r25, Z+7	; 0x07
    4cba:	93 83       	std	Z+3, r25	; 0x03
    4cbc:	82 83       	std	Z+2, r24	; 0x02
    4cbe:	0f b6       	in	r0, 0x3f	; 63
    4cc0:	f8 94       	cli
    4cc2:	0f 92       	push	r0
    4cc4:	80 81       	ld	r24, Z
    4cc6:	91 81       	ldd	r25, Z+1	; 0x01
    4cc8:	01 96       	adiw	r24, 0x01	; 1
    4cca:	91 83       	std	Z+1, r25	; 0x01
    4ccc:	80 83       	st	Z, r24
    4cce:	0f 90       	pop	r0
    4cd0:	0f be       	out	0x3f, r0	; 63
    4cd2:	80 91 69 08 	lds	r24, 0x0869	; 0x800869 <xSerialPort>
    4cd6:	82 30       	cpi	r24, 0x02	; 2
    4cd8:	08 f0       	brcs	.+2      	; 0x4cdc <xSerialPrint+0xb0>
    4cda:	b4 cf       	rjmp	.-152    	; 0x4c44 <xSerialPrint+0x18>
    4cdc:	80 91 c1 00 	lds	r24, 0x00C1	; 0x8000c1 <__data_load_end+0x7f994b>
    4ce0:	80 62       	ori	r24, 0x20	; 32
    4ce2:	80 93 c1 00 	sts	0x00C1, r24	; 0x8000c1 <__data_load_end+0x7f994b>
    4ce6:	ae cf       	rjmp	.-164    	; 0x4c44 <xSerialPrint+0x18>
    4ce8:	df 91       	pop	r29
    4cea:	cf 91       	pop	r28
    4cec:	08 95       	ret

00004cee <xSerialPrintf_P>:
    4cee:	ef 92       	push	r14
    4cf0:	ff 92       	push	r15
    4cf2:	0f 93       	push	r16
    4cf4:	1f 93       	push	r17
    4cf6:	cf 93       	push	r28
    4cf8:	df 93       	push	r29
    4cfa:	cd b7       	in	r28, 0x3d	; 61
    4cfc:	de b7       	in	r29, 0x3e	; 62
    4cfe:	8e 01       	movw	r16, r28
    4d00:	07 5f       	subi	r16, 0xF7	; 247
    4d02:	1f 4f       	sbci	r17, 0xFF	; 255
    4d04:	f8 01       	movw	r30, r16
    4d06:	e1 90       	ld	r14, Z+
    4d08:	f1 90       	ld	r15, Z+
    4d0a:	8f 01       	movw	r16, r30
    4d0c:	80 91 86 08 	lds	r24, 0x0886	; 0x800886 <xSerialPort+0x1d>
    4d10:	81 30       	cpi	r24, 0x01	; 1
    4d12:	11 f4       	brne	.+4      	; 0x4d18 <xSerialPrintf_P+0x2a>
    4d14:	cc d3       	rcall	.+1944   	; 0x54ae <vPortYield>
    4d16:	fa cf       	rjmp	.-12     	; 0x4d0c <xSerialPrintf_P+0x1e>
    4d18:	81 e0       	ldi	r24, 0x01	; 1
    4d1a:	80 93 86 08 	sts	0x0886, r24	; 0x800886 <xSerialPort+0x1d>
    4d1e:	60 91 84 08 	lds	r22, 0x0884	; 0x800884 <xSerialPort+0x1b>
    4d22:	70 91 85 08 	lds	r23, 0x0885	; 0x800885 <xSerialPort+0x1c>
    4d26:	98 01       	movw	r18, r16
    4d28:	a7 01       	movw	r20, r14
    4d2a:	80 91 82 08 	lds	r24, 0x0882	; 0x800882 <xSerialPort+0x19>
    4d2e:	90 91 83 08 	lds	r25, 0x0883	; 0x800883 <xSerialPort+0x1a>
    4d32:	0e 94 0b 33 	call	0x6616	; 0x6616 <vsnprintf_P>
    4d36:	80 91 82 08 	lds	r24, 0x0882	; 0x800882 <xSerialPort+0x19>
    4d3a:	90 91 83 08 	lds	r25, 0x0883	; 0x800883 <xSerialPort+0x1a>
    4d3e:	76 df       	rcall	.-276    	; 0x4c2c <xSerialPrint>
    4d40:	10 92 86 08 	sts	0x0886, r1	; 0x800886 <xSerialPort+0x1d>
    4d44:	df 91       	pop	r29
    4d46:	cf 91       	pop	r28
    4d48:	1f 91       	pop	r17
    4d4a:	0f 91       	pop	r16
    4d4c:	ff 90       	pop	r15
    4d4e:	ef 90       	pop	r14
    4d50:	08 95       	ret

00004d52 <xSerialPrint_P>:
    4d52:	cf 93       	push	r28
    4d54:	df 93       	push	r29
    4d56:	d8 2f       	mov	r29, r24
    4d58:	c9 2f       	mov	r28, r25
    4d5a:	0e 94 86 32 	call	0x650c	; 0x650c <__strlen_P>
    4d5e:	ed 2f       	mov	r30, r29
    4d60:	fc 2f       	mov	r31, r28
    4d62:	bf 01       	movw	r22, r30
    4d64:	68 0f       	add	r22, r24
    4d66:	79 1f       	adc	r23, r25
    4d68:	46 e7       	ldi	r20, 0x76	; 118
    4d6a:	58 e0       	ldi	r21, 0x08	; 8
    4d6c:	e6 17       	cp	r30, r22
    4d6e:	f7 07       	cpc	r31, r23
    4d70:	09 f4       	brne	.+2      	; 0x4d74 <xSerialPrint_P+0x22>
    4d72:	4f c0       	rjmp	.+158    	; 0x4e12 <xSerialPrint_P+0xc0>
    4d74:	84 91       	lpm	r24, Z
    4d76:	0f b6       	in	r0, 0x3f	; 63
    4d78:	f8 94       	cli
    4d7a:	0f 92       	push	r0
    4d7c:	a0 91 76 08 	lds	r26, 0x0876	; 0x800876 <xSerialPort+0xd>
    4d80:	b0 91 77 08 	lds	r27, 0x0877	; 0x800877 <xSerialPort+0xe>
    4d84:	0f 90       	pop	r0
    4d86:	0f be       	out	0x3f, r0	; 63
    4d88:	20 91 80 08 	lds	r18, 0x0880	; 0x800880 <xSerialPort+0x17>
    4d8c:	30 91 81 08 	lds	r19, 0x0881	; 0x800881 <xSerialPort+0x18>
    4d90:	a2 17       	cp	r26, r18
    4d92:	b3 07       	cpc	r27, r19
    4d94:	b1 f4       	brne	.+44     	; 0x4dc2 <xSerialPrint_P+0x70>
    4d96:	af ef       	ldi	r26, 0xFF	; 255
    4d98:	b9 ef       	ldi	r27, 0xF9	; 249
    4d9a:	11 97       	sbiw	r26, 0x01	; 1
    4d9c:	f1 f7       	brne	.-4      	; 0x4d9a <xSerialPrint_P+0x48>
    4d9e:	00 c0       	rjmp	.+0      	; 0x4da0 <xSerialPrint_P+0x4e>
    4da0:	00 00       	nop
    4da2:	0f b6       	in	r0, 0x3f	; 63
    4da4:	f8 94       	cli
    4da6:	0f 92       	push	r0
    4da8:	a0 91 76 08 	lds	r26, 0x0876	; 0x800876 <xSerialPort+0xd>
    4dac:	b0 91 77 08 	lds	r27, 0x0877	; 0x800877 <xSerialPort+0xe>
    4db0:	0f 90       	pop	r0
    4db2:	0f be       	out	0x3f, r0	; 63
    4db4:	20 91 80 08 	lds	r18, 0x0880	; 0x800880 <xSerialPort+0x17>
    4db8:	30 91 81 08 	lds	r19, 0x0881	; 0x800881 <xSerialPort+0x18>
    4dbc:	a2 17       	cp	r26, r18
    4dbe:	b3 07       	cpc	r27, r19
    4dc0:	31 f1       	breq	.+76     	; 0x4e0e <xSerialPrint_P+0xbc>
    4dc2:	ea 01       	movw	r28, r20
    4dc4:	aa 81       	ldd	r26, Y+2	; 0x02
    4dc6:	bb 81       	ldd	r27, Y+3	; 0x03
    4dc8:	8c 93       	st	X, r24
    4dca:	2a 81       	ldd	r18, Y+2	; 0x02
    4dcc:	3b 81       	ldd	r19, Y+3	; 0x03
    4dce:	2f 5f       	subi	r18, 0xFF	; 255
    4dd0:	3f 4f       	sbci	r19, 0xFF	; 255
    4dd2:	3b 83       	std	Y+3, r19	; 0x03
    4dd4:	2a 83       	std	Y+2, r18	; 0x02
    4dd6:	88 85       	ldd	r24, Y+8	; 0x08
    4dd8:	99 85       	ldd	r25, Y+9	; 0x09
    4dda:	28 17       	cp	r18, r24
    4ddc:	39 07       	cpc	r19, r25
    4dde:	21 f4       	brne	.+8      	; 0x4de8 <xSerialPrint_P+0x96>
    4de0:	8e 81       	ldd	r24, Y+6	; 0x06
    4de2:	9f 81       	ldd	r25, Y+7	; 0x07
    4de4:	9b 83       	std	Y+3, r25	; 0x03
    4de6:	8a 83       	std	Y+2, r24	; 0x02
    4de8:	0f b6       	in	r0, 0x3f	; 63
    4dea:	f8 94       	cli
    4dec:	0f 92       	push	r0
    4dee:	88 81       	ld	r24, Y
    4df0:	99 81       	ldd	r25, Y+1	; 0x01
    4df2:	01 96       	adiw	r24, 0x01	; 1
    4df4:	99 83       	std	Y+1, r25	; 0x01
    4df6:	88 83       	st	Y, r24
    4df8:	0f 90       	pop	r0
    4dfa:	0f be       	out	0x3f, r0	; 63
    4dfc:	80 91 69 08 	lds	r24, 0x0869	; 0x800869 <xSerialPort>
    4e00:	82 30       	cpi	r24, 0x02	; 2
    4e02:	28 f4       	brcc	.+10     	; 0x4e0e <xSerialPrint_P+0xbc>
    4e04:	90 91 c1 00 	lds	r25, 0x00C1	; 0x8000c1 <__data_load_end+0x7f994b>
    4e08:	90 62       	ori	r25, 0x20	; 32
    4e0a:	90 93 c1 00 	sts	0x00C1, r25	; 0x8000c1 <__data_load_end+0x7f994b>
    4e0e:	31 96       	adiw	r30, 0x01	; 1
    4e10:	ad cf       	rjmp	.-166    	; 0x4d6c <xSerialPrint_P+0x1a>
    4e12:	df 91       	pop	r29
    4e14:	cf 91       	pop	r28
    4e16:	08 95       	ret

00004e18 <xSerialGetChar>:
    4e18:	0f b6       	in	r0, 0x3f	; 63
    4e1a:	f8 94       	cli
    4e1c:	0f 92       	push	r0
    4e1e:	fc 01       	movw	r30, r24
    4e20:	21 81       	ldd	r18, Z+1	; 0x01
    4e22:	32 81       	ldd	r19, Z+2	; 0x02
    4e24:	0f 90       	pop	r0
    4e26:	0f be       	out	0x3f, r0	; 63
    4e28:	23 2b       	or	r18, r19
    4e2a:	f1 f0       	breq	.+60     	; 0x4e68 <xSerialGetChar+0x50>
    4e2c:	01 96       	adiw	r24, 0x01	; 1
    4e2e:	fc 01       	movw	r30, r24
    4e30:	a4 81       	ldd	r26, Z+4	; 0x04
    4e32:	b5 81       	ldd	r27, Z+5	; 0x05
    4e34:	2d 91       	ld	r18, X+
    4e36:	b5 83       	std	Z+5, r27	; 0x05
    4e38:	a4 83       	std	Z+4, r26	; 0x04
    4e3a:	80 85       	ldd	r24, Z+8	; 0x08
    4e3c:	91 85       	ldd	r25, Z+9	; 0x09
    4e3e:	a8 17       	cp	r26, r24
    4e40:	b9 07       	cpc	r27, r25
    4e42:	21 f4       	brne	.+8      	; 0x4e4c <xSerialGetChar+0x34>
    4e44:	86 81       	ldd	r24, Z+6	; 0x06
    4e46:	97 81       	ldd	r25, Z+7	; 0x07
    4e48:	95 83       	std	Z+5, r25	; 0x05
    4e4a:	84 83       	std	Z+4, r24	; 0x04
    4e4c:	0f b6       	in	r0, 0x3f	; 63
    4e4e:	f8 94       	cli
    4e50:	0f 92       	push	r0
    4e52:	80 81       	ld	r24, Z
    4e54:	91 81       	ldd	r25, Z+1	; 0x01
    4e56:	01 97       	sbiw	r24, 0x01	; 1
    4e58:	91 83       	std	Z+1, r25	; 0x01
    4e5a:	80 83       	st	Z, r24
    4e5c:	0f 90       	pop	r0
    4e5e:	0f be       	out	0x3f, r0	; 63
    4e60:	fb 01       	movw	r30, r22
    4e62:	20 83       	st	Z, r18
    4e64:	81 e0       	ldi	r24, 0x01	; 1
    4e66:	08 95       	ret
    4e68:	80 e0       	ldi	r24, 0x00	; 0
    4e6a:	08 95       	ret

00004e6c <xSerialPutChar>:
    4e6c:	cf 93       	push	r28
    4e6e:	df 93       	push	r29
    4e70:	dc 01       	movw	r26, r24
    4e72:	0f b6       	in	r0, 0x3f	; 63
    4e74:	f8 94       	cli
    4e76:	0f 92       	push	r0
    4e78:	1d 96       	adiw	r26, 0x0d	; 13
    4e7a:	2d 91       	ld	r18, X+
    4e7c:	3c 91       	ld	r19, X
    4e7e:	1e 97       	sbiw	r26, 0x0e	; 14
    4e80:	0f 90       	pop	r0
    4e82:	0f be       	out	0x3f, r0	; 63
    4e84:	57 96       	adiw	r26, 0x17	; 23
    4e86:	8d 91       	ld	r24, X+
    4e88:	9c 91       	ld	r25, X
    4e8a:	58 97       	sbiw	r26, 0x18	; 24
    4e8c:	28 17       	cp	r18, r24
    4e8e:	39 07       	cpc	r19, r25
    4e90:	b1 f4       	brne	.+44     	; 0x4ebe <xSerialPutChar+0x52>
    4e92:	8f ef       	ldi	r24, 0xFF	; 255
    4e94:	99 ef       	ldi	r25, 0xF9	; 249
    4e96:	01 97       	sbiw	r24, 0x01	; 1
    4e98:	f1 f7       	brne	.-4      	; 0x4e96 <xSerialPutChar+0x2a>
    4e9a:	00 c0       	rjmp	.+0      	; 0x4e9c <xSerialPutChar+0x30>
    4e9c:	00 00       	nop
    4e9e:	0f b6       	in	r0, 0x3f	; 63
    4ea0:	f8 94       	cli
    4ea2:	0f 92       	push	r0
    4ea4:	1d 96       	adiw	r26, 0x0d	; 13
    4ea6:	2d 91       	ld	r18, X+
    4ea8:	3c 91       	ld	r19, X
    4eaa:	1e 97       	sbiw	r26, 0x0e	; 14
    4eac:	0f 90       	pop	r0
    4eae:	0f be       	out	0x3f, r0	; 63
    4eb0:	57 96       	adiw	r26, 0x17	; 23
    4eb2:	8d 91       	ld	r24, X+
    4eb4:	9c 91       	ld	r25, X
    4eb6:	58 97       	sbiw	r26, 0x18	; 24
    4eb8:	28 17       	cp	r18, r24
    4eba:	39 07       	cpc	r19, r25
    4ebc:	31 f1       	breq	.+76     	; 0x4f0a <xSerialPutChar+0x9e>
    4ebe:	fd 01       	movw	r30, r26
    4ec0:	3d 96       	adiw	r30, 0x0d	; 13
    4ec2:	c2 81       	ldd	r28, Z+2	; 0x02
    4ec4:	d3 81       	ldd	r29, Z+3	; 0x03
    4ec6:	68 83       	st	Y, r22
    4ec8:	82 81       	ldd	r24, Z+2	; 0x02
    4eca:	93 81       	ldd	r25, Z+3	; 0x03
    4ecc:	01 96       	adiw	r24, 0x01	; 1
    4ece:	93 83       	std	Z+3, r25	; 0x03
    4ed0:	82 83       	std	Z+2, r24	; 0x02
    4ed2:	20 85       	ldd	r18, Z+8	; 0x08
    4ed4:	31 85       	ldd	r19, Z+9	; 0x09
    4ed6:	82 17       	cp	r24, r18
    4ed8:	93 07       	cpc	r25, r19
    4eda:	21 f4       	brne	.+8      	; 0x4ee4 <xSerialPutChar+0x78>
    4edc:	86 81       	ldd	r24, Z+6	; 0x06
    4ede:	97 81       	ldd	r25, Z+7	; 0x07
    4ee0:	93 83       	std	Z+3, r25	; 0x03
    4ee2:	82 83       	std	Z+2, r24	; 0x02
    4ee4:	0f b6       	in	r0, 0x3f	; 63
    4ee6:	f8 94       	cli
    4ee8:	0f 92       	push	r0
    4eea:	80 81       	ld	r24, Z
    4eec:	91 81       	ldd	r25, Z+1	; 0x01
    4eee:	01 96       	adiw	r24, 0x01	; 1
    4ef0:	91 83       	std	Z+1, r25	; 0x01
    4ef2:	80 83       	st	Z, r24
    4ef4:	0f 90       	pop	r0
    4ef6:	0f be       	out	0x3f, r0	; 63
    4ef8:	8c 91       	ld	r24, X
    4efa:	82 30       	cpi	r24, 0x02	; 2
    4efc:	40 f4       	brcc	.+16     	; 0x4f0e <xSerialPutChar+0xa2>
    4efe:	80 91 c1 00 	lds	r24, 0x00C1	; 0x8000c1 <__data_load_end+0x7f994b>
    4f02:	80 62       	ori	r24, 0x20	; 32
    4f04:	80 93 c1 00 	sts	0x00C1, r24	; 0x8000c1 <__data_load_end+0x7f994b>
    4f08:	02 c0       	rjmp	.+4      	; 0x4f0e <xSerialPutChar+0xa2>
    4f0a:	80 e0       	ldi	r24, 0x00	; 0
    4f0c:	01 c0       	rjmp	.+2      	; 0x4f10 <xSerialPutChar+0xa4>
    4f0e:	81 e0       	ldi	r24, 0x01	; 1
    4f10:	df 91       	pop	r29
    4f12:	cf 91       	pop	r28
    4f14:	08 95       	ret

00004f16 <xSerialPortInitMinimal>:
    4f16:	bf 92       	push	r11
    4f18:	cf 92       	push	r12
    4f1a:	df 92       	push	r13
    4f1c:	ef 92       	push	r14
    4f1e:	ff 92       	push	r15
    4f20:	0f 93       	push	r16
    4f22:	1f 93       	push	r17
    4f24:	cf 93       	push	r28
    4f26:	df 93       	push	r29
    4f28:	cd b7       	in	r28, 0x3d	; 61
    4f2a:	de b7       	in	r29, 0x3e	; 62
    4f2c:	a6 97       	sbiw	r28, 0x26	; 38
    4f2e:	0f b6       	in	r0, 0x3f	; 63
    4f30:	f8 94       	cli
    4f32:	de bf       	out	0x3e, r29	; 62
    4f34:	0f be       	out	0x3f, r0	; 63
    4f36:	cd bf       	out	0x3d, r28	; 61
    4f38:	6c 01       	movw	r12, r24
    4f3a:	b6 2e       	mov	r11, r22
    4f3c:	c7 01       	movw	r24, r14
    4f3e:	2b a3       	std	Y+35, r18	; 0x23
    4f40:	3c a3       	std	Y+36, r19	; 0x24
    4f42:	4d a3       	std	Y+37, r20	; 0x25
    4f44:	5e a3       	std	Y+38, r21	; 0x26
    4f46:	d3 d1       	rcall	.+934    	; 0x52ee <pvPortMalloc>
    4f48:	2b a1       	ldd	r18, Y+35	; 0x23
    4f4a:	3c a1       	ldd	r19, Y+36	; 0x24
    4f4c:	4d a1       	ldd	r20, Y+37	; 0x25
    4f4e:	5e a1       	ldd	r21, Y+38	; 0x26
    4f50:	00 97       	sbiw	r24, 0x00	; 0
    4f52:	a9 f0       	breq	.+42     	; 0x4f7e <xSerialPortInitMinimal+0x68>
    4f54:	fe 01       	movw	r30, r28
    4f56:	32 96       	adiw	r30, 0x02	; 2
    4f58:	0f b6       	in	r0, 0x3f	; 63
    4f5a:	f8 94       	cli
    4f5c:	0f 92       	push	r0
    4f5e:	11 82       	std	Z+1, r1	; 0x01
    4f60:	10 82       	st	Z, r1
    4f62:	93 83       	std	Z+3, r25	; 0x03
    4f64:	82 83       	std	Z+2, r24	; 0x02
    4f66:	95 83       	std	Z+5, r25	; 0x05
    4f68:	84 83       	std	Z+4, r24	; 0x04
    4f6a:	97 83       	std	Z+7, r25	; 0x07
    4f6c:	86 83       	std	Z+6, r24	; 0x06
    4f6e:	8e 0d       	add	r24, r14
    4f70:	9f 1d       	adc	r25, r15
    4f72:	91 87       	std	Z+9, r25	; 0x09
    4f74:	80 87       	std	Z+8, r24	; 0x08
    4f76:	f3 86       	std	Z+11, r15	; 0x0b
    4f78:	e2 86       	std	Z+10, r14	; 0x0a
    4f7a:	0f 90       	pop	r0
    4f7c:	0f be       	out	0x3f, r0	; 63
    4f7e:	c8 01       	movw	r24, r16
    4f80:	2b a3       	std	Y+35, r18	; 0x23
    4f82:	3c a3       	std	Y+36, r19	; 0x24
    4f84:	4d a3       	std	Y+37, r20	; 0x25
    4f86:	5e a3       	std	Y+38, r21	; 0x26
    4f88:	b2 d1       	rcall	.+868    	; 0x52ee <pvPortMalloc>
    4f8a:	2b a1       	ldd	r18, Y+35	; 0x23
    4f8c:	3c a1       	ldd	r19, Y+36	; 0x24
    4f8e:	4d a1       	ldd	r20, Y+37	; 0x25
    4f90:	5e a1       	ldd	r21, Y+38	; 0x26
    4f92:	00 97       	sbiw	r24, 0x00	; 0
    4f94:	a9 f0       	breq	.+42     	; 0x4fc0 <xSerialPortInitMinimal+0xaa>
    4f96:	fe 01       	movw	r30, r28
    4f98:	3e 96       	adiw	r30, 0x0e	; 14
    4f9a:	0f b6       	in	r0, 0x3f	; 63
    4f9c:	f8 94       	cli
    4f9e:	0f 92       	push	r0
    4fa0:	11 82       	std	Z+1, r1	; 0x01
    4fa2:	10 82       	st	Z, r1
    4fa4:	93 83       	std	Z+3, r25	; 0x03
    4fa6:	82 83       	std	Z+2, r24	; 0x02
    4fa8:	95 83       	std	Z+5, r25	; 0x05
    4faa:	84 83       	std	Z+4, r24	; 0x04
    4fac:	97 83       	std	Z+7, r25	; 0x07
    4fae:	86 83       	std	Z+6, r24	; 0x06
    4fb0:	80 0f       	add	r24, r16
    4fb2:	91 1f       	adc	r25, r17
    4fb4:	91 87       	std	Z+9, r25	; 0x09
    4fb6:	80 87       	std	Z+8, r24	; 0x08
    4fb8:	13 87       	std	Z+11, r17	; 0x0b
    4fba:	02 87       	std	Z+10, r16	; 0x0a
    4fbc:	0f 90       	pop	r0
    4fbe:	0f be       	out	0x3f, r0	; 63
    4fc0:	c8 01       	movw	r24, r16
    4fc2:	2b a3       	std	Y+35, r18	; 0x23
    4fc4:	3c a3       	std	Y+36, r19	; 0x24
    4fc6:	4d a3       	std	Y+37, r20	; 0x25
    4fc8:	5e a3       	std	Y+38, r21	; 0x26
    4fca:	91 d1       	rcall	.+802    	; 0x52ee <pvPortMalloc>
    4fcc:	9b 8f       	std	Y+27, r25	; 0x1b
    4fce:	8a 8f       	std	Y+26, r24	; 0x1a
    4fd0:	b9 82       	std	Y+1, r11	; 0x01
    4fd2:	1d 8f       	std	Y+29, r17	; 0x1d
    4fd4:	0c 8f       	std	Y+28, r16	; 0x1c
    4fd6:	1e 8e       	std	Y+30, r1	; 0x1e
    4fd8:	2b a1       	ldd	r18, Y+35	; 0x23
    4fda:	3c a1       	ldd	r19, Y+36	; 0x24
    4fdc:	4d a1       	ldd	r20, Y+37	; 0x25
    4fde:	5e a1       	ldd	r21, Y+38	; 0x26
    4fe0:	2f 8f       	std	Y+31, r18	; 0x1f
    4fe2:	38 a3       	std	Y+32, r19	; 0x20
    4fe4:	49 a3       	std	Y+33, r20	; 0x21
    4fe6:	5a a3       	std	Y+34, r21	; 0x22
    4fe8:	0f b6       	in	r0, 0x3f	; 63
    4fea:	f8 94       	cli
    4fec:	0f 92       	push	r0
    4fee:	bb 20       	and	r11, r11
    4ff0:	61 f1       	breq	.+88     	; 0x504a <xSerialPortInitMinimal+0x134>
    4ff2:	81 e0       	ldi	r24, 0x01	; 1
    4ff4:	b8 12       	cpse	r11, r24
    4ff6:	4f c0       	rjmp	.+158    	; 0x5096 <xSerialPortInitMinimal+0x180>
    4ff8:	10 92 c5 00 	sts	0x00C5, r1	; 0x8000c5 <__data_load_end+0x7f994f>
    4ffc:	10 92 c4 00 	sts	0x00C4, r1	; 0x8000c4 <__data_load_end+0x7f994e>
    5000:	54 9a       	sbi	0x0a, 4	; 10
    5002:	80 ec       	ldi	r24, 0xC0	; 192
    5004:	80 93 c2 00 	sts	0x00C2, r24	; 0x8000c2 <__data_load_end+0x7f994c>
    5008:	88 e9       	ldi	r24, 0x98	; 152
    500a:	80 93 c1 00 	sts	0x00C1, r24	; 0x8000c1 <__data_load_end+0x7f994b>
    500e:	da 01       	movw	r26, r20
    5010:	c9 01       	movw	r24, r18
    5012:	80 5c       	subi	r24, 0xC0	; 192
    5014:	9d 4b       	sbci	r25, 0xBD	; 189
    5016:	a0 4f       	sbci	r26, 0xF0	; 240
    5018:	bf 4f       	sbci	r27, 0xFF	; 255
    501a:	bc 01       	movw	r22, r24
    501c:	cd 01       	movw	r24, r26
    501e:	e3 e0       	ldi	r30, 0x03	; 3
    5020:	66 0f       	add	r22, r22
    5022:	77 1f       	adc	r23, r23
    5024:	88 1f       	adc	r24, r24
    5026:	99 1f       	adc	r25, r25
    5028:	ea 95       	dec	r30
    502a:	d1 f7       	brne	.-12     	; 0x5020 <xSerialPortInitMinimal+0x10a>
    502c:	f4 e0       	ldi	r31, 0x04	; 4
    502e:	22 0f       	add	r18, r18
    5030:	33 1f       	adc	r19, r19
    5032:	44 1f       	adc	r20, r20
    5034:	55 1f       	adc	r21, r21
    5036:	fa 95       	dec	r31
    5038:	d1 f7       	brne	.-12     	; 0x502e <xSerialPortInitMinimal+0x118>
    503a:	91 d7       	rcall	.+3874   	; 0x5f5e <__udivmodsi4>
    503c:	21 50       	subi	r18, 0x01	; 1
    503e:	31 09       	sbc	r19, r1
    5040:	30 93 c5 00 	sts	0x00C5, r19	; 0x8000c5 <__data_load_end+0x7f994f>
    5044:	20 93 c4 00 	sts	0x00C4, r18	; 0x8000c4 <__data_load_end+0x7f994e>
    5048:	26 c0       	rjmp	.+76     	; 0x5096 <xSerialPortInitMinimal+0x180>
    504a:	da 01       	movw	r26, r20
    504c:	c9 01       	movw	r24, r18
    504e:	80 58       	subi	r24, 0x80	; 128
    5050:	9b 47       	sbci	r25, 0x7B	; 123
    5052:	a1 4e       	sbci	r26, 0xE1	; 225
    5054:	bf 4f       	sbci	r27, 0xFF	; 255
    5056:	bc 01       	movw	r22, r24
    5058:	cd 01       	movw	r24, r26
    505a:	a2 e0       	ldi	r26, 0x02	; 2
    505c:	66 0f       	add	r22, r22
    505e:	77 1f       	adc	r23, r23
    5060:	88 1f       	adc	r24, r24
    5062:	99 1f       	adc	r25, r25
    5064:	aa 95       	dec	r26
    5066:	d1 f7       	brne	.-12     	; 0x505c <xSerialPortInitMinimal+0x146>
    5068:	b3 e0       	ldi	r27, 0x03	; 3
    506a:	22 0f       	add	r18, r18
    506c:	33 1f       	adc	r19, r19
    506e:	44 1f       	adc	r20, r20
    5070:	55 1f       	adc	r21, r21
    5072:	ba 95       	dec	r27
    5074:	d1 f7       	brne	.-12     	; 0x506a <xSerialPortInitMinimal+0x154>
    5076:	73 d7       	rcall	.+3814   	; 0x5f5e <__udivmodsi4>
    5078:	21 50       	subi	r18, 0x01	; 1
    507a:	31 09       	sbc	r19, r1
    507c:	30 93 c5 00 	sts	0x00C5, r19	; 0x8000c5 <__data_load_end+0x7f994f>
    5080:	20 93 c4 00 	sts	0x00C4, r18	; 0x8000c4 <__data_load_end+0x7f994e>
    5084:	82 e0       	ldi	r24, 0x02	; 2
    5086:	80 93 c0 00 	sts	0x00C0, r24	; 0x8000c0 <__data_load_end+0x7f994a>
    508a:	88 e9       	ldi	r24, 0x98	; 152
    508c:	80 93 c1 00 	sts	0x00C1, r24	; 0x8000c1 <__data_load_end+0x7f994b>
    5090:	8e e0       	ldi	r24, 0x0E	; 14
    5092:	80 93 c2 00 	sts	0x00C2, r24	; 0x8000c2 <__data_load_end+0x7f994c>
    5096:	0f 90       	pop	r0
    5098:	0f be       	out	0x3f, r0	; 63
    509a:	82 e2       	ldi	r24, 0x22	; 34
    509c:	fe 01       	movw	r30, r28
    509e:	31 96       	adiw	r30, 0x01	; 1
    50a0:	d6 01       	movw	r26, r12
    50a2:	01 90       	ld	r0, Z+
    50a4:	0d 92       	st	X+, r0
    50a6:	8a 95       	dec	r24
    50a8:	e1 f7       	brne	.-8      	; 0x50a2 <xSerialPortInitMinimal+0x18c>
    50aa:	c6 01       	movw	r24, r12
    50ac:	a6 96       	adiw	r28, 0x26	; 38
    50ae:	0f b6       	in	r0, 0x3f	; 63
    50b0:	f8 94       	cli
    50b2:	de bf       	out	0x3e, r29	; 62
    50b4:	0f be       	out	0x3f, r0	; 63
    50b6:	cd bf       	out	0x3d, r28	; 61
    50b8:	df 91       	pop	r29
    50ba:	cf 91       	pop	r28
    50bc:	1f 91       	pop	r17
    50be:	0f 91       	pop	r16
    50c0:	ff 90       	pop	r15
    50c2:	ef 90       	pop	r14
    50c4:	df 90       	pop	r13
    50c6:	cf 90       	pop	r12
    50c8:	bf 90       	pop	r11
    50ca:	08 95       	ret

000050cc <avrSerialPrint>:
    50cc:	dc 01       	movw	r26, r24
    50ce:	0d 90       	ld	r0, X+
    50d0:	00 20       	and	r0, r0
    50d2:	e9 f7       	brne	.-6      	; 0x50ce <avrSerialPrint+0x2>
    50d4:	fc 01       	movw	r30, r24
    50d6:	cd 01       	movw	r24, r26
    50d8:	01 97       	sbiw	r24, 0x01	; 1
    50da:	e8 17       	cp	r30, r24
    50dc:	f9 07       	cpc	r31, r25
    50de:	69 f0       	breq	.+26     	; 0x50fa <avrSerialPrint+0x2e>
    50e0:	21 91       	ld	r18, Z+
    50e2:	30 91 c0 00 	lds	r19, 0x00C0	; 0x8000c0 <__data_load_end+0x7f994a>
    50e6:	35 fd       	sbrc	r19, 5
    50e8:	05 c0       	rjmp	.+10     	; 0x50f4 <avrSerialPrint+0x28>
    50ea:	32 e4       	ldi	r19, 0x42	; 66
    50ec:	3a 95       	dec	r19
    50ee:	f1 f7       	brne	.-4      	; 0x50ec <avrSerialPrint+0x20>
    50f0:	00 c0       	rjmp	.+0      	; 0x50f2 <avrSerialPrint+0x26>
    50f2:	f7 cf       	rjmp	.-18     	; 0x50e2 <avrSerialPrint+0x16>
    50f4:	20 93 c6 00 	sts	0x00C6, r18	; 0x8000c6 <__data_load_end+0x7f9950>
    50f8:	f0 cf       	rjmp	.-32     	; 0x50da <avrSerialPrint+0xe>
    50fa:	08 95       	ret

000050fc <avrSerialPrintf_P>:
    50fc:	cf 93       	push	r28
    50fe:	df 93       	push	r29
    5100:	cd b7       	in	r28, 0x3d	; 61
    5102:	de b7       	in	r29, 0x3e	; 62
    5104:	9e 01       	movw	r18, r28
    5106:	2b 5f       	subi	r18, 0xFB	; 251
    5108:	3f 4f       	sbci	r19, 0xFF	; 255
    510a:	f9 01       	movw	r30, r18
    510c:	41 91       	ld	r20, Z+
    510e:	51 91       	ld	r21, Z+
    5110:	9f 01       	movw	r18, r30
    5112:	80 91 86 08 	lds	r24, 0x0886	; 0x800886 <xSerialPort+0x1d>
    5116:	81 30       	cpi	r24, 0x01	; 1
    5118:	29 f4       	brne	.+10     	; 0x5124 <avrSerialPrintf_P+0x28>
    511a:	f2 e4       	ldi	r31, 0x42	; 66
    511c:	fa 95       	dec	r31
    511e:	f1 f7       	brne	.-4      	; 0x511c <avrSerialPrintf_P+0x20>
    5120:	00 c0       	rjmp	.+0      	; 0x5122 <avrSerialPrintf_P+0x26>
    5122:	f7 cf       	rjmp	.-18     	; 0x5112 <avrSerialPrintf_P+0x16>
    5124:	81 e0       	ldi	r24, 0x01	; 1
    5126:	80 93 86 08 	sts	0x0886, r24	; 0x800886 <xSerialPort+0x1d>
    512a:	60 91 84 08 	lds	r22, 0x0884	; 0x800884 <xSerialPort+0x1b>
    512e:	70 91 85 08 	lds	r23, 0x0885	; 0x800885 <xSerialPort+0x1c>
    5132:	80 91 82 08 	lds	r24, 0x0882	; 0x800882 <xSerialPort+0x19>
    5136:	90 91 83 08 	lds	r25, 0x0883	; 0x800883 <xSerialPort+0x1a>
    513a:	0e 94 0b 33 	call	0x6616	; 0x6616 <vsnprintf_P>
    513e:	80 91 82 08 	lds	r24, 0x0882	; 0x800882 <xSerialPort+0x19>
    5142:	90 91 83 08 	lds	r25, 0x0883	; 0x800883 <xSerialPort+0x1a>
    5146:	c2 df       	rcall	.-124    	; 0x50cc <avrSerialPrint>
    5148:	10 92 86 08 	sts	0x0886, r1	; 0x800886 <xSerialPort+0x1d>
    514c:	df 91       	pop	r29
    514e:	cf 91       	pop	r28
    5150:	08 95       	ret

00005152 <avrSerialPrint_P>:
    5152:	cf 93       	push	r28
    5154:	df 93       	push	r29
    5156:	d8 2f       	mov	r29, r24
    5158:	c9 2f       	mov	r28, r25
    515a:	0e 94 86 32 	call	0x650c	; 0x650c <__strlen_P>
    515e:	ed 2f       	mov	r30, r29
    5160:	fc 2f       	mov	r31, r28
    5162:	8e 0f       	add	r24, r30
    5164:	9f 1f       	adc	r25, r31
    5166:	e8 17       	cp	r30, r24
    5168:	f9 07       	cpc	r31, r25
    516a:	71 f0       	breq	.+28     	; 0x5188 <avrSerialPrint_P+0x36>
    516c:	24 91       	lpm	r18, Z
    516e:	30 91 c0 00 	lds	r19, 0x00C0	; 0x8000c0 <__data_load_end+0x7f994a>
    5172:	35 fd       	sbrc	r19, 5
    5174:	05 c0       	rjmp	.+10     	; 0x5180 <avrSerialPrint_P+0x2e>
    5176:	32 e4       	ldi	r19, 0x42	; 66
    5178:	3a 95       	dec	r19
    517a:	f1 f7       	brne	.-4      	; 0x5178 <avrSerialPrint_P+0x26>
    517c:	00 c0       	rjmp	.+0      	; 0x517e <avrSerialPrint_P+0x2c>
    517e:	f7 cf       	rjmp	.-18     	; 0x516e <avrSerialPrint_P+0x1c>
    5180:	20 93 c6 00 	sts	0x00C6, r18	; 0x8000c6 <__data_load_end+0x7f9950>
    5184:	31 96       	adiw	r30, 0x01	; 1
    5186:	ef cf       	rjmp	.-34     	; 0x5166 <avrSerialPrint_P+0x14>
    5188:	df 91       	pop	r29
    518a:	cf 91       	pop	r28
    518c:	08 95       	ret

0000518e <__vector_18>:
    518e:	1f 92       	push	r1
    5190:	0f 92       	push	r0
    5192:	0f b6       	in	r0, 0x3f	; 63
    5194:	0f 92       	push	r0
    5196:	11 24       	eor	r1, r1
    5198:	2f 93       	push	r18
    519a:	3f 93       	push	r19
    519c:	4f 93       	push	r20
    519e:	5f 93       	push	r21
    51a0:	6f 93       	push	r22
    51a2:	7f 93       	push	r23
    51a4:	8f 93       	push	r24
    51a6:	9f 93       	push	r25
    51a8:	af 93       	push	r26
    51aa:	bf 93       	push	r27
    51ac:	ef 93       	push	r30
    51ae:	ff 93       	push	r31
    51b0:	80 91 c0 00 	lds	r24, 0x00C0	; 0x8000c0 <__data_load_end+0x7f994a>
    51b4:	8c 71       	andi	r24, 0x1C	; 28
    51b6:	39 f0       	breq	.+14     	; 0x51c6 <__vector_18+0x38>
    51b8:	80 91 c0 00 	lds	r24, 0x00C0	; 0x8000c0 <__data_load_end+0x7f994a>
    51bc:	87 ff       	sbrs	r24, 7
    51be:	32 c0       	rjmp	.+100    	; 0x5224 <__vector_18+0x96>
    51c0:	80 91 c6 00 	lds	r24, 0x00C6	; 0x8000c6 <__data_load_end+0x7f9950>
    51c4:	f9 cf       	rjmp	.-14     	; 0x51b8 <__vector_18+0x2a>
    51c6:	80 91 c6 00 	lds	r24, 0x00C6	; 0x8000c6 <__data_load_end+0x7f9950>
    51ca:	0f b6       	in	r0, 0x3f	; 63
    51cc:	f8 94       	cli
    51ce:	0f 92       	push	r0
    51d0:	40 91 6a 08 	lds	r20, 0x086A	; 0x80086a <xSerialPort+0x1>
    51d4:	50 91 6b 08 	lds	r21, 0x086B	; 0x80086b <xSerialPort+0x2>
    51d8:	0f 90       	pop	r0
    51da:	0f be       	out	0x3f, r0	; 63
    51dc:	20 91 74 08 	lds	r18, 0x0874	; 0x800874 <xSerialPort+0xb>
    51e0:	30 91 75 08 	lds	r19, 0x0875	; 0x800875 <xSerialPort+0xc>
    51e4:	42 17       	cp	r20, r18
    51e6:	53 07       	cpc	r21, r19
    51e8:	e9 f0       	breq	.+58     	; 0x5224 <__vector_18+0x96>
    51ea:	ea e6       	ldi	r30, 0x6A	; 106
    51ec:	f8 e0       	ldi	r31, 0x08	; 8
    51ee:	a2 81       	ldd	r26, Z+2	; 0x02
    51f0:	b3 81       	ldd	r27, Z+3	; 0x03
    51f2:	8c 93       	st	X, r24
    51f4:	82 81       	ldd	r24, Z+2	; 0x02
    51f6:	93 81       	ldd	r25, Z+3	; 0x03
    51f8:	01 96       	adiw	r24, 0x01	; 1
    51fa:	93 83       	std	Z+3, r25	; 0x03
    51fc:	82 83       	std	Z+2, r24	; 0x02
    51fe:	20 85       	ldd	r18, Z+8	; 0x08
    5200:	31 85       	ldd	r19, Z+9	; 0x09
    5202:	82 17       	cp	r24, r18
    5204:	93 07       	cpc	r25, r19
    5206:	21 f4       	brne	.+8      	; 0x5210 <__vector_18+0x82>
    5208:	86 81       	ldd	r24, Z+6	; 0x06
    520a:	97 81       	ldd	r25, Z+7	; 0x07
    520c:	93 83       	std	Z+3, r25	; 0x03
    520e:	82 83       	std	Z+2, r24	; 0x02
    5210:	0f b6       	in	r0, 0x3f	; 63
    5212:	f8 94       	cli
    5214:	0f 92       	push	r0
    5216:	80 81       	ld	r24, Z
    5218:	91 81       	ldd	r25, Z+1	; 0x01
    521a:	01 96       	adiw	r24, 0x01	; 1
    521c:	91 83       	std	Z+1, r25	; 0x01
    521e:	80 83       	st	Z, r24
    5220:	0f 90       	pop	r0
    5222:	0f be       	out	0x3f, r0	; 63
    5224:	60 ec       	ldi	r22, 0xC0	; 192
    5226:	71 e0       	ldi	r23, 0x01	; 1
    5228:	80 91 bb 01 	lds	r24, 0x01BB	; 0x8001bb <xUSARTTaskToNotify>
    522c:	90 91 bc 01 	lds	r25, 0x01BC	; 0x8001bc <xUSARTTaskToNotify+0x1>
    5230:	98 d5       	rcall	.+2864   	; 0x5d62 <vTaskNotifyGiveFromISR>
    5232:	10 92 bc 01 	sts	0x01BC, r1	; 0x8001bc <xUSARTTaskToNotify+0x1>
    5236:	10 92 bb 01 	sts	0x01BB, r1	; 0x8001bb <xUSARTTaskToNotify>
    523a:	80 91 c0 01 	lds	r24, 0x01C0	; 0x8001c0 <xHigherPriorityTaskWoken.3021>
    523e:	81 11       	cpse	r24, r1
    5240:	36 d1       	rcall	.+620    	; 0x54ae <vPortYield>
    5242:	ff 91       	pop	r31
    5244:	ef 91       	pop	r30
    5246:	bf 91       	pop	r27
    5248:	af 91       	pop	r26
    524a:	9f 91       	pop	r25
    524c:	8f 91       	pop	r24
    524e:	7f 91       	pop	r23
    5250:	6f 91       	pop	r22
    5252:	5f 91       	pop	r21
    5254:	4f 91       	pop	r20
    5256:	3f 91       	pop	r19
    5258:	2f 91       	pop	r18
    525a:	0f 90       	pop	r0
    525c:	0f be       	out	0x3f, r0	; 63
    525e:	0f 90       	pop	r0
    5260:	1f 90       	pop	r1
    5262:	18 95       	reti

00005264 <__vector_19>:
    5264:	1f 92       	push	r1
    5266:	0f 92       	push	r0
    5268:	0f b6       	in	r0, 0x3f	; 63
    526a:	0f 92       	push	r0
    526c:	11 24       	eor	r1, r1
    526e:	2f 93       	push	r18
    5270:	8f 93       	push	r24
    5272:	9f 93       	push	r25
    5274:	af 93       	push	r26
    5276:	bf 93       	push	r27
    5278:	ef 93       	push	r30
    527a:	ff 93       	push	r31
    527c:	0f b6       	in	r0, 0x3f	; 63
    527e:	f8 94       	cli
    5280:	0f 92       	push	r0
    5282:	80 91 76 08 	lds	r24, 0x0876	; 0x800876 <xSerialPort+0xd>
    5286:	90 91 77 08 	lds	r25, 0x0877	; 0x800877 <xSerialPort+0xe>
    528a:	0f 90       	pop	r0
    528c:	0f be       	out	0x3f, r0	; 63
    528e:	89 2b       	or	r24, r25
    5290:	31 f4       	brne	.+12     	; 0x529e <__vector_19+0x3a>
    5292:	80 91 c1 00 	lds	r24, 0x00C1	; 0x8000c1 <__data_load_end+0x7f994b>
    5296:	8f 7d       	andi	r24, 0xDF	; 223
    5298:	80 93 c1 00 	sts	0x00C1, r24	; 0x8000c1 <__data_load_end+0x7f994b>
    529c:	1c c0       	rjmp	.+56     	; 0x52d6 <__vector_19+0x72>
    529e:	e6 e7       	ldi	r30, 0x76	; 118
    52a0:	f8 e0       	ldi	r31, 0x08	; 8
    52a2:	a4 81       	ldd	r26, Z+4	; 0x04
    52a4:	b5 81       	ldd	r27, Z+5	; 0x05
    52a6:	2d 91       	ld	r18, X+
    52a8:	b5 83       	std	Z+5, r27	; 0x05
    52aa:	a4 83       	std	Z+4, r26	; 0x04
    52ac:	80 85       	ldd	r24, Z+8	; 0x08
    52ae:	91 85       	ldd	r25, Z+9	; 0x09
    52b0:	a8 17       	cp	r26, r24
    52b2:	b9 07       	cpc	r27, r25
    52b4:	21 f4       	brne	.+8      	; 0x52be <__vector_19+0x5a>
    52b6:	86 81       	ldd	r24, Z+6	; 0x06
    52b8:	97 81       	ldd	r25, Z+7	; 0x07
    52ba:	95 83       	std	Z+5, r25	; 0x05
    52bc:	84 83       	std	Z+4, r24	; 0x04
    52be:	0f b6       	in	r0, 0x3f	; 63
    52c0:	f8 94       	cli
    52c2:	0f 92       	push	r0
    52c4:	80 81       	ld	r24, Z
    52c6:	91 81       	ldd	r25, Z+1	; 0x01
    52c8:	01 97       	sbiw	r24, 0x01	; 1
    52ca:	91 83       	std	Z+1, r25	; 0x01
    52cc:	80 83       	st	Z, r24
    52ce:	0f 90       	pop	r0
    52d0:	0f be       	out	0x3f, r0	; 63
    52d2:	20 93 c6 00 	sts	0x00C6, r18	; 0x8000c6 <__data_load_end+0x7f9950>
    52d6:	ff 91       	pop	r31
    52d8:	ef 91       	pop	r30
    52da:	bf 91       	pop	r27
    52dc:	af 91       	pop	r26
    52de:	9f 91       	pop	r25
    52e0:	8f 91       	pop	r24
    52e2:	2f 91       	pop	r18
    52e4:	0f 90       	pop	r0
    52e6:	0f be       	out	0x3f, r0	; 63
    52e8:	0f 90       	pop	r0
    52ea:	1f 90       	pop	r1
    52ec:	18 95       	reti

000052ee <pvPortMalloc>:
    52ee:	cf 93       	push	r28
    52f0:	df 93       	push	r29
    52f2:	ec 01       	movw	r28, r24
    52f4:	2c d3       	rcall	.+1624   	; 0x594e <vTaskSuspendAll>
    52f6:	80 91 c1 01 	lds	r24, 0x01C1	; 0x8001c1 <pucAlignedHeap.1952>
    52fa:	90 91 c2 01 	lds	r25, 0x01C2	; 0x8001c2 <pucAlignedHeap.1952+0x1>
    52fe:	89 2b       	or	r24, r25
    5300:	31 f4       	brne	.+12     	; 0x530e <pvPortMalloc+0x20>
    5302:	86 ec       	ldi	r24, 0xC6	; 198
    5304:	91 e0       	ldi	r25, 0x01	; 1
    5306:	90 93 c2 01 	sts	0x01C2, r25	; 0x8001c2 <pucAlignedHeap.1952+0x1>
    530a:	80 93 c1 01 	sts	0x01C1, r24	; 0x8001c1 <pucAlignedHeap.1952>
    530e:	20 91 c3 01 	lds	r18, 0x01C3	; 0x8001c3 <xNextFreeByte>
    5312:	30 91 c4 01 	lds	r19, 0x01C4	; 0x8001c4 <xNextFreeByte+0x1>
    5316:	ce 01       	movw	r24, r28
    5318:	82 0f       	add	r24, r18
    531a:	93 1f       	adc	r25, r19
    531c:	8f 33       	cpi	r24, 0x3F	; 63
    531e:	46 e0       	ldi	r20, 0x06	; 6
    5320:	94 07       	cpc	r25, r20
    5322:	70 f4       	brcc	.+28     	; 0x5340 <pvPortMalloc+0x52>
    5324:	28 17       	cp	r18, r24
    5326:	39 07       	cpc	r19, r25
    5328:	58 f4       	brcc	.+22     	; 0x5340 <pvPortMalloc+0x52>
    532a:	c0 91 c1 01 	lds	r28, 0x01C1	; 0x8001c1 <pucAlignedHeap.1952>
    532e:	d0 91 c2 01 	lds	r29, 0x01C2	; 0x8001c2 <pucAlignedHeap.1952+0x1>
    5332:	c2 0f       	add	r28, r18
    5334:	d3 1f       	adc	r29, r19
    5336:	90 93 c4 01 	sts	0x01C4, r25	; 0x8001c4 <xNextFreeByte+0x1>
    533a:	80 93 c3 01 	sts	0x01C3, r24	; 0x8001c3 <xNextFreeByte>
    533e:	02 c0       	rjmp	.+4      	; 0x5344 <pvPortMalloc+0x56>
    5340:	c0 e0       	ldi	r28, 0x00	; 0
    5342:	d0 e0       	ldi	r29, 0x00	; 0
    5344:	c2 d3       	rcall	.+1924   	; 0x5aca <xTaskResumeAll>
    5346:	ce 01       	movw	r24, r28
    5348:	df 91       	pop	r29
    534a:	cf 91       	pop	r28
    534c:	08 95       	ret

0000534e <vPortFree>:
    534e:	08 95       	ret

00005350 <xPortGetFreeHeapSize>:
    5350:	20 91 c3 01 	lds	r18, 0x01C3	; 0x8001c3 <xNextFreeByte>
    5354:	30 91 c4 01 	lds	r19, 0x01C4	; 0x8001c4 <xNextFreeByte+0x1>
    5358:	8f e3       	ldi	r24, 0x3F	; 63
    535a:	96 e0       	ldi	r25, 0x06	; 6
    535c:	82 1b       	sub	r24, r18
    535e:	93 0b       	sbc	r25, r19
    5360:	08 95       	ret

00005362 <pxPortInitialiseStack>:
    5362:	31 e1       	ldi	r19, 0x11	; 17
    5364:	fc 01       	movw	r30, r24
    5366:	30 83       	st	Z, r19
    5368:	31 97       	sbiw	r30, 0x01	; 1
    536a:	22 e2       	ldi	r18, 0x22	; 34
    536c:	20 83       	st	Z, r18
    536e:	31 97       	sbiw	r30, 0x01	; 1
    5370:	a3 e3       	ldi	r26, 0x33	; 51
    5372:	a0 83       	st	Z, r26
    5374:	31 97       	sbiw	r30, 0x01	; 1
    5376:	60 83       	st	Z, r22
    5378:	31 97       	sbiw	r30, 0x01	; 1
    537a:	70 83       	st	Z, r23
    537c:	31 97       	sbiw	r30, 0x01	; 1
    537e:	10 82       	st	Z, r1
    5380:	31 97       	sbiw	r30, 0x01	; 1
    5382:	60 e8       	ldi	r22, 0x80	; 128
    5384:	60 83       	st	Z, r22
    5386:	31 97       	sbiw	r30, 0x01	; 1
    5388:	10 82       	st	Z, r1
    538a:	31 97       	sbiw	r30, 0x01	; 1
    538c:	62 e0       	ldi	r22, 0x02	; 2
    538e:	60 83       	st	Z, r22
    5390:	31 97       	sbiw	r30, 0x01	; 1
    5392:	63 e0       	ldi	r22, 0x03	; 3
    5394:	60 83       	st	Z, r22
    5396:	31 97       	sbiw	r30, 0x01	; 1
    5398:	64 e0       	ldi	r22, 0x04	; 4
    539a:	60 83       	st	Z, r22
    539c:	31 97       	sbiw	r30, 0x01	; 1
    539e:	65 e0       	ldi	r22, 0x05	; 5
    53a0:	60 83       	st	Z, r22
    53a2:	31 97       	sbiw	r30, 0x01	; 1
    53a4:	66 e0       	ldi	r22, 0x06	; 6
    53a6:	60 83       	st	Z, r22
    53a8:	31 97       	sbiw	r30, 0x01	; 1
    53aa:	67 e0       	ldi	r22, 0x07	; 7
    53ac:	60 83       	st	Z, r22
    53ae:	31 97       	sbiw	r30, 0x01	; 1
    53b0:	68 e0       	ldi	r22, 0x08	; 8
    53b2:	60 83       	st	Z, r22
    53b4:	31 97       	sbiw	r30, 0x01	; 1
    53b6:	69 e0       	ldi	r22, 0x09	; 9
    53b8:	60 83       	st	Z, r22
    53ba:	31 97       	sbiw	r30, 0x01	; 1
    53bc:	60 e1       	ldi	r22, 0x10	; 16
    53be:	60 83       	st	Z, r22
    53c0:	31 97       	sbiw	r30, 0x01	; 1
    53c2:	30 83       	st	Z, r19
    53c4:	31 97       	sbiw	r30, 0x01	; 1
    53c6:	32 e1       	ldi	r19, 0x12	; 18
    53c8:	30 83       	st	Z, r19
    53ca:	31 97       	sbiw	r30, 0x01	; 1
    53cc:	33 e1       	ldi	r19, 0x13	; 19
    53ce:	30 83       	st	Z, r19
    53d0:	31 97       	sbiw	r30, 0x01	; 1
    53d2:	34 e1       	ldi	r19, 0x14	; 20
    53d4:	30 83       	st	Z, r19
    53d6:	31 97       	sbiw	r30, 0x01	; 1
    53d8:	35 e1       	ldi	r19, 0x15	; 21
    53da:	30 83       	st	Z, r19
    53dc:	31 97       	sbiw	r30, 0x01	; 1
    53de:	36 e1       	ldi	r19, 0x16	; 22
    53e0:	30 83       	st	Z, r19
    53e2:	31 97       	sbiw	r30, 0x01	; 1
    53e4:	37 e1       	ldi	r19, 0x17	; 23
    53e6:	30 83       	st	Z, r19
    53e8:	31 97       	sbiw	r30, 0x01	; 1
    53ea:	38 e1       	ldi	r19, 0x18	; 24
    53ec:	30 83       	st	Z, r19
    53ee:	31 97       	sbiw	r30, 0x01	; 1
    53f0:	39 e1       	ldi	r19, 0x19	; 25
    53f2:	30 83       	st	Z, r19
    53f4:	31 97       	sbiw	r30, 0x01	; 1
    53f6:	30 e2       	ldi	r19, 0x20	; 32
    53f8:	30 83       	st	Z, r19
    53fa:	31 97       	sbiw	r30, 0x01	; 1
    53fc:	31 e2       	ldi	r19, 0x21	; 33
    53fe:	30 83       	st	Z, r19
    5400:	31 97       	sbiw	r30, 0x01	; 1
    5402:	20 83       	st	Z, r18
    5404:	31 97       	sbiw	r30, 0x01	; 1
    5406:	23 e2       	ldi	r18, 0x23	; 35
    5408:	20 83       	st	Z, r18
    540a:	31 97       	sbiw	r30, 0x01	; 1
    540c:	40 83       	st	Z, r20
    540e:	31 97       	sbiw	r30, 0x01	; 1
    5410:	50 83       	st	Z, r21
    5412:	31 97       	sbiw	r30, 0x01	; 1
    5414:	26 e2       	ldi	r18, 0x26	; 38
    5416:	20 83       	st	Z, r18
    5418:	31 97       	sbiw	r30, 0x01	; 1
    541a:	27 e2       	ldi	r18, 0x27	; 39
    541c:	20 83       	st	Z, r18
    541e:	31 97       	sbiw	r30, 0x01	; 1
    5420:	28 e2       	ldi	r18, 0x28	; 40
    5422:	20 83       	st	Z, r18
    5424:	31 97       	sbiw	r30, 0x01	; 1
    5426:	29 e2       	ldi	r18, 0x29	; 41
    5428:	20 83       	st	Z, r18
    542a:	31 97       	sbiw	r30, 0x01	; 1
    542c:	20 e3       	ldi	r18, 0x30	; 48
    542e:	20 83       	st	Z, r18
    5430:	31 97       	sbiw	r30, 0x01	; 1
    5432:	21 e3       	ldi	r18, 0x31	; 49
    5434:	20 83       	st	Z, r18
    5436:	86 97       	sbiw	r24, 0x26	; 38
    5438:	08 95       	ret

0000543a <xPortStartScheduler>:
    543a:	10 92 89 00 	sts	0x0089, r1	; 0x800089 <__data_load_end+0x7f9913>
    543e:	8c e7       	ldi	r24, 0x7C	; 124
    5440:	80 93 88 00 	sts	0x0088, r24	; 0x800088 <__data_load_end+0x7f9912>
    5444:	8b e0       	ldi	r24, 0x0B	; 11
    5446:	80 93 81 00 	sts	0x0081, r24	; 0x800081 <__data_load_end+0x7f990b>
    544a:	ef e6       	ldi	r30, 0x6F	; 111
    544c:	f0 e0       	ldi	r31, 0x00	; 0
    544e:	80 81       	ld	r24, Z
    5450:	82 60       	ori	r24, 0x02	; 2
    5452:	80 83       	st	Z, r24
    5454:	a0 91 5f 08 	lds	r26, 0x085F	; 0x80085f <pxCurrentTCB>
    5458:	b0 91 60 08 	lds	r27, 0x0860	; 0x800860 <pxCurrentTCB+0x1>
    545c:	cd 91       	ld	r28, X+
    545e:	cd bf       	out	0x3d, r28	; 61
    5460:	dd 91       	ld	r29, X+
    5462:	de bf       	out	0x3e, r29	; 62
    5464:	ff 91       	pop	r31
    5466:	ef 91       	pop	r30
    5468:	df 91       	pop	r29
    546a:	cf 91       	pop	r28
    546c:	bf 91       	pop	r27
    546e:	af 91       	pop	r26
    5470:	9f 91       	pop	r25
    5472:	8f 91       	pop	r24
    5474:	7f 91       	pop	r23
    5476:	6f 91       	pop	r22
    5478:	5f 91       	pop	r21
    547a:	4f 91       	pop	r20
    547c:	3f 91       	pop	r19
    547e:	2f 91       	pop	r18
    5480:	1f 91       	pop	r17
    5482:	0f 91       	pop	r16
    5484:	ff 90       	pop	r15
    5486:	ef 90       	pop	r14
    5488:	df 90       	pop	r13
    548a:	cf 90       	pop	r12
    548c:	bf 90       	pop	r11
    548e:	af 90       	pop	r10
    5490:	9f 90       	pop	r9
    5492:	8f 90       	pop	r8
    5494:	7f 90       	pop	r7
    5496:	6f 90       	pop	r6
    5498:	5f 90       	pop	r5
    549a:	4f 90       	pop	r4
    549c:	3f 90       	pop	r3
    549e:	2f 90       	pop	r2
    54a0:	1f 90       	pop	r1
    54a2:	0f 90       	pop	r0
    54a4:	0f be       	out	0x3f, r0	; 63
    54a6:	0f 90       	pop	r0
    54a8:	08 95       	ret
    54aa:	81 e0       	ldi	r24, 0x01	; 1
    54ac:	08 95       	ret

000054ae <vPortYield>:
    54ae:	0f 92       	push	r0
    54b0:	0f b6       	in	r0, 0x3f	; 63
    54b2:	f8 94       	cli
    54b4:	0f 92       	push	r0
    54b6:	1f 92       	push	r1
    54b8:	11 24       	eor	r1, r1
    54ba:	2f 92       	push	r2
    54bc:	3f 92       	push	r3
    54be:	4f 92       	push	r4
    54c0:	5f 92       	push	r5
    54c2:	6f 92       	push	r6
    54c4:	7f 92       	push	r7
    54c6:	8f 92       	push	r8
    54c8:	9f 92       	push	r9
    54ca:	af 92       	push	r10
    54cc:	bf 92       	push	r11
    54ce:	cf 92       	push	r12
    54d0:	df 92       	push	r13
    54d2:	ef 92       	push	r14
    54d4:	ff 92       	push	r15
    54d6:	0f 93       	push	r16
    54d8:	1f 93       	push	r17
    54da:	2f 93       	push	r18
    54dc:	3f 93       	push	r19
    54de:	4f 93       	push	r20
    54e0:	5f 93       	push	r21
    54e2:	6f 93       	push	r22
    54e4:	7f 93       	push	r23
    54e6:	8f 93       	push	r24
    54e8:	9f 93       	push	r25
    54ea:	af 93       	push	r26
    54ec:	bf 93       	push	r27
    54ee:	cf 93       	push	r28
    54f0:	df 93       	push	r29
    54f2:	ef 93       	push	r30
    54f4:	ff 93       	push	r31
    54f6:	a0 91 5f 08 	lds	r26, 0x085F	; 0x80085f <pxCurrentTCB>
    54fa:	b0 91 60 08 	lds	r27, 0x0860	; 0x800860 <pxCurrentTCB+0x1>
    54fe:	0d b6       	in	r0, 0x3d	; 61
    5500:	0d 92       	st	X+, r0
    5502:	0e b6       	in	r0, 0x3e	; 62
    5504:	0d 92       	st	X+, r0
    5506:	96 d3       	rcall	.+1836   	; 0x5c34 <vTaskSwitchContext>
    5508:	a0 91 5f 08 	lds	r26, 0x085F	; 0x80085f <pxCurrentTCB>
    550c:	b0 91 60 08 	lds	r27, 0x0860	; 0x800860 <pxCurrentTCB+0x1>
    5510:	cd 91       	ld	r28, X+
    5512:	cd bf       	out	0x3d, r28	; 61
    5514:	dd 91       	ld	r29, X+
    5516:	de bf       	out	0x3e, r29	; 62
    5518:	ff 91       	pop	r31
    551a:	ef 91       	pop	r30
    551c:	df 91       	pop	r29
    551e:	cf 91       	pop	r28
    5520:	bf 91       	pop	r27
    5522:	af 91       	pop	r26
    5524:	9f 91       	pop	r25
    5526:	8f 91       	pop	r24
    5528:	7f 91       	pop	r23
    552a:	6f 91       	pop	r22
    552c:	5f 91       	pop	r21
    552e:	4f 91       	pop	r20
    5530:	3f 91       	pop	r19
    5532:	2f 91       	pop	r18
    5534:	1f 91       	pop	r17
    5536:	0f 91       	pop	r16
    5538:	ff 90       	pop	r15
    553a:	ef 90       	pop	r14
    553c:	df 90       	pop	r13
    553e:	cf 90       	pop	r12
    5540:	bf 90       	pop	r11
    5542:	af 90       	pop	r10
    5544:	9f 90       	pop	r9
    5546:	8f 90       	pop	r8
    5548:	7f 90       	pop	r7
    554a:	6f 90       	pop	r6
    554c:	5f 90       	pop	r5
    554e:	4f 90       	pop	r4
    5550:	3f 90       	pop	r3
    5552:	2f 90       	pop	r2
    5554:	1f 90       	pop	r1
    5556:	0f 90       	pop	r0
    5558:	0f be       	out	0x3f, r0	; 63
    555a:	0f 90       	pop	r0
    555c:	08 95       	ret

0000555e <vPortYieldFromTick>:
    555e:	0f 92       	push	r0
    5560:	0f b6       	in	r0, 0x3f	; 63
    5562:	f8 94       	cli
    5564:	0f 92       	push	r0
    5566:	1f 92       	push	r1
    5568:	11 24       	eor	r1, r1
    556a:	2f 92       	push	r2
    556c:	3f 92       	push	r3
    556e:	4f 92       	push	r4
    5570:	5f 92       	push	r5
    5572:	6f 92       	push	r6
    5574:	7f 92       	push	r7
    5576:	8f 92       	push	r8
    5578:	9f 92       	push	r9
    557a:	af 92       	push	r10
    557c:	bf 92       	push	r11
    557e:	cf 92       	push	r12
    5580:	df 92       	push	r13
    5582:	ef 92       	push	r14
    5584:	ff 92       	push	r15
    5586:	0f 93       	push	r16
    5588:	1f 93       	push	r17
    558a:	2f 93       	push	r18
    558c:	3f 93       	push	r19
    558e:	4f 93       	push	r20
    5590:	5f 93       	push	r21
    5592:	6f 93       	push	r22
    5594:	7f 93       	push	r23
    5596:	8f 93       	push	r24
    5598:	9f 93       	push	r25
    559a:	af 93       	push	r26
    559c:	bf 93       	push	r27
    559e:	cf 93       	push	r28
    55a0:	df 93       	push	r29
    55a2:	ef 93       	push	r30
    55a4:	ff 93       	push	r31
    55a6:	a0 91 5f 08 	lds	r26, 0x085F	; 0x80085f <pxCurrentTCB>
    55aa:	b0 91 60 08 	lds	r27, 0x0860	; 0x800860 <pxCurrentTCB+0x1>
    55ae:	0d b6       	in	r0, 0x3d	; 61
    55b0:	0d 92       	st	X+, r0
    55b2:	0e b6       	in	r0, 0x3e	; 62
    55b4:	0d 92       	st	X+, r0
    55b6:	db d1       	rcall	.+950    	; 0x596e <xTaskIncrementTick>
    55b8:	81 11       	cpse	r24, r1
    55ba:	3c d3       	rcall	.+1656   	; 0x5c34 <vTaskSwitchContext>
    55bc:	a0 91 5f 08 	lds	r26, 0x085F	; 0x80085f <pxCurrentTCB>
    55c0:	b0 91 60 08 	lds	r27, 0x0860	; 0x800860 <pxCurrentTCB+0x1>
    55c4:	cd 91       	ld	r28, X+
    55c6:	cd bf       	out	0x3d, r28	; 61
    55c8:	dd 91       	ld	r29, X+
    55ca:	de bf       	out	0x3e, r29	; 62
    55cc:	ff 91       	pop	r31
    55ce:	ef 91       	pop	r30
    55d0:	df 91       	pop	r29
    55d2:	cf 91       	pop	r28
    55d4:	bf 91       	pop	r27
    55d6:	af 91       	pop	r26
    55d8:	9f 91       	pop	r25
    55da:	8f 91       	pop	r24
    55dc:	7f 91       	pop	r23
    55de:	6f 91       	pop	r22
    55e0:	5f 91       	pop	r21
    55e2:	4f 91       	pop	r20
    55e4:	3f 91       	pop	r19
    55e6:	2f 91       	pop	r18
    55e8:	1f 91       	pop	r17
    55ea:	0f 91       	pop	r16
    55ec:	ff 90       	pop	r15
    55ee:	ef 90       	pop	r14
    55f0:	df 90       	pop	r13
    55f2:	cf 90       	pop	r12
    55f4:	bf 90       	pop	r11
    55f6:	af 90       	pop	r10
    55f8:	9f 90       	pop	r9
    55fa:	8f 90       	pop	r8
    55fc:	7f 90       	pop	r7
    55fe:	6f 90       	pop	r6
    5600:	5f 90       	pop	r5
    5602:	4f 90       	pop	r4
    5604:	3f 90       	pop	r3
    5606:	2f 90       	pop	r2
    5608:	1f 90       	pop	r1
    560a:	0f 90       	pop	r0
    560c:	0f be       	out	0x3f, r0	; 63
    560e:	0f 90       	pop	r0
    5610:	08 95       	ret

00005612 <__vector_11>:
    5612:	a5 df       	rcall	.-182    	; 0x555e <vPortYieldFromTick>
    5614:	18 95       	reti

00005616 <prvIdleTask>:
    5616:	80 91 3b 08 	lds	r24, 0x083B	; 0x80083b <pxReadyTasksLists>
    561a:	82 30       	cpi	r24, 0x02	; 2
    561c:	08 f0       	brcs	.+2      	; 0x5620 <prvIdleTask+0xa>
    561e:	47 df       	rcall	.-370    	; 0x54ae <vPortYield>
    5620:	f4 da       	rcall	.-2584   	; 0x4c0a <vApplicationIdleHook>
    5622:	f9 cf       	rjmp	.-14     	; 0x5616 <prvIdleTask>

00005624 <prvResetNextTaskUnblockTime>:
    5624:	e0 91 27 08 	lds	r30, 0x0827	; 0x800827 <pxDelayedTaskList>
    5628:	f0 91 28 08 	lds	r31, 0x0828	; 0x800828 <pxDelayedTaskList+0x1>
    562c:	80 81       	ld	r24, Z
    562e:	81 11       	cpse	r24, r1
    5630:	03 c0       	rjmp	.+6      	; 0x5638 <prvResetNextTaskUnblockTime+0x14>
    5632:	8f ef       	ldi	r24, 0xFF	; 255
    5634:	9f ef       	ldi	r25, 0xFF	; 255
    5636:	0c c0       	rjmp	.+24     	; 0x5650 <prvResetNextTaskUnblockTime+0x2c>
    5638:	e0 91 27 08 	lds	r30, 0x0827	; 0x800827 <pxDelayedTaskList>
    563c:	f0 91 28 08 	lds	r31, 0x0828	; 0x800828 <pxDelayedTaskList+0x1>
    5640:	05 80       	ldd	r0, Z+5	; 0x05
    5642:	f6 81       	ldd	r31, Z+6	; 0x06
    5644:	e0 2d       	mov	r30, r0
    5646:	06 80       	ldd	r0, Z+6	; 0x06
    5648:	f7 81       	ldd	r31, Z+7	; 0x07
    564a:	e0 2d       	mov	r30, r0
    564c:	82 81       	ldd	r24, Z+2	; 0x02
    564e:	93 81       	ldd	r25, Z+3	; 0x03
    5650:	90 93 09 08 	sts	0x0809, r25	; 0x800809 <xNextTaskUnblockTime+0x1>
    5654:	80 93 08 08 	sts	0x0808, r24	; 0x800808 <xNextTaskUnblockTime>
    5658:	08 95       	ret

0000565a <prvAddCurrentTaskToDelayedList>:
    565a:	ef 92       	push	r14
    565c:	ff 92       	push	r15
    565e:	0f 93       	push	r16
    5660:	1f 93       	push	r17
    5662:	cf 93       	push	r28
    5664:	df 93       	push	r29
    5666:	1f 92       	push	r1
    5668:	cd b7       	in	r28, 0x3d	; 61
    566a:	de b7       	in	r29, 0x3e	; 62
    566c:	7c 01       	movw	r14, r24
    566e:	00 91 10 08 	lds	r16, 0x0810	; 0x800810 <xTickCount>
    5672:	10 91 11 08 	lds	r17, 0x0811	; 0x800811 <xTickCount+0x1>
    5676:	80 91 5f 08 	lds	r24, 0x085F	; 0x80085f <pxCurrentTCB>
    567a:	90 91 60 08 	lds	r25, 0x0860	; 0x800860 <pxCurrentTCB+0x1>
    567e:	02 96       	adiw	r24, 0x02	; 2
    5680:	69 83       	std	Y+1, r22	; 0x01
    5682:	2a d4       	rcall	.+2132   	; 0x5ed8 <uxListRemove>
    5684:	69 81       	ldd	r22, Y+1	; 0x01
    5686:	8f ef       	ldi	r24, 0xFF	; 255
    5688:	e8 16       	cp	r14, r24
    568a:	f8 06       	cpc	r15, r24
    568c:	91 f4       	brne	.+36     	; 0x56b2 <prvAddCurrentTaskToDelayedList+0x58>
    568e:	66 23       	and	r22, r22
    5690:	81 f0       	breq	.+32     	; 0x56b2 <prvAddCurrentTaskToDelayedList+0x58>
    5692:	60 91 5f 08 	lds	r22, 0x085F	; 0x80085f <pxCurrentTCB>
    5696:	70 91 60 08 	lds	r23, 0x0860	; 0x800860 <pxCurrentTCB+0x1>
    569a:	6e 5f       	subi	r22, 0xFE	; 254
    569c:	7f 4f       	sbci	r23, 0xFF	; 255
    569e:	83 e1       	ldi	r24, 0x13	; 19
    56a0:	98 e0       	ldi	r25, 0x08	; 8
    56a2:	0f 90       	pop	r0
    56a4:	df 91       	pop	r29
    56a6:	cf 91       	pop	r28
    56a8:	1f 91       	pop	r17
    56aa:	0f 91       	pop	r16
    56ac:	ff 90       	pop	r15
    56ae:	ef 90       	pop	r14
    56b0:	ba c3       	rjmp	.+1908   	; 0x5e26 <vListInsertEnd>
    56b2:	e0 0e       	add	r14, r16
    56b4:	f1 1e       	adc	r15, r17
    56b6:	e0 91 5f 08 	lds	r30, 0x085F	; 0x80085f <pxCurrentTCB>
    56ba:	f0 91 60 08 	lds	r31, 0x0860	; 0x800860 <pxCurrentTCB+0x1>
    56be:	f3 82       	std	Z+3, r15	; 0x03
    56c0:	e2 82       	std	Z+2, r14	; 0x02
    56c2:	60 91 5f 08 	lds	r22, 0x085F	; 0x80085f <pxCurrentTCB>
    56c6:	70 91 60 08 	lds	r23, 0x0860	; 0x800860 <pxCurrentTCB+0x1>
    56ca:	e0 16       	cp	r14, r16
    56cc:	f1 06       	cpc	r15, r17
    56ce:	70 f4       	brcc	.+28     	; 0x56ec <prvAddCurrentTaskToDelayedList+0x92>
    56d0:	80 91 25 08 	lds	r24, 0x0825	; 0x800825 <pxOverflowDelayedTaskList>
    56d4:	90 91 26 08 	lds	r25, 0x0826	; 0x800826 <pxOverflowDelayedTaskList+0x1>
    56d8:	6e 5f       	subi	r22, 0xFE	; 254
    56da:	7f 4f       	sbci	r23, 0xFF	; 255
    56dc:	0f 90       	pop	r0
    56de:	df 91       	pop	r29
    56e0:	cf 91       	pop	r28
    56e2:	1f 91       	pop	r17
    56e4:	0f 91       	pop	r16
    56e6:	ff 90       	pop	r15
    56e8:	ef 90       	pop	r14
    56ea:	be c3       	rjmp	.+1916   	; 0x5e68 <vListInsert>
    56ec:	80 91 27 08 	lds	r24, 0x0827	; 0x800827 <pxDelayedTaskList>
    56f0:	90 91 28 08 	lds	r25, 0x0828	; 0x800828 <pxDelayedTaskList+0x1>
    56f4:	6e 5f       	subi	r22, 0xFE	; 254
    56f6:	7f 4f       	sbci	r23, 0xFF	; 255
    56f8:	b7 d3       	rcall	.+1902   	; 0x5e68 <vListInsert>
    56fa:	80 91 08 08 	lds	r24, 0x0808	; 0x800808 <xNextTaskUnblockTime>
    56fe:	90 91 09 08 	lds	r25, 0x0809	; 0x800809 <xNextTaskUnblockTime+0x1>
    5702:	e8 16       	cp	r14, r24
    5704:	f9 06       	cpc	r15, r25
    5706:	20 f4       	brcc	.+8      	; 0x5710 <prvAddCurrentTaskToDelayedList+0xb6>
    5708:	f0 92 09 08 	sts	0x0809, r15	; 0x800809 <xNextTaskUnblockTime+0x1>
    570c:	e0 92 08 08 	sts	0x0808, r14	; 0x800808 <xNextTaskUnblockTime>
    5710:	0f 90       	pop	r0
    5712:	df 91       	pop	r29
    5714:	cf 91       	pop	r28
    5716:	1f 91       	pop	r17
    5718:	0f 91       	pop	r16
    571a:	ff 90       	pop	r15
    571c:	ef 90       	pop	r14
    571e:	08 95       	ret

00005720 <xTaskCreate>:
    5720:	2f 92       	push	r2
    5722:	3f 92       	push	r3
    5724:	5f 92       	push	r5
    5726:	6f 92       	push	r6
    5728:	7f 92       	push	r7
    572a:	8f 92       	push	r8
    572c:	9f 92       	push	r9
    572e:	af 92       	push	r10
    5730:	bf 92       	push	r11
    5732:	cf 92       	push	r12
    5734:	df 92       	push	r13
    5736:	ef 92       	push	r14
    5738:	ff 92       	push	r15
    573a:	0f 93       	push	r16
    573c:	1f 93       	push	r17
    573e:	cf 93       	push	r28
    5740:	df 93       	push	r29
    5742:	4c 01       	movw	r8, r24
    5744:	56 2e       	mov	r5, r22
    5746:	17 2f       	mov	r17, r23
    5748:	5a 01       	movw	r10, r20
    574a:	39 01       	movw	r6, r18
    574c:	ca 01       	movw	r24, r20
    574e:	cf dd       	rcall	.-1122   	; 0x52ee <pvPortMalloc>
    5750:	1c 01       	movw	r2, r24
    5752:	89 2b       	or	r24, r25
    5754:	09 f4       	brne	.+2      	; 0x5758 <xTaskCreate+0x38>
    5756:	c0 c0       	rjmp	.+384    	; 0x58d8 <xTaskCreate+0x1b8>
    5758:	84 e2       	ldi	r24, 0x24	; 36
    575a:	90 e0       	ldi	r25, 0x00	; 0
    575c:	c8 dd       	rcall	.-1136   	; 0x52ee <pvPortMalloc>
    575e:	ec 01       	movw	r28, r24
    5760:	00 97       	sbiw	r24, 0x00	; 0
    5762:	81 f0       	breq	.+32     	; 0x5784 <xTaskCreate+0x64>
    5764:	38 8e       	std	Y+24, r3	; 0x18
    5766:	2f 8a       	std	Y+23, r2	; 0x17
    5768:	65 01       	movw	r12, r10
    576a:	21 e0       	ldi	r18, 0x01	; 1
    576c:	c2 1a       	sub	r12, r18
    576e:	d1 08       	sbc	r13, r1
    5770:	c2 0c       	add	r12, r2
    5772:	d3 1c       	adc	r13, r3
    5774:	bc 01       	movw	r22, r24
    5776:	67 5e       	subi	r22, 0xE7	; 231
    5778:	7f 4f       	sbci	r23, 0xFF	; 255
    577a:	e5 2d       	mov	r30, r5
    577c:	f1 2f       	mov	r31, r17
    577e:	cf 01       	movw	r24, r30
    5780:	04 96       	adiw	r24, 0x04	; 4
    5782:	06 c0       	rjmp	.+12     	; 0x5790 <xTaskCreate+0x70>
    5784:	c1 01       	movw	r24, r2
    5786:	e3 dd       	rcall	.-1082   	; 0x534e <vPortFree>
    5788:	a7 c0       	rjmp	.+334    	; 0x58d8 <xTaskCreate+0x1b8>
    578a:	e8 17       	cp	r30, r24
    578c:	f9 07       	cpc	r31, r25
    578e:	49 f0       	breq	.+18     	; 0x57a2 <xTaskCreate+0x82>
    5790:	9f 01       	movw	r18, r30
    5792:	41 91       	ld	r20, Z+
    5794:	db 01       	movw	r26, r22
    5796:	4d 93       	st	X+, r20
    5798:	bd 01       	movw	r22, r26
    579a:	d9 01       	movw	r26, r18
    579c:	2c 91       	ld	r18, X
    579e:	21 11       	cpse	r18, r1
    57a0:	f4 cf       	rjmp	.-24     	; 0x578a <xTaskCreate+0x6a>
    57a2:	1c 8e       	std	Y+28, r1	; 0x1c
    57a4:	04 30       	cpi	r16, 0x04	; 4
    57a6:	08 f0       	brcs	.+2      	; 0x57aa <xTaskCreate+0x8a>
    57a8:	03 e0       	ldi	r16, 0x03	; 3
    57aa:	0e 8b       	std	Y+22, r16	; 0x16
    57ac:	0d 8f       	std	Y+29, r16	; 0x1d
    57ae:	1e 8e       	std	Y+30, r1	; 0x1e
    57b0:	5e 01       	movw	r10, r28
    57b2:	b2 e0       	ldi	r27, 0x02	; 2
    57b4:	ab 0e       	add	r10, r27
    57b6:	b1 1c       	adc	r11, r1
    57b8:	c5 01       	movw	r24, r10
    57ba:	31 d3       	rcall	.+1634   	; 0x5e1e <vListInitialiseItem>
    57bc:	ce 01       	movw	r24, r28
    57be:	0c 96       	adiw	r24, 0x0c	; 12
    57c0:	2e d3       	rcall	.+1628   	; 0x5e1e <vListInitialiseItem>
    57c2:	d9 87       	std	Y+9, r29	; 0x09
    57c4:	c8 87       	std	Y+8, r28	; 0x08
    57c6:	84 e0       	ldi	r24, 0x04	; 4
    57c8:	90 e0       	ldi	r25, 0x00	; 0
    57ca:	80 1b       	sub	r24, r16
    57cc:	91 09       	sbc	r25, r1
    57ce:	9d 87       	std	Y+13, r25	; 0x0d
    57d0:	8c 87       	std	Y+12, r24	; 0x0c
    57d2:	db 8b       	std	Y+19, r29	; 0x13
    57d4:	ca 8b       	std	Y+18, r28	; 0x12
    57d6:	1f 8e       	std	Y+31, r1	; 0x1f
    57d8:	18 a2       	std	Y+32, r1	; 0x20
    57da:	19 a2       	std	Y+33, r1	; 0x21
    57dc:	1a a2       	std	Y+34, r1	; 0x22
    57de:	1b a2       	std	Y+35, r1	; 0x23
    57e0:	a3 01       	movw	r20, r6
    57e2:	b4 01       	movw	r22, r8
    57e4:	c6 01       	movw	r24, r12
    57e6:	bd dd       	rcall	.-1158   	; 0x5362 <pxPortInitialiseStack>
    57e8:	99 83       	std	Y+1, r25	; 0x01
    57ea:	88 83       	st	Y, r24
    57ec:	e1 14       	cp	r14, r1
    57ee:	f1 04       	cpc	r15, r1
    57f0:	19 f0       	breq	.+6      	; 0x57f8 <xTaskCreate+0xd8>
    57f2:	f7 01       	movw	r30, r14
    57f4:	d1 83       	std	Z+1, r29	; 0x01
    57f6:	c0 83       	st	Z, r28
    57f8:	0f b6       	in	r0, 0x3f	; 63
    57fa:	f8 94       	cli
    57fc:	0f 92       	push	r0
    57fe:	80 91 12 08 	lds	r24, 0x0812	; 0x800812 <uxCurrentNumberOfTasks>
    5802:	8f 5f       	subi	r24, 0xFF	; 255
    5804:	80 93 12 08 	sts	0x0812, r24	; 0x800812 <uxCurrentNumberOfTasks>
    5808:	80 91 5f 08 	lds	r24, 0x085F	; 0x80085f <pxCurrentTCB>
    580c:	90 91 60 08 	lds	r25, 0x0860	; 0x800860 <pxCurrentTCB+0x1>
    5810:	89 2b       	or	r24, r25
    5812:	69 f5       	brne	.+90     	; 0x586e <xTaskCreate+0x14e>
    5814:	d0 93 60 08 	sts	0x0860, r29	; 0x800860 <pxCurrentTCB+0x1>
    5818:	c0 93 5f 08 	sts	0x085F, r28	; 0x80085f <pxCurrentTCB>
    581c:	80 91 12 08 	lds	r24, 0x0812	; 0x800812 <uxCurrentNumberOfTasks>
    5820:	81 30       	cpi	r24, 0x01	; 1
    5822:	a9 f5       	brne	.+106    	; 0x588e <xTaskCreate+0x16e>
    5824:	8b e3       	ldi	r24, 0x3B	; 59
    5826:	98 e0       	ldi	r25, 0x08	; 8
    5828:	ec d2       	rcall	.+1496   	; 0x5e02 <vListInitialise>
    582a:	84 e4       	ldi	r24, 0x44	; 68
    582c:	98 e0       	ldi	r25, 0x08	; 8
    582e:	e9 d2       	rcall	.+1490   	; 0x5e02 <vListInitialise>
    5830:	8d e4       	ldi	r24, 0x4D	; 77
    5832:	98 e0       	ldi	r25, 0x08	; 8
    5834:	e6 d2       	rcall	.+1484   	; 0x5e02 <vListInitialise>
    5836:	86 e5       	ldi	r24, 0x56	; 86
    5838:	98 e0       	ldi	r25, 0x08	; 8
    583a:	e3 d2       	rcall	.+1478   	; 0x5e02 <vListInitialise>
    583c:	82 e3       	ldi	r24, 0x32	; 50
    583e:	98 e0       	ldi	r25, 0x08	; 8
    5840:	e0 d2       	rcall	.+1472   	; 0x5e02 <vListInitialise>
    5842:	89 e2       	ldi	r24, 0x29	; 41
    5844:	98 e0       	ldi	r25, 0x08	; 8
    5846:	dd d2       	rcall	.+1466   	; 0x5e02 <vListInitialise>
    5848:	8c e1       	ldi	r24, 0x1C	; 28
    584a:	98 e0       	ldi	r25, 0x08	; 8
    584c:	da d2       	rcall	.+1460   	; 0x5e02 <vListInitialise>
    584e:	83 e1       	ldi	r24, 0x13	; 19
    5850:	98 e0       	ldi	r25, 0x08	; 8
    5852:	d7 d2       	rcall	.+1454   	; 0x5e02 <vListInitialise>
    5854:	82 e3       	ldi	r24, 0x32	; 50
    5856:	98 e0       	ldi	r25, 0x08	; 8
    5858:	90 93 28 08 	sts	0x0828, r25	; 0x800828 <pxDelayedTaskList+0x1>
    585c:	80 93 27 08 	sts	0x0827, r24	; 0x800827 <pxDelayedTaskList>
    5860:	89 e2       	ldi	r24, 0x29	; 41
    5862:	98 e0       	ldi	r25, 0x08	; 8
    5864:	90 93 26 08 	sts	0x0826, r25	; 0x800826 <pxOverflowDelayedTaskList+0x1>
    5868:	80 93 25 08 	sts	0x0825, r24	; 0x800825 <pxOverflowDelayedTaskList>
    586c:	10 c0       	rjmp	.+32     	; 0x588e <xTaskCreate+0x16e>
    586e:	80 91 0e 08 	lds	r24, 0x080E	; 0x80080e <xSchedulerRunning>
    5872:	81 11       	cpse	r24, r1
    5874:	0c c0       	rjmp	.+24     	; 0x588e <xTaskCreate+0x16e>
    5876:	e0 91 5f 08 	lds	r30, 0x085F	; 0x80085f <pxCurrentTCB>
    587a:	f0 91 60 08 	lds	r31, 0x0860	; 0x800860 <pxCurrentTCB+0x1>
    587e:	96 89       	ldd	r25, Z+22	; 0x16
    5880:	8e 89       	ldd	r24, Y+22	; 0x16
    5882:	89 17       	cp	r24, r25
    5884:	20 f0       	brcs	.+8      	; 0x588e <xTaskCreate+0x16e>
    5886:	d0 93 60 08 	sts	0x0860, r29	; 0x800860 <pxCurrentTCB+0x1>
    588a:	c0 93 5f 08 	sts	0x085F, r28	; 0x80085f <pxCurrentTCB>
    588e:	80 91 0a 08 	lds	r24, 0x080A	; 0x80080a <uxTaskNumber>
    5892:	8f 5f       	subi	r24, 0xFF	; 255
    5894:	80 93 0a 08 	sts	0x080A, r24	; 0x80080a <uxTaskNumber>
    5898:	8e 89       	ldd	r24, Y+22	; 0x16
    589a:	90 91 0f 08 	lds	r25, 0x080F	; 0x80080f <uxTopReadyPriority>
    589e:	98 17       	cp	r25, r24
    58a0:	10 f4       	brcc	.+4      	; 0x58a6 <xTaskCreate+0x186>
    58a2:	80 93 0f 08 	sts	0x080F, r24	; 0x80080f <uxTopReadyPriority>
    58a6:	f9 e0       	ldi	r31, 0x09	; 9
    58a8:	8f 9f       	mul	r24, r31
    58aa:	c0 01       	movw	r24, r0
    58ac:	11 24       	eor	r1, r1
    58ae:	b5 01       	movw	r22, r10
    58b0:	85 5c       	subi	r24, 0xC5	; 197
    58b2:	97 4f       	sbci	r25, 0xF7	; 247
    58b4:	b8 d2       	rcall	.+1392   	; 0x5e26 <vListInsertEnd>
    58b6:	0f 90       	pop	r0
    58b8:	0f be       	out	0x3f, r0	; 63
    58ba:	80 91 0e 08 	lds	r24, 0x080E	; 0x80080e <xSchedulerRunning>
    58be:	88 23       	and	r24, r24
    58c0:	49 f0       	breq	.+18     	; 0x58d4 <xTaskCreate+0x1b4>
    58c2:	e0 91 5f 08 	lds	r30, 0x085F	; 0x80085f <pxCurrentTCB>
    58c6:	f0 91 60 08 	lds	r31, 0x0860	; 0x800860 <pxCurrentTCB+0x1>
    58ca:	96 89       	ldd	r25, Z+22	; 0x16
    58cc:	8e 89       	ldd	r24, Y+22	; 0x16
    58ce:	98 17       	cp	r25, r24
    58d0:	08 f4       	brcc	.+2      	; 0x58d4 <xTaskCreate+0x1b4>
    58d2:	ed dd       	rcall	.-1062   	; 0x54ae <vPortYield>
    58d4:	81 e0       	ldi	r24, 0x01	; 1
    58d6:	01 c0       	rjmp	.+2      	; 0x58da <xTaskCreate+0x1ba>
    58d8:	8f ef       	ldi	r24, 0xFF	; 255
    58da:	df 91       	pop	r29
    58dc:	cf 91       	pop	r28
    58de:	1f 91       	pop	r17
    58e0:	0f 91       	pop	r16
    58e2:	ff 90       	pop	r15
    58e4:	ef 90       	pop	r14
    58e6:	df 90       	pop	r13
    58e8:	cf 90       	pop	r12
    58ea:	bf 90       	pop	r11
    58ec:	af 90       	pop	r10
    58ee:	9f 90       	pop	r9
    58f0:	8f 90       	pop	r8
    58f2:	7f 90       	pop	r7
    58f4:	6f 90       	pop	r6
    58f6:	5f 90       	pop	r5
    58f8:	3f 90       	pop	r3
    58fa:	2f 90       	pop	r2
    58fc:	08 95       	ret

000058fe <vTaskStartScheduler>:
    58fe:	ef 92       	push	r14
    5900:	ff 92       	push	r15
    5902:	0f 93       	push	r16
    5904:	86 e0       	ldi	r24, 0x06	; 6
    5906:	e8 2e       	mov	r14, r24
    5908:	88 e0       	ldi	r24, 0x08	; 8
    590a:	f8 2e       	mov	r15, r24
    590c:	00 e0       	ldi	r16, 0x00	; 0
    590e:	20 e0       	ldi	r18, 0x00	; 0
    5910:	30 e0       	ldi	r19, 0x00	; 0
    5912:	45 e5       	ldi	r20, 0x55	; 85
    5914:	50 e0       	ldi	r21, 0x00	; 0
    5916:	67 e4       	ldi	r22, 0x47	; 71
    5918:	71 e0       	ldi	r23, 0x01	; 1
    591a:	8b e0       	ldi	r24, 0x0B	; 11
    591c:	9b e2       	ldi	r25, 0x2B	; 43
    591e:	00 df       	rcall	.-512    	; 0x5720 <xTaskCreate>
    5920:	81 30       	cpi	r24, 0x01	; 1
    5922:	89 f4       	brne	.+34     	; 0x5946 <vTaskStartScheduler+0x48>
    5924:	f8 94       	cli
    5926:	2f ef       	ldi	r18, 0xFF	; 255
    5928:	3f ef       	ldi	r19, 0xFF	; 255
    592a:	30 93 09 08 	sts	0x0809, r19	; 0x800809 <xNextTaskUnblockTime+0x1>
    592e:	20 93 08 08 	sts	0x0808, r18	; 0x800808 <xNextTaskUnblockTime>
    5932:	80 93 0e 08 	sts	0x080E, r24	; 0x80080e <xSchedulerRunning>
    5936:	10 92 11 08 	sts	0x0811, r1	; 0x800811 <xTickCount+0x1>
    593a:	10 92 10 08 	sts	0x0810, r1	; 0x800810 <xTickCount>
    593e:	0f 91       	pop	r16
    5940:	ff 90       	pop	r15
    5942:	ef 90       	pop	r14
    5944:	7a cd       	rjmp	.-1292   	; 0x543a <xPortStartScheduler>
    5946:	0f 91       	pop	r16
    5948:	ff 90       	pop	r15
    594a:	ef 90       	pop	r14
    594c:	08 95       	ret

0000594e <vTaskSuspendAll>:
    594e:	80 91 05 08 	lds	r24, 0x0805	; 0x800805 <uxSchedulerSuspended>
    5952:	8f 5f       	subi	r24, 0xFF	; 255
    5954:	80 93 05 08 	sts	0x0805, r24	; 0x800805 <uxSchedulerSuspended>
    5958:	08 95       	ret

0000595a <xTaskGetTickCount>:
    595a:	0f b6       	in	r0, 0x3f	; 63
    595c:	f8 94       	cli
    595e:	0f 92       	push	r0
    5960:	80 91 10 08 	lds	r24, 0x0810	; 0x800810 <xTickCount>
    5964:	90 91 11 08 	lds	r25, 0x0811	; 0x800811 <xTickCount+0x1>
    5968:	0f 90       	pop	r0
    596a:	0f be       	out	0x3f, r0	; 63
    596c:	08 95       	ret

0000596e <xTaskIncrementTick>:
    596e:	cf 92       	push	r12
    5970:	df 92       	push	r13
    5972:	ef 92       	push	r14
    5974:	ff 92       	push	r15
    5976:	0f 93       	push	r16
    5978:	1f 93       	push	r17
    597a:	cf 93       	push	r28
    597c:	df 93       	push	r29
    597e:	80 91 05 08 	lds	r24, 0x0805	; 0x800805 <uxSchedulerSuspended>
    5982:	81 11       	cpse	r24, r1
    5984:	8d c0       	rjmp	.+282    	; 0x5aa0 <xTaskIncrementTick+0x132>
    5986:	00 91 10 08 	lds	r16, 0x0810	; 0x800810 <xTickCount>
    598a:	10 91 11 08 	lds	r17, 0x0811	; 0x800811 <xTickCount+0x1>
    598e:	0f 5f       	subi	r16, 0xFF	; 255
    5990:	1f 4f       	sbci	r17, 0xFF	; 255
    5992:	10 93 11 08 	sts	0x0811, r17	; 0x800811 <xTickCount+0x1>
    5996:	00 93 10 08 	sts	0x0810, r16	; 0x800810 <xTickCount>
    599a:	01 15       	cp	r16, r1
    599c:	11 05       	cpc	r17, r1
    599e:	b1 f4       	brne	.+44     	; 0x59cc <xTaskIncrementTick+0x5e>
    59a0:	80 91 27 08 	lds	r24, 0x0827	; 0x800827 <pxDelayedTaskList>
    59a4:	90 91 28 08 	lds	r25, 0x0828	; 0x800828 <pxDelayedTaskList+0x1>
    59a8:	20 91 25 08 	lds	r18, 0x0825	; 0x800825 <pxOverflowDelayedTaskList>
    59ac:	30 91 26 08 	lds	r19, 0x0826	; 0x800826 <pxOverflowDelayedTaskList+0x1>
    59b0:	30 93 28 08 	sts	0x0828, r19	; 0x800828 <pxDelayedTaskList+0x1>
    59b4:	20 93 27 08 	sts	0x0827, r18	; 0x800827 <pxDelayedTaskList>
    59b8:	90 93 26 08 	sts	0x0826, r25	; 0x800826 <pxOverflowDelayedTaskList+0x1>
    59bc:	80 93 25 08 	sts	0x0825, r24	; 0x800825 <pxOverflowDelayedTaskList>
    59c0:	80 91 0b 08 	lds	r24, 0x080B	; 0x80080b <xNumOfOverflows>
    59c4:	8f 5f       	subi	r24, 0xFF	; 255
    59c6:	80 93 0b 08 	sts	0x080B, r24	; 0x80080b <xNumOfOverflows>
    59ca:	2c de       	rcall	.-936    	; 0x5624 <prvResetNextTaskUnblockTime>
    59cc:	80 91 08 08 	lds	r24, 0x0808	; 0x800808 <xNextTaskUnblockTime>
    59d0:	90 91 09 08 	lds	r25, 0x0809	; 0x800809 <xNextTaskUnblockTime+0x1>
    59d4:	c0 e0       	ldi	r28, 0x00	; 0
    59d6:	08 17       	cp	r16, r24
    59d8:	19 07       	cpc	r17, r25
    59da:	08 f4       	brcc	.+2      	; 0x59de <xTaskIncrementTick+0x70>
    59dc:	4c c0       	rjmp	.+152    	; 0x5a76 <xTaskIncrementTick+0x108>
    59de:	d9 e0       	ldi	r29, 0x09	; 9
    59e0:	e0 91 27 08 	lds	r30, 0x0827	; 0x800827 <pxDelayedTaskList>
    59e4:	f0 91 28 08 	lds	r31, 0x0828	; 0x800828 <pxDelayedTaskList+0x1>
    59e8:	80 81       	ld	r24, Z
    59ea:	81 11       	cpse	r24, r1
    59ec:	03 c0       	rjmp	.+6      	; 0x59f4 <xTaskIncrementTick+0x86>
    59ee:	8f ef       	ldi	r24, 0xFF	; 255
    59f0:	9f ef       	ldi	r25, 0xFF	; 255
    59f2:	11 c0       	rjmp	.+34     	; 0x5a16 <xTaskIncrementTick+0xa8>
    59f4:	e0 91 27 08 	lds	r30, 0x0827	; 0x800827 <pxDelayedTaskList>
    59f8:	f0 91 28 08 	lds	r31, 0x0828	; 0x800828 <pxDelayedTaskList+0x1>
    59fc:	05 80       	ldd	r0, Z+5	; 0x05
    59fe:	f6 81       	ldd	r31, Z+6	; 0x06
    5a00:	e0 2d       	mov	r30, r0
    5a02:	e6 80       	ldd	r14, Z+6	; 0x06
    5a04:	f7 80       	ldd	r15, Z+7	; 0x07
    5a06:	d7 01       	movw	r26, r14
    5a08:	12 96       	adiw	r26, 0x02	; 2
    5a0a:	8d 91       	ld	r24, X+
    5a0c:	9c 91       	ld	r25, X
    5a0e:	13 97       	sbiw	r26, 0x03	; 3
    5a10:	08 17       	cp	r16, r24
    5a12:	19 07       	cpc	r17, r25
    5a14:	28 f4       	brcc	.+10     	; 0x5a20 <xTaskIncrementTick+0xb2>
    5a16:	90 93 09 08 	sts	0x0809, r25	; 0x800809 <xNextTaskUnblockTime+0x1>
    5a1a:	80 93 08 08 	sts	0x0808, r24	; 0x800808 <xNextTaskUnblockTime>
    5a1e:	2b c0       	rjmp	.+86     	; 0x5a76 <xTaskIncrementTick+0x108>
    5a20:	67 01       	movw	r12, r14
    5a22:	b2 e0       	ldi	r27, 0x02	; 2
    5a24:	cb 0e       	add	r12, r27
    5a26:	d1 1c       	adc	r13, r1
    5a28:	c6 01       	movw	r24, r12
    5a2a:	56 d2       	rcall	.+1196   	; 0x5ed8 <uxListRemove>
    5a2c:	f7 01       	movw	r30, r14
    5a2e:	84 89       	ldd	r24, Z+20	; 0x14
    5a30:	95 89       	ldd	r25, Z+21	; 0x15
    5a32:	89 2b       	or	r24, r25
    5a34:	19 f0       	breq	.+6      	; 0x5a3c <xTaskIncrementTick+0xce>
    5a36:	c7 01       	movw	r24, r14
    5a38:	0c 96       	adiw	r24, 0x0c	; 12
    5a3a:	4e d2       	rcall	.+1180   	; 0x5ed8 <uxListRemove>
    5a3c:	d7 01       	movw	r26, r14
    5a3e:	56 96       	adiw	r26, 0x16	; 22
    5a40:	9c 91       	ld	r25, X
    5a42:	80 91 0f 08 	lds	r24, 0x080F	; 0x80080f <uxTopReadyPriority>
    5a46:	89 17       	cp	r24, r25
    5a48:	10 f4       	brcc	.+4      	; 0x5a4e <xTaskIncrementTick+0xe0>
    5a4a:	90 93 0f 08 	sts	0x080F, r25	; 0x80080f <uxTopReadyPriority>
    5a4e:	d9 9f       	mul	r29, r25
    5a50:	c0 01       	movw	r24, r0
    5a52:	11 24       	eor	r1, r1
    5a54:	b6 01       	movw	r22, r12
    5a56:	85 5c       	subi	r24, 0xC5	; 197
    5a58:	97 4f       	sbci	r25, 0xF7	; 247
    5a5a:	e5 d1       	rcall	.+970    	; 0x5e26 <vListInsertEnd>
    5a5c:	e0 91 5f 08 	lds	r30, 0x085F	; 0x80085f <pxCurrentTCB>
    5a60:	f0 91 60 08 	lds	r31, 0x0860	; 0x800860 <pxCurrentTCB+0x1>
    5a64:	d7 01       	movw	r26, r14
    5a66:	56 96       	adiw	r26, 0x16	; 22
    5a68:	9c 91       	ld	r25, X
    5a6a:	86 89       	ldd	r24, Z+22	; 0x16
    5a6c:	98 17       	cp	r25, r24
    5a6e:	08 f4       	brcc	.+2      	; 0x5a72 <xTaskIncrementTick+0x104>
    5a70:	b7 cf       	rjmp	.-146    	; 0x59e0 <xTaskIncrementTick+0x72>
    5a72:	c1 e0       	ldi	r28, 0x01	; 1
    5a74:	b5 cf       	rjmp	.-150    	; 0x59e0 <xTaskIncrementTick+0x72>
    5a76:	e0 91 5f 08 	lds	r30, 0x085F	; 0x80085f <pxCurrentTCB>
    5a7a:	f0 91 60 08 	lds	r31, 0x0860	; 0x800860 <pxCurrentTCB+0x1>
    5a7e:	e6 89       	ldd	r30, Z+22	; 0x16
    5a80:	b9 e0       	ldi	r27, 0x09	; 9
    5a82:	eb 9f       	mul	r30, r27
    5a84:	f0 01       	movw	r30, r0
    5a86:	11 24       	eor	r1, r1
    5a88:	e5 5c       	subi	r30, 0xC5	; 197
    5a8a:	f7 4f       	sbci	r31, 0xF7	; 247
    5a8c:	80 81       	ld	r24, Z
    5a8e:	82 30       	cpi	r24, 0x02	; 2
    5a90:	08 f0       	brcs	.+2      	; 0x5a94 <xTaskIncrementTick+0x126>
    5a92:	c1 e0       	ldi	r28, 0x01	; 1
    5a94:	80 91 0d 08 	lds	r24, 0x080D	; 0x80080d <uxPendedTicks>
    5a98:	81 11       	cpse	r24, r1
    5a9a:	09 c0       	rjmp	.+18     	; 0x5aae <xTaskIncrementTick+0x140>
    5a9c:	b7 d8       	rcall	.-3730   	; 0x4c0c <vApplicationTickHook>
    5a9e:	07 c0       	rjmp	.+14     	; 0x5aae <xTaskIncrementTick+0x140>
    5aa0:	80 91 0d 08 	lds	r24, 0x080D	; 0x80080d <uxPendedTicks>
    5aa4:	8f 5f       	subi	r24, 0xFF	; 255
    5aa6:	80 93 0d 08 	sts	0x080D, r24	; 0x80080d <uxPendedTicks>
    5aaa:	b0 d8       	rcall	.-3744   	; 0x4c0c <vApplicationTickHook>
    5aac:	c0 e0       	ldi	r28, 0x00	; 0
    5aae:	80 91 0c 08 	lds	r24, 0x080C	; 0x80080c <xYieldPending>
    5ab2:	81 11       	cpse	r24, r1
    5ab4:	c1 e0       	ldi	r28, 0x01	; 1
    5ab6:	8c 2f       	mov	r24, r28
    5ab8:	df 91       	pop	r29
    5aba:	cf 91       	pop	r28
    5abc:	1f 91       	pop	r17
    5abe:	0f 91       	pop	r16
    5ac0:	ff 90       	pop	r15
    5ac2:	ef 90       	pop	r14
    5ac4:	df 90       	pop	r13
    5ac6:	cf 90       	pop	r12
    5ac8:	08 95       	ret

00005aca <xTaskResumeAll>:
    5aca:	ef 92       	push	r14
    5acc:	ff 92       	push	r15
    5ace:	0f 93       	push	r16
    5ad0:	1f 93       	push	r17
    5ad2:	cf 93       	push	r28
    5ad4:	df 93       	push	r29
    5ad6:	0f b6       	in	r0, 0x3f	; 63
    5ad8:	f8 94       	cli
    5ada:	0f 92       	push	r0
    5adc:	80 91 05 08 	lds	r24, 0x0805	; 0x800805 <uxSchedulerSuspended>
    5ae0:	81 50       	subi	r24, 0x01	; 1
    5ae2:	80 93 05 08 	sts	0x0805, r24	; 0x800805 <uxSchedulerSuspended>
    5ae6:	80 91 05 08 	lds	r24, 0x0805	; 0x800805 <uxSchedulerSuspended>
    5aea:	88 23       	and	r24, r24
    5aec:	11 f0       	breq	.+4      	; 0x5af2 <xTaskResumeAll+0x28>
    5aee:	80 e0       	ldi	r24, 0x00	; 0
    5af0:	4c c0       	rjmp	.+152    	; 0x5b8a <xTaskResumeAll+0xc0>
    5af2:	80 91 12 08 	lds	r24, 0x0812	; 0x800812 <uxCurrentNumberOfTasks>
    5af6:	88 23       	and	r24, r24
    5af8:	d1 f3       	breq	.-12     	; 0x5aee <xTaskResumeAll+0x24>
    5afa:	c0 e0       	ldi	r28, 0x00	; 0
    5afc:	d0 e0       	ldi	r29, 0x00	; 0
    5afe:	89 e0       	ldi	r24, 0x09	; 9
    5b00:	f8 2e       	mov	r15, r24
    5b02:	ee 24       	eor	r14, r14
    5b04:	e3 94       	inc	r14
    5b06:	80 91 1c 08 	lds	r24, 0x081C	; 0x80081c <xPendingReadyList>
    5b0a:	88 23       	and	r24, r24
    5b0c:	39 f1       	breq	.+78     	; 0x5b5c <xTaskResumeAll+0x92>
    5b0e:	e0 91 21 08 	lds	r30, 0x0821	; 0x800821 <xPendingReadyList+0x5>
    5b12:	f0 91 22 08 	lds	r31, 0x0822	; 0x800822 <xPendingReadyList+0x6>
    5b16:	c6 81       	ldd	r28, Z+6	; 0x06
    5b18:	d7 81       	ldd	r29, Z+7	; 0x07
    5b1a:	ce 01       	movw	r24, r28
    5b1c:	0c 96       	adiw	r24, 0x0c	; 12
    5b1e:	dc d1       	rcall	.+952    	; 0x5ed8 <uxListRemove>
    5b20:	8e 01       	movw	r16, r28
    5b22:	0e 5f       	subi	r16, 0xFE	; 254
    5b24:	1f 4f       	sbci	r17, 0xFF	; 255
    5b26:	c8 01       	movw	r24, r16
    5b28:	d7 d1       	rcall	.+942    	; 0x5ed8 <uxListRemove>
    5b2a:	9e 89       	ldd	r25, Y+22	; 0x16
    5b2c:	80 91 0f 08 	lds	r24, 0x080F	; 0x80080f <uxTopReadyPriority>
    5b30:	89 17       	cp	r24, r25
    5b32:	10 f4       	brcc	.+4      	; 0x5b38 <xTaskResumeAll+0x6e>
    5b34:	90 93 0f 08 	sts	0x080F, r25	; 0x80080f <uxTopReadyPriority>
    5b38:	f9 9e       	mul	r15, r25
    5b3a:	c0 01       	movw	r24, r0
    5b3c:	11 24       	eor	r1, r1
    5b3e:	b8 01       	movw	r22, r16
    5b40:	85 5c       	subi	r24, 0xC5	; 197
    5b42:	97 4f       	sbci	r25, 0xF7	; 247
    5b44:	70 d1       	rcall	.+736    	; 0x5e26 <vListInsertEnd>
    5b46:	e0 91 5f 08 	lds	r30, 0x085F	; 0x80085f <pxCurrentTCB>
    5b4a:	f0 91 60 08 	lds	r31, 0x0860	; 0x800860 <pxCurrentTCB+0x1>
    5b4e:	9e 89       	ldd	r25, Y+22	; 0x16
    5b50:	86 89       	ldd	r24, Z+22	; 0x16
    5b52:	98 17       	cp	r25, r24
    5b54:	c0 f2       	brcs	.-80     	; 0x5b06 <xTaskResumeAll+0x3c>
    5b56:	e0 92 0c 08 	sts	0x080C, r14	; 0x80080c <xYieldPending>
    5b5a:	d5 cf       	rjmp	.-86     	; 0x5b06 <xTaskResumeAll+0x3c>
    5b5c:	cd 2b       	or	r28, r29
    5b5e:	09 f0       	breq	.+2      	; 0x5b62 <xTaskResumeAll+0x98>
    5b60:	61 dd       	rcall	.-1342   	; 0x5624 <prvResetNextTaskUnblockTime>
    5b62:	c0 91 0d 08 	lds	r28, 0x080D	; 0x80080d <uxPendedTicks>
    5b66:	cc 23       	and	r28, r28
    5b68:	49 f0       	breq	.+18     	; 0x5b7c <xTaskResumeAll+0xb2>
    5b6a:	d1 e0       	ldi	r29, 0x01	; 1
    5b6c:	00 df       	rcall	.-512    	; 0x596e <xTaskIncrementTick>
    5b6e:	81 11       	cpse	r24, r1
    5b70:	d0 93 0c 08 	sts	0x080C, r29	; 0x80080c <xYieldPending>
    5b74:	c1 50       	subi	r28, 0x01	; 1
    5b76:	d1 f7       	brne	.-12     	; 0x5b6c <xTaskResumeAll+0xa2>
    5b78:	10 92 0d 08 	sts	0x080D, r1	; 0x80080d <uxPendedTicks>
    5b7c:	80 91 0c 08 	lds	r24, 0x080C	; 0x80080c <xYieldPending>
    5b80:	88 23       	and	r24, r24
    5b82:	09 f4       	brne	.+2      	; 0x5b86 <xTaskResumeAll+0xbc>
    5b84:	b4 cf       	rjmp	.-152    	; 0x5aee <xTaskResumeAll+0x24>
    5b86:	93 dc       	rcall	.-1754   	; 0x54ae <vPortYield>
    5b88:	81 e0       	ldi	r24, 0x01	; 1
    5b8a:	0f 90       	pop	r0
    5b8c:	0f be       	out	0x3f, r0	; 63
    5b8e:	df 91       	pop	r29
    5b90:	cf 91       	pop	r28
    5b92:	1f 91       	pop	r17
    5b94:	0f 91       	pop	r16
    5b96:	ff 90       	pop	r15
    5b98:	ef 90       	pop	r14
    5b9a:	08 95       	ret

00005b9c <vTaskDelayUntil>:
    5b9c:	0f 93       	push	r16
    5b9e:	1f 93       	push	r17
    5ba0:	cf 93       	push	r28
    5ba2:	df 93       	push	r29
    5ba4:	8c 01       	movw	r16, r24
    5ba6:	eb 01       	movw	r28, r22
    5ba8:	d2 de       	rcall	.-604    	; 0x594e <vTaskSuspendAll>
    5baa:	40 91 10 08 	lds	r20, 0x0810	; 0x800810 <xTickCount>
    5bae:	50 91 11 08 	lds	r21, 0x0811	; 0x800811 <xTickCount+0x1>
    5bb2:	f8 01       	movw	r30, r16
    5bb4:	60 81       	ld	r22, Z
    5bb6:	71 81       	ldd	r23, Z+1	; 0x01
    5bb8:	9b 01       	movw	r18, r22
    5bba:	2c 0f       	add	r18, r28
    5bbc:	3d 1f       	adc	r19, r29
    5bbe:	46 17       	cp	r20, r22
    5bc0:	57 07       	cpc	r21, r23
    5bc2:	28 f4       	brcc	.+10     	; 0x5bce <vTaskDelayUntil+0x32>
    5bc4:	26 17       	cp	r18, r22
    5bc6:	37 07       	cpc	r19, r23
    5bc8:	48 f4       	brcc	.+18     	; 0x5bdc <vTaskDelayUntil+0x40>
    5bca:	91 e0       	ldi	r25, 0x01	; 1
    5bcc:	04 c0       	rjmp	.+8      	; 0x5bd6 <vTaskDelayUntil+0x3a>
    5bce:	91 e0       	ldi	r25, 0x01	; 1
    5bd0:	26 17       	cp	r18, r22
    5bd2:	37 07       	cpc	r19, r23
    5bd4:	20 f0       	brcs	.+8      	; 0x5bde <vTaskDelayUntil+0x42>
    5bd6:	42 17       	cp	r20, r18
    5bd8:	53 07       	cpc	r21, r19
    5bda:	08 f0       	brcs	.+2      	; 0x5bde <vTaskDelayUntil+0x42>
    5bdc:	90 e0       	ldi	r25, 0x00	; 0
    5bde:	f8 01       	movw	r30, r16
    5be0:	31 83       	std	Z+1, r19	; 0x01
    5be2:	20 83       	st	Z, r18
    5be4:	99 23       	and	r25, r25
    5be6:	29 f0       	breq	.+10     	; 0x5bf2 <vTaskDelayUntil+0x56>
    5be8:	60 e0       	ldi	r22, 0x00	; 0
    5bea:	c9 01       	movw	r24, r18
    5bec:	84 1b       	sub	r24, r20
    5bee:	95 0b       	sbc	r25, r21
    5bf0:	34 dd       	rcall	.-1432   	; 0x565a <prvAddCurrentTaskToDelayedList>
    5bf2:	6b df       	rcall	.-298    	; 0x5aca <xTaskResumeAll>
    5bf4:	81 11       	cpse	r24, r1
    5bf6:	01 c0       	rjmp	.+2      	; 0x5bfa <vTaskDelayUntil+0x5e>
    5bf8:	5a dc       	rcall	.-1868   	; 0x54ae <vPortYield>
    5bfa:	df 91       	pop	r29
    5bfc:	cf 91       	pop	r28
    5bfe:	1f 91       	pop	r17
    5c00:	0f 91       	pop	r16
    5c02:	08 95       	ret

00005c04 <vTaskDelay>:
    5c04:	cf 93       	push	r28
    5c06:	df 93       	push	r29
    5c08:	00 d0       	rcall	.+0      	; 0x5c0a <vTaskDelay+0x6>
    5c0a:	cd b7       	in	r28, 0x3d	; 61
    5c0c:	de b7       	in	r29, 0x3e	; 62
    5c0e:	00 97       	sbiw	r24, 0x00	; 0
    5c10:	11 f4       	brne	.+4      	; 0x5c16 <vTaskDelay+0x12>
    5c12:	4d dc       	rcall	.-1894   	; 0x54ae <vPortYield>
    5c14:	0a c0       	rjmp	.+20     	; 0x5c2a <vTaskDelay+0x26>
    5c16:	89 83       	std	Y+1, r24	; 0x01
    5c18:	9a 83       	std	Y+2, r25	; 0x02
    5c1a:	99 de       	rcall	.-718    	; 0x594e <vTaskSuspendAll>
    5c1c:	60 e0       	ldi	r22, 0x00	; 0
    5c1e:	89 81       	ldd	r24, Y+1	; 0x01
    5c20:	9a 81       	ldd	r25, Y+2	; 0x02
    5c22:	1b dd       	rcall	.-1482   	; 0x565a <prvAddCurrentTaskToDelayedList>
    5c24:	52 df       	rcall	.-348    	; 0x5aca <xTaskResumeAll>
    5c26:	88 23       	and	r24, r24
    5c28:	a1 f3       	breq	.-24     	; 0x5c12 <vTaskDelay+0xe>
    5c2a:	0f 90       	pop	r0
    5c2c:	0f 90       	pop	r0
    5c2e:	df 91       	pop	r29
    5c30:	cf 91       	pop	r28
    5c32:	08 95       	ret

00005c34 <vTaskSwitchContext>:
    5c34:	80 91 05 08 	lds	r24, 0x0805	; 0x800805 <uxSchedulerSuspended>
    5c38:	88 23       	and	r24, r24
    5c3a:	21 f0       	breq	.+8      	; 0x5c44 <vTaskSwitchContext+0x10>
    5c3c:	81 e0       	ldi	r24, 0x01	; 1
    5c3e:	80 93 0c 08 	sts	0x080C, r24	; 0x80080c <xYieldPending>
    5c42:	08 95       	ret
    5c44:	10 92 0c 08 	sts	0x080C, r1	; 0x80080c <xYieldPending>
    5c48:	80 91 0f 08 	lds	r24, 0x080F	; 0x80080f <uxTopReadyPriority>
    5c4c:	69 e0       	ldi	r22, 0x09	; 9
    5c4e:	48 2f       	mov	r20, r24
    5c50:	50 e0       	ldi	r21, 0x00	; 0
    5c52:	64 9f       	mul	r22, r20
    5c54:	90 01       	movw	r18, r0
    5c56:	65 9f       	mul	r22, r21
    5c58:	30 0d       	add	r19, r0
    5c5a:	11 24       	eor	r1, r1
    5c5c:	f9 01       	movw	r30, r18
    5c5e:	e5 5c       	subi	r30, 0xC5	; 197
    5c60:	f7 4f       	sbci	r31, 0xF7	; 247
    5c62:	90 81       	ld	r25, Z
    5c64:	91 11       	cpse	r25, r1
    5c66:	02 c0       	rjmp	.+4      	; 0x5c6c <vTaskSwitchContext+0x38>
    5c68:	81 50       	subi	r24, 0x01	; 1
    5c6a:	f1 cf       	rjmp	.-30     	; 0x5c4e <vTaskSwitchContext+0x1a>
    5c6c:	a1 81       	ldd	r26, Z+1	; 0x01
    5c6e:	b2 81       	ldd	r27, Z+2	; 0x02
    5c70:	12 96       	adiw	r26, 0x02	; 2
    5c72:	0d 90       	ld	r0, X+
    5c74:	bc 91       	ld	r27, X
    5c76:	a0 2d       	mov	r26, r0
    5c78:	b2 83       	std	Z+2, r27	; 0x02
    5c7a:	a1 83       	std	Z+1, r26	; 0x01
    5c7c:	22 5c       	subi	r18, 0xC2	; 194
    5c7e:	37 4f       	sbci	r19, 0xF7	; 247
    5c80:	a2 17       	cp	r26, r18
    5c82:	b3 07       	cpc	r27, r19
    5c84:	31 f4       	brne	.+12     	; 0x5c92 <vTaskSwitchContext+0x5e>
    5c86:	12 96       	adiw	r26, 0x02	; 2
    5c88:	2d 91       	ld	r18, X+
    5c8a:	3c 91       	ld	r19, X
    5c8c:	13 97       	sbiw	r26, 0x03	; 3
    5c8e:	32 83       	std	Z+2, r19	; 0x02
    5c90:	21 83       	std	Z+1, r18	; 0x01
    5c92:	99 e0       	ldi	r25, 0x09	; 9
    5c94:	94 9f       	mul	r25, r20
    5c96:	f0 01       	movw	r30, r0
    5c98:	95 9f       	mul	r25, r21
    5c9a:	f0 0d       	add	r31, r0
    5c9c:	11 24       	eor	r1, r1
    5c9e:	e5 5c       	subi	r30, 0xC5	; 197
    5ca0:	f7 4f       	sbci	r31, 0xF7	; 247
    5ca2:	01 80       	ldd	r0, Z+1	; 0x01
    5ca4:	f2 81       	ldd	r31, Z+2	; 0x02
    5ca6:	e0 2d       	mov	r30, r0
    5ca8:	26 81       	ldd	r18, Z+6	; 0x06
    5caa:	37 81       	ldd	r19, Z+7	; 0x07
    5cac:	30 93 60 08 	sts	0x0860, r19	; 0x800860 <pxCurrentTCB+0x1>
    5cb0:	20 93 5f 08 	sts	0x085F, r18	; 0x80085f <pxCurrentTCB>
    5cb4:	80 93 0f 08 	sts	0x080F, r24	; 0x80080f <uxTopReadyPriority>
    5cb8:	08 95       	ret

00005cba <xTaskGetCurrentTaskHandle>:
    5cba:	80 91 5f 08 	lds	r24, 0x085F	; 0x80085f <pxCurrentTCB>
    5cbe:	90 91 60 08 	lds	r25, 0x0860	; 0x800860 <pxCurrentTCB+0x1>
    5cc2:	08 95       	ret

00005cc4 <ulTaskNotifyTake>:
    5cc4:	0f 93       	push	r16
    5cc6:	1f 93       	push	r17
    5cc8:	18 2f       	mov	r17, r24
    5cca:	cb 01       	movw	r24, r22
    5ccc:	0f b6       	in	r0, 0x3f	; 63
    5cce:	f8 94       	cli
    5cd0:	0f 92       	push	r0
    5cd2:	e0 91 5f 08 	lds	r30, 0x085F	; 0x80085f <pxCurrentTCB>
    5cd6:	f0 91 60 08 	lds	r31, 0x0860	; 0x800860 <pxCurrentTCB+0x1>
    5cda:	47 8d       	ldd	r20, Z+31	; 0x1f
    5cdc:	50 a1       	ldd	r21, Z+32	; 0x20
    5cde:	61 a1       	ldd	r22, Z+33	; 0x21
    5ce0:	72 a1       	ldd	r23, Z+34	; 0x22
    5ce2:	45 2b       	or	r20, r21
    5ce4:	46 2b       	or	r20, r22
    5ce6:	47 2b       	or	r20, r23
    5ce8:	59 f4       	brne	.+22     	; 0x5d00 <ulTaskNotifyTake+0x3c>
    5cea:	e0 91 5f 08 	lds	r30, 0x085F	; 0x80085f <pxCurrentTCB>
    5cee:	f0 91 60 08 	lds	r31, 0x0860	; 0x800860 <pxCurrentTCB+0x1>
    5cf2:	21 e0       	ldi	r18, 0x01	; 1
    5cf4:	23 a3       	std	Z+35, r18	; 0x23
    5cf6:	00 97       	sbiw	r24, 0x00	; 0
    5cf8:	19 f0       	breq	.+6      	; 0x5d00 <ulTaskNotifyTake+0x3c>
    5cfa:	61 e0       	ldi	r22, 0x01	; 1
    5cfc:	ae dc       	rcall	.-1700   	; 0x565a <prvAddCurrentTaskToDelayedList>
    5cfe:	d7 db       	rcall	.-2130   	; 0x54ae <vPortYield>
    5d00:	0f 90       	pop	r0
    5d02:	0f be       	out	0x3f, r0	; 63
    5d04:	0f b6       	in	r0, 0x3f	; 63
    5d06:	f8 94       	cli
    5d08:	0f 92       	push	r0
    5d0a:	e0 91 5f 08 	lds	r30, 0x085F	; 0x80085f <pxCurrentTCB>
    5d0e:	f0 91 60 08 	lds	r31, 0x0860	; 0x800860 <pxCurrentTCB+0x1>
    5d12:	67 8d       	ldd	r22, Z+31	; 0x1f
    5d14:	70 a1       	ldd	r23, Z+32	; 0x20
    5d16:	81 a1       	ldd	r24, Z+33	; 0x21
    5d18:	92 a1       	ldd	r25, Z+34	; 0x22
    5d1a:	61 15       	cp	r22, r1
    5d1c:	71 05       	cpc	r23, r1
    5d1e:	81 05       	cpc	r24, r1
    5d20:	91 05       	cpc	r25, r1
    5d22:	a9 f0       	breq	.+42     	; 0x5d4e <ulTaskNotifyTake+0x8a>
    5d24:	e0 91 5f 08 	lds	r30, 0x085F	; 0x80085f <pxCurrentTCB>
    5d28:	f0 91 60 08 	lds	r31, 0x0860	; 0x800860 <pxCurrentTCB+0x1>
    5d2c:	11 23       	and	r17, r17
    5d2e:	29 f0       	breq	.+10     	; 0x5d3a <ulTaskNotifyTake+0x76>
    5d30:	17 8e       	std	Z+31, r1	; 0x1f
    5d32:	10 a2       	std	Z+32, r1	; 0x20
    5d34:	11 a2       	std	Z+33, r1	; 0x21
    5d36:	12 a2       	std	Z+34, r1	; 0x22
    5d38:	0a c0       	rjmp	.+20     	; 0x5d4e <ulTaskNotifyTake+0x8a>
    5d3a:	8b 01       	movw	r16, r22
    5d3c:	9c 01       	movw	r18, r24
    5d3e:	01 50       	subi	r16, 0x01	; 1
    5d40:	11 09       	sbc	r17, r1
    5d42:	21 09       	sbc	r18, r1
    5d44:	31 09       	sbc	r19, r1
    5d46:	07 8f       	std	Z+31, r16	; 0x1f
    5d48:	10 a3       	std	Z+32, r17	; 0x20
    5d4a:	21 a3       	std	Z+33, r18	; 0x21
    5d4c:	32 a3       	std	Z+34, r19	; 0x22
    5d4e:	e0 91 5f 08 	lds	r30, 0x085F	; 0x80085f <pxCurrentTCB>
    5d52:	f0 91 60 08 	lds	r31, 0x0860	; 0x800860 <pxCurrentTCB+0x1>
    5d56:	13 a2       	std	Z+35, r1	; 0x23
    5d58:	0f 90       	pop	r0
    5d5a:	0f be       	out	0x3f, r0	; 63
    5d5c:	1f 91       	pop	r17
    5d5e:	0f 91       	pop	r16
    5d60:	08 95       	ret

00005d62 <vTaskNotifyGiveFromISR>:
    5d62:	ef 92       	push	r14
    5d64:	ff 92       	push	r15
    5d66:	0f 93       	push	r16
    5d68:	1f 93       	push	r17
    5d6a:	cf 93       	push	r28
    5d6c:	df 93       	push	r29
    5d6e:	fc 01       	movw	r30, r24
    5d70:	23 a1       	ldd	r18, Z+35	; 0x23
    5d72:	82 e0       	ldi	r24, 0x02	; 2
    5d74:	83 a3       	std	Z+35, r24	; 0x23
    5d76:	87 8d       	ldd	r24, Z+31	; 0x1f
    5d78:	90 a1       	ldd	r25, Z+32	; 0x20
    5d7a:	a1 a1       	ldd	r26, Z+33	; 0x21
    5d7c:	b2 a1       	ldd	r27, Z+34	; 0x22
    5d7e:	01 96       	adiw	r24, 0x01	; 1
    5d80:	a1 1d       	adc	r26, r1
    5d82:	b1 1d       	adc	r27, r1
    5d84:	87 8f       	std	Z+31, r24	; 0x1f
    5d86:	90 a3       	std	Z+32, r25	; 0x20
    5d88:	a1 a3       	std	Z+33, r26	; 0x21
    5d8a:	b2 a3       	std	Z+34, r27	; 0x22
    5d8c:	21 30       	cpi	r18, 0x01	; 1
    5d8e:	91 f5       	brne	.+100    	; 0x5df4 <vTaskNotifyGiveFromISR+0x92>
    5d90:	8b 01       	movw	r16, r22
    5d92:	ef 01       	movw	r28, r30
    5d94:	80 91 05 08 	lds	r24, 0x0805	; 0x800805 <uxSchedulerSuspended>
    5d98:	81 11       	cpse	r24, r1
    5d9a:	15 c0       	rjmp	.+42     	; 0x5dc6 <vTaskNotifyGiveFromISR+0x64>
    5d9c:	7f 01       	movw	r14, r30
    5d9e:	32 e0       	ldi	r19, 0x02	; 2
    5da0:	e3 0e       	add	r14, r19
    5da2:	f1 1c       	adc	r15, r1
    5da4:	c7 01       	movw	r24, r14
    5da6:	98 d0       	rcall	.+304    	; 0x5ed8 <uxListRemove>
    5da8:	2e 89       	ldd	r18, Y+22	; 0x16
    5daa:	80 91 0f 08 	lds	r24, 0x080F	; 0x80080f <uxTopReadyPriority>
    5dae:	82 17       	cp	r24, r18
    5db0:	10 f4       	brcc	.+4      	; 0x5db6 <vTaskNotifyGiveFromISR+0x54>
    5db2:	20 93 0f 08 	sts	0x080F, r18	; 0x80080f <uxTopReadyPriority>
    5db6:	e9 e0       	ldi	r30, 0x09	; 9
    5db8:	2e 9f       	mul	r18, r30
    5dba:	c0 01       	movw	r24, r0
    5dbc:	11 24       	eor	r1, r1
    5dbe:	b7 01       	movw	r22, r14
    5dc0:	85 5c       	subi	r24, 0xC5	; 197
    5dc2:	97 4f       	sbci	r25, 0xF7	; 247
    5dc4:	05 c0       	rjmp	.+10     	; 0x5dd0 <vTaskNotifyGiveFromISR+0x6e>
    5dc6:	bf 01       	movw	r22, r30
    5dc8:	64 5f       	subi	r22, 0xF4	; 244
    5dca:	7f 4f       	sbci	r23, 0xFF	; 255
    5dcc:	8c e1       	ldi	r24, 0x1C	; 28
    5dce:	98 e0       	ldi	r25, 0x08	; 8
    5dd0:	2a d0       	rcall	.+84     	; 0x5e26 <vListInsertEnd>
    5dd2:	e0 91 5f 08 	lds	r30, 0x085F	; 0x80085f <pxCurrentTCB>
    5dd6:	f0 91 60 08 	lds	r31, 0x0860	; 0x800860 <pxCurrentTCB+0x1>
    5dda:	9e 89       	ldd	r25, Y+22	; 0x16
    5ddc:	86 89       	ldd	r24, Z+22	; 0x16
    5dde:	89 17       	cp	r24, r25
    5de0:	48 f4       	brcc	.+18     	; 0x5df4 <vTaskNotifyGiveFromISR+0x92>
    5de2:	81 e0       	ldi	r24, 0x01	; 1
    5de4:	01 15       	cp	r16, r1
    5de6:	11 05       	cpc	r17, r1
    5de8:	19 f0       	breq	.+6      	; 0x5df0 <vTaskNotifyGiveFromISR+0x8e>
    5dea:	f8 01       	movw	r30, r16
    5dec:	80 83       	st	Z, r24
    5dee:	02 c0       	rjmp	.+4      	; 0x5df4 <vTaskNotifyGiveFromISR+0x92>
    5df0:	80 93 0c 08 	sts	0x080C, r24	; 0x80080c <xYieldPending>
    5df4:	df 91       	pop	r29
    5df6:	cf 91       	pop	r28
    5df8:	1f 91       	pop	r17
    5dfa:	0f 91       	pop	r16
    5dfc:	ff 90       	pop	r15
    5dfe:	ef 90       	pop	r14
    5e00:	08 95       	ret

00005e02 <vListInitialise>:
    5e02:	fc 01       	movw	r30, r24
    5e04:	03 96       	adiw	r24, 0x03	; 3
    5e06:	92 83       	std	Z+2, r25	; 0x02
    5e08:	81 83       	std	Z+1, r24	; 0x01
    5e0a:	2f ef       	ldi	r18, 0xFF	; 255
    5e0c:	3f ef       	ldi	r19, 0xFF	; 255
    5e0e:	34 83       	std	Z+4, r19	; 0x04
    5e10:	23 83       	std	Z+3, r18	; 0x03
    5e12:	96 83       	std	Z+6, r25	; 0x06
    5e14:	85 83       	std	Z+5, r24	; 0x05
    5e16:	90 87       	std	Z+8, r25	; 0x08
    5e18:	87 83       	std	Z+7, r24	; 0x07
    5e1a:	10 82       	st	Z, r1
    5e1c:	08 95       	ret

00005e1e <vListInitialiseItem>:
    5e1e:	fc 01       	movw	r30, r24
    5e20:	11 86       	std	Z+9, r1	; 0x09
    5e22:	10 86       	std	Z+8, r1	; 0x08
    5e24:	08 95       	ret

00005e26 <vListInsertEnd>:
    5e26:	cf 93       	push	r28
    5e28:	df 93       	push	r29
    5e2a:	9c 01       	movw	r18, r24
    5e2c:	fb 01       	movw	r30, r22
    5e2e:	dc 01       	movw	r26, r24
    5e30:	11 96       	adiw	r26, 0x01	; 1
    5e32:	cd 91       	ld	r28, X+
    5e34:	dc 91       	ld	r29, X
    5e36:	12 97       	sbiw	r26, 0x02	; 2
    5e38:	d3 83       	std	Z+3, r29	; 0x03
    5e3a:	c2 83       	std	Z+2, r28	; 0x02
    5e3c:	8c 81       	ldd	r24, Y+4	; 0x04
    5e3e:	9d 81       	ldd	r25, Y+5	; 0x05
    5e40:	95 83       	std	Z+5, r25	; 0x05
    5e42:	84 83       	std	Z+4, r24	; 0x04
    5e44:	8c 81       	ldd	r24, Y+4	; 0x04
    5e46:	9d 81       	ldd	r25, Y+5	; 0x05
    5e48:	dc 01       	movw	r26, r24
    5e4a:	13 96       	adiw	r26, 0x03	; 3
    5e4c:	7c 93       	st	X, r23
    5e4e:	6e 93       	st	-X, r22
    5e50:	12 97       	sbiw	r26, 0x02	; 2
    5e52:	7d 83       	std	Y+5, r23	; 0x05
    5e54:	6c 83       	std	Y+4, r22	; 0x04
    5e56:	31 87       	std	Z+9, r19	; 0x09
    5e58:	20 87       	std	Z+8, r18	; 0x08
    5e5a:	f9 01       	movw	r30, r18
    5e5c:	80 81       	ld	r24, Z
    5e5e:	8f 5f       	subi	r24, 0xFF	; 255
    5e60:	80 83       	st	Z, r24
    5e62:	df 91       	pop	r29
    5e64:	cf 91       	pop	r28
    5e66:	08 95       	ret

00005e68 <vListInsert>:
    5e68:	0f 93       	push	r16
    5e6a:	1f 93       	push	r17
    5e6c:	cf 93       	push	r28
    5e6e:	df 93       	push	r29
    5e70:	8c 01       	movw	r16, r24
    5e72:	fb 01       	movw	r30, r22
    5e74:	80 81       	ld	r24, Z
    5e76:	91 81       	ldd	r25, Z+1	; 0x01
    5e78:	8f 3f       	cpi	r24, 0xFF	; 255
    5e7a:	2f ef       	ldi	r18, 0xFF	; 255
    5e7c:	92 07       	cpc	r25, r18
    5e7e:	21 f4       	brne	.+8      	; 0x5e88 <vListInsert+0x20>
    5e80:	e8 01       	movw	r28, r16
    5e82:	af 81       	ldd	r26, Y+7	; 0x07
    5e84:	b8 85       	ldd	r27, Y+8	; 0x08
    5e86:	0e c0       	rjmp	.+28     	; 0x5ea4 <vListInsert+0x3c>
    5e88:	d8 01       	movw	r26, r16
    5e8a:	13 96       	adiw	r26, 0x03	; 3
    5e8c:	12 96       	adiw	r26, 0x02	; 2
    5e8e:	2d 91       	ld	r18, X+
    5e90:	3c 91       	ld	r19, X
    5e92:	13 97       	sbiw	r26, 0x03	; 3
    5e94:	e9 01       	movw	r28, r18
    5e96:	48 81       	ld	r20, Y
    5e98:	59 81       	ldd	r21, Y+1	; 0x01
    5e9a:	84 17       	cp	r24, r20
    5e9c:	95 07       	cpc	r25, r21
    5e9e:	10 f0       	brcs	.+4      	; 0x5ea4 <vListInsert+0x3c>
    5ea0:	d9 01       	movw	r26, r18
    5ea2:	f4 cf       	rjmp	.-24     	; 0x5e8c <vListInsert+0x24>
    5ea4:	12 96       	adiw	r26, 0x02	; 2
    5ea6:	8d 91       	ld	r24, X+
    5ea8:	9c 91       	ld	r25, X
    5eaa:	13 97       	sbiw	r26, 0x03	; 3
    5eac:	93 83       	std	Z+3, r25	; 0x03
    5eae:	82 83       	std	Z+2, r24	; 0x02
    5eb0:	ec 01       	movw	r28, r24
    5eb2:	fd 83       	std	Y+5, r31	; 0x05
    5eb4:	ec 83       	std	Y+4, r30	; 0x04
    5eb6:	b5 83       	std	Z+5, r27	; 0x05
    5eb8:	a4 83       	std	Z+4, r26	; 0x04
    5eba:	13 96       	adiw	r26, 0x03	; 3
    5ebc:	fc 93       	st	X, r31
    5ebe:	ee 93       	st	-X, r30
    5ec0:	12 97       	sbiw	r26, 0x02	; 2
    5ec2:	11 87       	std	Z+9, r17	; 0x09
    5ec4:	00 87       	std	Z+8, r16	; 0x08
    5ec6:	f8 01       	movw	r30, r16
    5ec8:	80 81       	ld	r24, Z
    5eca:	8f 5f       	subi	r24, 0xFF	; 255
    5ecc:	80 83       	st	Z, r24
    5ece:	df 91       	pop	r29
    5ed0:	cf 91       	pop	r28
    5ed2:	1f 91       	pop	r17
    5ed4:	0f 91       	pop	r16
    5ed6:	08 95       	ret

00005ed8 <uxListRemove>:
    5ed8:	cf 93       	push	r28
    5eda:	df 93       	push	r29
    5edc:	fc 01       	movw	r30, r24
    5ede:	a0 85       	ldd	r26, Z+8	; 0x08
    5ee0:	b1 85       	ldd	r27, Z+9	; 0x09
    5ee2:	82 81       	ldd	r24, Z+2	; 0x02
    5ee4:	93 81       	ldd	r25, Z+3	; 0x03
    5ee6:	24 81       	ldd	r18, Z+4	; 0x04
    5ee8:	35 81       	ldd	r19, Z+5	; 0x05
    5eea:	ec 01       	movw	r28, r24
    5eec:	3d 83       	std	Y+5, r19	; 0x05
    5eee:	2c 83       	std	Y+4, r18	; 0x04
    5ef0:	c4 81       	ldd	r28, Z+4	; 0x04
    5ef2:	d5 81       	ldd	r29, Z+5	; 0x05
    5ef4:	9b 83       	std	Y+3, r25	; 0x03
    5ef6:	8a 83       	std	Y+2, r24	; 0x02
    5ef8:	11 96       	adiw	r26, 0x01	; 1
    5efa:	8d 91       	ld	r24, X+
    5efc:	9c 91       	ld	r25, X
    5efe:	12 97       	sbiw	r26, 0x02	; 2
    5f00:	8e 17       	cp	r24, r30
    5f02:	9f 07       	cpc	r25, r31
    5f04:	21 f4       	brne	.+8      	; 0x5f0e <uxListRemove+0x36>
    5f06:	12 96       	adiw	r26, 0x02	; 2
    5f08:	dc 93       	st	X, r29
    5f0a:	ce 93       	st	-X, r28
    5f0c:	11 97       	sbiw	r26, 0x01	; 1
    5f0e:	11 86       	std	Z+9, r1	; 0x09
    5f10:	10 86       	std	Z+8, r1	; 0x08
    5f12:	8c 91       	ld	r24, X
    5f14:	81 50       	subi	r24, 0x01	; 1
    5f16:	8c 93       	st	X, r24
    5f18:	df 91       	pop	r29
    5f1a:	cf 91       	pop	r28
    5f1c:	08 95       	ret

00005f1e <__udivmodqi4>:
    5f1e:	99 1b       	sub	r25, r25
    5f20:	79 e0       	ldi	r23, 0x09	; 9
    5f22:	04 c0       	rjmp	.+8      	; 0x5f2c <__udivmodqi4_ep>

00005f24 <__udivmodqi4_loop>:
    5f24:	99 1f       	adc	r25, r25
    5f26:	96 17       	cp	r25, r22
    5f28:	08 f0       	brcs	.+2      	; 0x5f2c <__udivmodqi4_ep>
    5f2a:	96 1b       	sub	r25, r22

00005f2c <__udivmodqi4_ep>:
    5f2c:	88 1f       	adc	r24, r24
    5f2e:	7a 95       	dec	r23
    5f30:	c9 f7       	brne	.-14     	; 0x5f24 <__udivmodqi4_loop>
    5f32:	80 95       	com	r24
    5f34:	08 95       	ret

00005f36 <__udivmodhi4>:
    5f36:	aa 1b       	sub	r26, r26
    5f38:	bb 1b       	sub	r27, r27
    5f3a:	51 e1       	ldi	r21, 0x11	; 17
    5f3c:	07 c0       	rjmp	.+14     	; 0x5f4c <__udivmodhi4_ep>

00005f3e <__udivmodhi4_loop>:
    5f3e:	aa 1f       	adc	r26, r26
    5f40:	bb 1f       	adc	r27, r27
    5f42:	a6 17       	cp	r26, r22
    5f44:	b7 07       	cpc	r27, r23
    5f46:	10 f0       	brcs	.+4      	; 0x5f4c <__udivmodhi4_ep>
    5f48:	a6 1b       	sub	r26, r22
    5f4a:	b7 0b       	sbc	r27, r23

00005f4c <__udivmodhi4_ep>:
    5f4c:	88 1f       	adc	r24, r24
    5f4e:	99 1f       	adc	r25, r25
    5f50:	5a 95       	dec	r21
    5f52:	a9 f7       	brne	.-22     	; 0x5f3e <__udivmodhi4_loop>
    5f54:	80 95       	com	r24
    5f56:	90 95       	com	r25
    5f58:	bc 01       	movw	r22, r24
    5f5a:	cd 01       	movw	r24, r26
    5f5c:	08 95       	ret

00005f5e <__udivmodsi4>:
    5f5e:	a1 e2       	ldi	r26, 0x21	; 33
    5f60:	1a 2e       	mov	r1, r26
    5f62:	aa 1b       	sub	r26, r26
    5f64:	bb 1b       	sub	r27, r27
    5f66:	fd 01       	movw	r30, r26
    5f68:	0d c0       	rjmp	.+26     	; 0x5f84 <__udivmodsi4_ep>

00005f6a <__udivmodsi4_loop>:
    5f6a:	aa 1f       	adc	r26, r26
    5f6c:	bb 1f       	adc	r27, r27
    5f6e:	ee 1f       	adc	r30, r30
    5f70:	ff 1f       	adc	r31, r31
    5f72:	a2 17       	cp	r26, r18
    5f74:	b3 07       	cpc	r27, r19
    5f76:	e4 07       	cpc	r30, r20
    5f78:	f5 07       	cpc	r31, r21
    5f7a:	20 f0       	brcs	.+8      	; 0x5f84 <__udivmodsi4_ep>
    5f7c:	a2 1b       	sub	r26, r18
    5f7e:	b3 0b       	sbc	r27, r19
    5f80:	e4 0b       	sbc	r30, r20
    5f82:	f5 0b       	sbc	r31, r21

00005f84 <__udivmodsi4_ep>:
    5f84:	66 1f       	adc	r22, r22
    5f86:	77 1f       	adc	r23, r23
    5f88:	88 1f       	adc	r24, r24
    5f8a:	99 1f       	adc	r25, r25
    5f8c:	1a 94       	dec	r1
    5f8e:	69 f7       	brne	.-38     	; 0x5f6a <__udivmodsi4_loop>
    5f90:	60 95       	com	r22
    5f92:	70 95       	com	r23
    5f94:	80 95       	com	r24
    5f96:	90 95       	com	r25
    5f98:	9b 01       	movw	r18, r22
    5f9a:	ac 01       	movw	r20, r24
    5f9c:	bd 01       	movw	r22, r26
    5f9e:	cf 01       	movw	r24, r30
    5fa0:	08 95       	ret

00005fa2 <__tablejump2__>:
    5fa2:	ee 0f       	add	r30, r30
    5fa4:	ff 1f       	adc	r31, r31
    5fa6:	05 90       	lpm	r0, Z+
    5fa8:	f4 91       	lpm	r31, Z
    5faa:	e0 2d       	mov	r30, r0
    5fac:	09 94       	ijmp

00005fae <__muluhisi3>:
    5fae:	40 d0       	rcall	.+128    	; 0x6030 <__umulhisi3>
    5fb0:	a5 9f       	mul	r26, r21
    5fb2:	90 0d       	add	r25, r0
    5fb4:	b4 9f       	mul	r27, r20
    5fb6:	90 0d       	add	r25, r0
    5fb8:	a4 9f       	mul	r26, r20
    5fba:	80 0d       	add	r24, r0
    5fbc:	91 1d       	adc	r25, r1
    5fbe:	11 24       	eor	r1, r1
    5fc0:	08 95       	ret

00005fc2 <__prologue_saves__>:
    5fc2:	2f 92       	push	r2
    5fc4:	3f 92       	push	r3
    5fc6:	4f 92       	push	r4
    5fc8:	5f 92       	push	r5
    5fca:	6f 92       	push	r6
    5fcc:	7f 92       	push	r7
    5fce:	8f 92       	push	r8
    5fd0:	9f 92       	push	r9
    5fd2:	af 92       	push	r10
    5fd4:	bf 92       	push	r11
    5fd6:	cf 92       	push	r12
    5fd8:	df 92       	push	r13
    5fda:	ef 92       	push	r14
    5fdc:	ff 92       	push	r15
    5fde:	0f 93       	push	r16
    5fe0:	1f 93       	push	r17
    5fe2:	cf 93       	push	r28
    5fe4:	df 93       	push	r29
    5fe6:	cd b7       	in	r28, 0x3d	; 61
    5fe8:	de b7       	in	r29, 0x3e	; 62
    5fea:	ca 1b       	sub	r28, r26
    5fec:	db 0b       	sbc	r29, r27
    5fee:	0f b6       	in	r0, 0x3f	; 63
    5ff0:	f8 94       	cli
    5ff2:	de bf       	out	0x3e, r29	; 62
    5ff4:	0f be       	out	0x3f, r0	; 63
    5ff6:	cd bf       	out	0x3d, r28	; 61
    5ff8:	09 94       	ijmp

00005ffa <__epilogue_restores__>:
    5ffa:	2a 88       	ldd	r2, Y+18	; 0x12
    5ffc:	39 88       	ldd	r3, Y+17	; 0x11
    5ffe:	48 88       	ldd	r4, Y+16	; 0x10
    6000:	5f 84       	ldd	r5, Y+15	; 0x0f
    6002:	6e 84       	ldd	r6, Y+14	; 0x0e
    6004:	7d 84       	ldd	r7, Y+13	; 0x0d
    6006:	8c 84       	ldd	r8, Y+12	; 0x0c
    6008:	9b 84       	ldd	r9, Y+11	; 0x0b
    600a:	aa 84       	ldd	r10, Y+10	; 0x0a
    600c:	b9 84       	ldd	r11, Y+9	; 0x09
    600e:	c8 84       	ldd	r12, Y+8	; 0x08
    6010:	df 80       	ldd	r13, Y+7	; 0x07
    6012:	ee 80       	ldd	r14, Y+6	; 0x06
    6014:	fd 80       	ldd	r15, Y+5	; 0x05
    6016:	0c 81       	ldd	r16, Y+4	; 0x04
    6018:	1b 81       	ldd	r17, Y+3	; 0x03
    601a:	aa 81       	ldd	r26, Y+2	; 0x02
    601c:	b9 81       	ldd	r27, Y+1	; 0x01
    601e:	ce 0f       	add	r28, r30
    6020:	d1 1d       	adc	r29, r1
    6022:	0f b6       	in	r0, 0x3f	; 63
    6024:	f8 94       	cli
    6026:	de bf       	out	0x3e, r29	; 62
    6028:	0f be       	out	0x3f, r0	; 63
    602a:	cd bf       	out	0x3d, r28	; 61
    602c:	ed 01       	movw	r28, r26
    602e:	08 95       	ret

00006030 <__umulhisi3>:
    6030:	a2 9f       	mul	r26, r18
    6032:	b0 01       	movw	r22, r0
    6034:	b3 9f       	mul	r27, r19
    6036:	c0 01       	movw	r24, r0
    6038:	a3 9f       	mul	r26, r19
    603a:	70 0d       	add	r23, r0
    603c:	81 1d       	adc	r24, r1
    603e:	11 24       	eor	r1, r1
    6040:	91 1d       	adc	r25, r1
    6042:	b2 9f       	mul	r27, r18
    6044:	70 0d       	add	r23, r0
    6046:	81 1d       	adc	r24, r1
    6048:	11 24       	eor	r1, r1
    604a:	91 1d       	adc	r25, r1
    604c:	08 95       	ret

0000604e <__subsf3>:
    604e:	50 58       	subi	r21, 0x80	; 128

00006050 <__addsf3>:
    6050:	bb 27       	eor	r27, r27
    6052:	aa 27       	eor	r26, r26
    6054:	0e d0       	rcall	.+28     	; 0x6072 <__addsf3x>
    6056:	e5 c0       	rjmp	.+458    	; 0x6222 <__fp_round>
    6058:	d6 d0       	rcall	.+428    	; 0x6206 <__fp_pscA>
    605a:	30 f0       	brcs	.+12     	; 0x6068 <__addsf3+0x18>
    605c:	db d0       	rcall	.+438    	; 0x6214 <__fp_pscB>
    605e:	20 f0       	brcs	.+8      	; 0x6068 <__addsf3+0x18>
    6060:	31 f4       	brne	.+12     	; 0x606e <__addsf3+0x1e>
    6062:	9f 3f       	cpi	r25, 0xFF	; 255
    6064:	11 f4       	brne	.+4      	; 0x606a <__addsf3+0x1a>
    6066:	1e f4       	brtc	.+6      	; 0x606e <__addsf3+0x1e>
    6068:	cb c0       	rjmp	.+406    	; 0x6200 <__fp_nan>
    606a:	0e f4       	brtc	.+2      	; 0x606e <__addsf3+0x1e>
    606c:	e0 95       	com	r30
    606e:	e7 fb       	bst	r30, 7
    6070:	c1 c0       	rjmp	.+386    	; 0x61f4 <__fp_inf>

00006072 <__addsf3x>:
    6072:	e9 2f       	mov	r30, r25
    6074:	e7 d0       	rcall	.+462    	; 0x6244 <__fp_split3>
    6076:	80 f3       	brcs	.-32     	; 0x6058 <__addsf3+0x8>
    6078:	ba 17       	cp	r27, r26
    607a:	62 07       	cpc	r22, r18
    607c:	73 07       	cpc	r23, r19
    607e:	84 07       	cpc	r24, r20
    6080:	95 07       	cpc	r25, r21
    6082:	18 f0       	brcs	.+6      	; 0x608a <__addsf3x+0x18>
    6084:	71 f4       	brne	.+28     	; 0x60a2 <__addsf3x+0x30>
    6086:	9e f5       	brtc	.+102    	; 0x60ee <__addsf3x+0x7c>
    6088:	ff c0       	rjmp	.+510    	; 0x6288 <__fp_zero>
    608a:	0e f4       	brtc	.+2      	; 0x608e <__addsf3x+0x1c>
    608c:	e0 95       	com	r30
    608e:	0b 2e       	mov	r0, r27
    6090:	ba 2f       	mov	r27, r26
    6092:	a0 2d       	mov	r26, r0
    6094:	0b 01       	movw	r0, r22
    6096:	b9 01       	movw	r22, r18
    6098:	90 01       	movw	r18, r0
    609a:	0c 01       	movw	r0, r24
    609c:	ca 01       	movw	r24, r20
    609e:	a0 01       	movw	r20, r0
    60a0:	11 24       	eor	r1, r1
    60a2:	ff 27       	eor	r31, r31
    60a4:	59 1b       	sub	r21, r25
    60a6:	99 f0       	breq	.+38     	; 0x60ce <__addsf3x+0x5c>
    60a8:	59 3f       	cpi	r21, 0xF9	; 249
    60aa:	50 f4       	brcc	.+20     	; 0x60c0 <__addsf3x+0x4e>
    60ac:	50 3e       	cpi	r21, 0xE0	; 224
    60ae:	68 f1       	brcs	.+90     	; 0x610a <__addsf3x+0x98>
    60b0:	1a 16       	cp	r1, r26
    60b2:	f0 40       	sbci	r31, 0x00	; 0
    60b4:	a2 2f       	mov	r26, r18
    60b6:	23 2f       	mov	r18, r19
    60b8:	34 2f       	mov	r19, r20
    60ba:	44 27       	eor	r20, r20
    60bc:	58 5f       	subi	r21, 0xF8	; 248
    60be:	f3 cf       	rjmp	.-26     	; 0x60a6 <__addsf3x+0x34>
    60c0:	46 95       	lsr	r20
    60c2:	37 95       	ror	r19
    60c4:	27 95       	ror	r18
    60c6:	a7 95       	ror	r26
    60c8:	f0 40       	sbci	r31, 0x00	; 0
    60ca:	53 95       	inc	r21
    60cc:	c9 f7       	brne	.-14     	; 0x60c0 <__addsf3x+0x4e>
    60ce:	7e f4       	brtc	.+30     	; 0x60ee <__addsf3x+0x7c>
    60d0:	1f 16       	cp	r1, r31
    60d2:	ba 0b       	sbc	r27, r26
    60d4:	62 0b       	sbc	r22, r18
    60d6:	73 0b       	sbc	r23, r19
    60d8:	84 0b       	sbc	r24, r20
    60da:	ba f0       	brmi	.+46     	; 0x610a <__addsf3x+0x98>
    60dc:	91 50       	subi	r25, 0x01	; 1
    60de:	a1 f0       	breq	.+40     	; 0x6108 <__addsf3x+0x96>
    60e0:	ff 0f       	add	r31, r31
    60e2:	bb 1f       	adc	r27, r27
    60e4:	66 1f       	adc	r22, r22
    60e6:	77 1f       	adc	r23, r23
    60e8:	88 1f       	adc	r24, r24
    60ea:	c2 f7       	brpl	.-16     	; 0x60dc <__addsf3x+0x6a>
    60ec:	0e c0       	rjmp	.+28     	; 0x610a <__addsf3x+0x98>
    60ee:	ba 0f       	add	r27, r26
    60f0:	62 1f       	adc	r22, r18
    60f2:	73 1f       	adc	r23, r19
    60f4:	84 1f       	adc	r24, r20
    60f6:	48 f4       	brcc	.+18     	; 0x610a <__addsf3x+0x98>
    60f8:	87 95       	ror	r24
    60fa:	77 95       	ror	r23
    60fc:	67 95       	ror	r22
    60fe:	b7 95       	ror	r27
    6100:	f7 95       	ror	r31
    6102:	9e 3f       	cpi	r25, 0xFE	; 254
    6104:	08 f0       	brcs	.+2      	; 0x6108 <__addsf3x+0x96>
    6106:	b3 cf       	rjmp	.-154    	; 0x606e <__addsf3+0x1e>
    6108:	93 95       	inc	r25
    610a:	88 0f       	add	r24, r24
    610c:	08 f0       	brcs	.+2      	; 0x6110 <__addsf3x+0x9e>
    610e:	99 27       	eor	r25, r25
    6110:	ee 0f       	add	r30, r30
    6112:	97 95       	ror	r25
    6114:	87 95       	ror	r24
    6116:	08 95       	ret

00006118 <__fixsfsi>:
    6118:	04 d0       	rcall	.+8      	; 0x6122 <__fixunssfsi>
    611a:	68 94       	set
    611c:	b1 11       	cpse	r27, r1
    611e:	b5 c0       	rjmp	.+362    	; 0x628a <__fp_szero>
    6120:	08 95       	ret

00006122 <__fixunssfsi>:
    6122:	98 d0       	rcall	.+304    	; 0x6254 <__fp_splitA>
    6124:	88 f0       	brcs	.+34     	; 0x6148 <__fixunssfsi+0x26>
    6126:	9f 57       	subi	r25, 0x7F	; 127
    6128:	90 f0       	brcs	.+36     	; 0x614e <__fixunssfsi+0x2c>
    612a:	b9 2f       	mov	r27, r25
    612c:	99 27       	eor	r25, r25
    612e:	b7 51       	subi	r27, 0x17	; 23
    6130:	a0 f0       	brcs	.+40     	; 0x615a <__fixunssfsi+0x38>
    6132:	d1 f0       	breq	.+52     	; 0x6168 <__fixunssfsi+0x46>
    6134:	66 0f       	add	r22, r22
    6136:	77 1f       	adc	r23, r23
    6138:	88 1f       	adc	r24, r24
    613a:	99 1f       	adc	r25, r25
    613c:	1a f0       	brmi	.+6      	; 0x6144 <__fixunssfsi+0x22>
    613e:	ba 95       	dec	r27
    6140:	c9 f7       	brne	.-14     	; 0x6134 <__fixunssfsi+0x12>
    6142:	12 c0       	rjmp	.+36     	; 0x6168 <__fixunssfsi+0x46>
    6144:	b1 30       	cpi	r27, 0x01	; 1
    6146:	81 f0       	breq	.+32     	; 0x6168 <__fixunssfsi+0x46>
    6148:	9f d0       	rcall	.+318    	; 0x6288 <__fp_zero>
    614a:	b1 e0       	ldi	r27, 0x01	; 1
    614c:	08 95       	ret
    614e:	9c c0       	rjmp	.+312    	; 0x6288 <__fp_zero>
    6150:	67 2f       	mov	r22, r23
    6152:	78 2f       	mov	r23, r24
    6154:	88 27       	eor	r24, r24
    6156:	b8 5f       	subi	r27, 0xF8	; 248
    6158:	39 f0       	breq	.+14     	; 0x6168 <__fixunssfsi+0x46>
    615a:	b9 3f       	cpi	r27, 0xF9	; 249
    615c:	cc f3       	brlt	.-14     	; 0x6150 <__fixunssfsi+0x2e>
    615e:	86 95       	lsr	r24
    6160:	77 95       	ror	r23
    6162:	67 95       	ror	r22
    6164:	b3 95       	inc	r27
    6166:	d9 f7       	brne	.-10     	; 0x615e <__fixunssfsi+0x3c>
    6168:	3e f4       	brtc	.+14     	; 0x6178 <__fixunssfsi+0x56>
    616a:	90 95       	com	r25
    616c:	80 95       	com	r24
    616e:	70 95       	com	r23
    6170:	61 95       	neg	r22
    6172:	7f 4f       	sbci	r23, 0xFF	; 255
    6174:	8f 4f       	sbci	r24, 0xFF	; 255
    6176:	9f 4f       	sbci	r25, 0xFF	; 255
    6178:	08 95       	ret

0000617a <__floatunsisf>:
    617a:	e8 94       	clt
    617c:	09 c0       	rjmp	.+18     	; 0x6190 <__floatsisf+0x12>

0000617e <__floatsisf>:
    617e:	97 fb       	bst	r25, 7
    6180:	3e f4       	brtc	.+14     	; 0x6190 <__floatsisf+0x12>
    6182:	90 95       	com	r25
    6184:	80 95       	com	r24
    6186:	70 95       	com	r23
    6188:	61 95       	neg	r22
    618a:	7f 4f       	sbci	r23, 0xFF	; 255
    618c:	8f 4f       	sbci	r24, 0xFF	; 255
    618e:	9f 4f       	sbci	r25, 0xFF	; 255
    6190:	99 23       	and	r25, r25
    6192:	a9 f0       	breq	.+42     	; 0x61be <__floatsisf+0x40>
    6194:	f9 2f       	mov	r31, r25
    6196:	96 e9       	ldi	r25, 0x96	; 150
    6198:	bb 27       	eor	r27, r27
    619a:	93 95       	inc	r25
    619c:	f6 95       	lsr	r31
    619e:	87 95       	ror	r24
    61a0:	77 95       	ror	r23
    61a2:	67 95       	ror	r22
    61a4:	b7 95       	ror	r27
    61a6:	f1 11       	cpse	r31, r1
    61a8:	f8 cf       	rjmp	.-16     	; 0x619a <__floatsisf+0x1c>
    61aa:	fa f4       	brpl	.+62     	; 0x61ea <__floatsisf+0x6c>
    61ac:	bb 0f       	add	r27, r27
    61ae:	11 f4       	brne	.+4      	; 0x61b4 <__floatsisf+0x36>
    61b0:	60 ff       	sbrs	r22, 0
    61b2:	1b c0       	rjmp	.+54     	; 0x61ea <__floatsisf+0x6c>
    61b4:	6f 5f       	subi	r22, 0xFF	; 255
    61b6:	7f 4f       	sbci	r23, 0xFF	; 255
    61b8:	8f 4f       	sbci	r24, 0xFF	; 255
    61ba:	9f 4f       	sbci	r25, 0xFF	; 255
    61bc:	16 c0       	rjmp	.+44     	; 0x61ea <__floatsisf+0x6c>
    61be:	88 23       	and	r24, r24
    61c0:	11 f0       	breq	.+4      	; 0x61c6 <__floatsisf+0x48>
    61c2:	96 e9       	ldi	r25, 0x96	; 150
    61c4:	11 c0       	rjmp	.+34     	; 0x61e8 <__floatsisf+0x6a>
    61c6:	77 23       	and	r23, r23
    61c8:	21 f0       	breq	.+8      	; 0x61d2 <__floatsisf+0x54>
    61ca:	9e e8       	ldi	r25, 0x8E	; 142
    61cc:	87 2f       	mov	r24, r23
    61ce:	76 2f       	mov	r23, r22
    61d0:	05 c0       	rjmp	.+10     	; 0x61dc <__floatsisf+0x5e>
    61d2:	66 23       	and	r22, r22
    61d4:	71 f0       	breq	.+28     	; 0x61f2 <__floatsisf+0x74>
    61d6:	96 e8       	ldi	r25, 0x86	; 134
    61d8:	86 2f       	mov	r24, r22
    61da:	70 e0       	ldi	r23, 0x00	; 0
    61dc:	60 e0       	ldi	r22, 0x00	; 0
    61de:	2a f0       	brmi	.+10     	; 0x61ea <__floatsisf+0x6c>
    61e0:	9a 95       	dec	r25
    61e2:	66 0f       	add	r22, r22
    61e4:	77 1f       	adc	r23, r23
    61e6:	88 1f       	adc	r24, r24
    61e8:	da f7       	brpl	.-10     	; 0x61e0 <__floatsisf+0x62>
    61ea:	88 0f       	add	r24, r24
    61ec:	96 95       	lsr	r25
    61ee:	87 95       	ror	r24
    61f0:	97 f9       	bld	r25, 7
    61f2:	08 95       	ret

000061f4 <__fp_inf>:
    61f4:	97 f9       	bld	r25, 7
    61f6:	9f 67       	ori	r25, 0x7F	; 127
    61f8:	80 e8       	ldi	r24, 0x80	; 128
    61fa:	70 e0       	ldi	r23, 0x00	; 0
    61fc:	60 e0       	ldi	r22, 0x00	; 0
    61fe:	08 95       	ret

00006200 <__fp_nan>:
    6200:	9f ef       	ldi	r25, 0xFF	; 255
    6202:	80 ec       	ldi	r24, 0xC0	; 192
    6204:	08 95       	ret

00006206 <__fp_pscA>:
    6206:	00 24       	eor	r0, r0
    6208:	0a 94       	dec	r0
    620a:	16 16       	cp	r1, r22
    620c:	17 06       	cpc	r1, r23
    620e:	18 06       	cpc	r1, r24
    6210:	09 06       	cpc	r0, r25
    6212:	08 95       	ret

00006214 <__fp_pscB>:
    6214:	00 24       	eor	r0, r0
    6216:	0a 94       	dec	r0
    6218:	12 16       	cp	r1, r18
    621a:	13 06       	cpc	r1, r19
    621c:	14 06       	cpc	r1, r20
    621e:	05 06       	cpc	r0, r21
    6220:	08 95       	ret

00006222 <__fp_round>:
    6222:	09 2e       	mov	r0, r25
    6224:	03 94       	inc	r0
    6226:	00 0c       	add	r0, r0
    6228:	11 f4       	brne	.+4      	; 0x622e <__fp_round+0xc>
    622a:	88 23       	and	r24, r24
    622c:	52 f0       	brmi	.+20     	; 0x6242 <__fp_round+0x20>
    622e:	bb 0f       	add	r27, r27
    6230:	40 f4       	brcc	.+16     	; 0x6242 <__fp_round+0x20>
    6232:	bf 2b       	or	r27, r31
    6234:	11 f4       	brne	.+4      	; 0x623a <__fp_round+0x18>
    6236:	60 ff       	sbrs	r22, 0
    6238:	04 c0       	rjmp	.+8      	; 0x6242 <__fp_round+0x20>
    623a:	6f 5f       	subi	r22, 0xFF	; 255
    623c:	7f 4f       	sbci	r23, 0xFF	; 255
    623e:	8f 4f       	sbci	r24, 0xFF	; 255
    6240:	9f 4f       	sbci	r25, 0xFF	; 255
    6242:	08 95       	ret

00006244 <__fp_split3>:
    6244:	57 fd       	sbrc	r21, 7
    6246:	90 58       	subi	r25, 0x80	; 128
    6248:	44 0f       	add	r20, r20
    624a:	55 1f       	adc	r21, r21
    624c:	59 f0       	breq	.+22     	; 0x6264 <__fp_splitA+0x10>
    624e:	5f 3f       	cpi	r21, 0xFF	; 255
    6250:	71 f0       	breq	.+28     	; 0x626e <__fp_splitA+0x1a>
    6252:	47 95       	ror	r20

00006254 <__fp_splitA>:
    6254:	88 0f       	add	r24, r24
    6256:	97 fb       	bst	r25, 7
    6258:	99 1f       	adc	r25, r25
    625a:	61 f0       	breq	.+24     	; 0x6274 <__fp_splitA+0x20>
    625c:	9f 3f       	cpi	r25, 0xFF	; 255
    625e:	79 f0       	breq	.+30     	; 0x627e <__fp_splitA+0x2a>
    6260:	87 95       	ror	r24
    6262:	08 95       	ret
    6264:	12 16       	cp	r1, r18
    6266:	13 06       	cpc	r1, r19
    6268:	14 06       	cpc	r1, r20
    626a:	55 1f       	adc	r21, r21
    626c:	f2 cf       	rjmp	.-28     	; 0x6252 <__fp_split3+0xe>
    626e:	46 95       	lsr	r20
    6270:	f1 df       	rcall	.-30     	; 0x6254 <__fp_splitA>
    6272:	08 c0       	rjmp	.+16     	; 0x6284 <__fp_splitA+0x30>
    6274:	16 16       	cp	r1, r22
    6276:	17 06       	cpc	r1, r23
    6278:	18 06       	cpc	r1, r24
    627a:	99 1f       	adc	r25, r25
    627c:	f1 cf       	rjmp	.-30     	; 0x6260 <__fp_splitA+0xc>
    627e:	86 95       	lsr	r24
    6280:	71 05       	cpc	r23, r1
    6282:	61 05       	cpc	r22, r1
    6284:	08 94       	sec
    6286:	08 95       	ret

00006288 <__fp_zero>:
    6288:	e8 94       	clt

0000628a <__fp_szero>:
    628a:	bb 27       	eor	r27, r27
    628c:	66 27       	eor	r22, r22
    628e:	77 27       	eor	r23, r23
    6290:	cb 01       	movw	r24, r22
    6292:	97 f9       	bld	r25, 7
    6294:	08 95       	ret

00006296 <__mulsf3>:
    6296:	0b d0       	rcall	.+22     	; 0x62ae <__mulsf3x>
    6298:	c4 cf       	rjmp	.-120    	; 0x6222 <__fp_round>
    629a:	b5 df       	rcall	.-150    	; 0x6206 <__fp_pscA>
    629c:	28 f0       	brcs	.+10     	; 0x62a8 <__mulsf3+0x12>
    629e:	ba df       	rcall	.-140    	; 0x6214 <__fp_pscB>
    62a0:	18 f0       	brcs	.+6      	; 0x62a8 <__mulsf3+0x12>
    62a2:	95 23       	and	r25, r21
    62a4:	09 f0       	breq	.+2      	; 0x62a8 <__mulsf3+0x12>
    62a6:	a6 cf       	rjmp	.-180    	; 0x61f4 <__fp_inf>
    62a8:	ab cf       	rjmp	.-170    	; 0x6200 <__fp_nan>
    62aa:	11 24       	eor	r1, r1
    62ac:	ee cf       	rjmp	.-36     	; 0x628a <__fp_szero>

000062ae <__mulsf3x>:
    62ae:	ca df       	rcall	.-108    	; 0x6244 <__fp_split3>
    62b0:	a0 f3       	brcs	.-24     	; 0x629a <__mulsf3+0x4>

000062b2 <__mulsf3_pse>:
    62b2:	95 9f       	mul	r25, r21
    62b4:	d1 f3       	breq	.-12     	; 0x62aa <__mulsf3+0x14>
    62b6:	95 0f       	add	r25, r21
    62b8:	50 e0       	ldi	r21, 0x00	; 0
    62ba:	55 1f       	adc	r21, r21
    62bc:	62 9f       	mul	r22, r18
    62be:	f0 01       	movw	r30, r0
    62c0:	72 9f       	mul	r23, r18
    62c2:	bb 27       	eor	r27, r27
    62c4:	f0 0d       	add	r31, r0
    62c6:	b1 1d       	adc	r27, r1
    62c8:	63 9f       	mul	r22, r19
    62ca:	aa 27       	eor	r26, r26
    62cc:	f0 0d       	add	r31, r0
    62ce:	b1 1d       	adc	r27, r1
    62d0:	aa 1f       	adc	r26, r26
    62d2:	64 9f       	mul	r22, r20
    62d4:	66 27       	eor	r22, r22
    62d6:	b0 0d       	add	r27, r0
    62d8:	a1 1d       	adc	r26, r1
    62da:	66 1f       	adc	r22, r22
    62dc:	82 9f       	mul	r24, r18
    62de:	22 27       	eor	r18, r18
    62e0:	b0 0d       	add	r27, r0
    62e2:	a1 1d       	adc	r26, r1
    62e4:	62 1f       	adc	r22, r18
    62e6:	73 9f       	mul	r23, r19
    62e8:	b0 0d       	add	r27, r0
    62ea:	a1 1d       	adc	r26, r1
    62ec:	62 1f       	adc	r22, r18
    62ee:	83 9f       	mul	r24, r19
    62f0:	a0 0d       	add	r26, r0
    62f2:	61 1d       	adc	r22, r1
    62f4:	22 1f       	adc	r18, r18
    62f6:	74 9f       	mul	r23, r20
    62f8:	33 27       	eor	r19, r19
    62fa:	a0 0d       	add	r26, r0
    62fc:	61 1d       	adc	r22, r1
    62fe:	23 1f       	adc	r18, r19
    6300:	84 9f       	mul	r24, r20
    6302:	60 0d       	add	r22, r0
    6304:	21 1d       	adc	r18, r1
    6306:	82 2f       	mov	r24, r18
    6308:	76 2f       	mov	r23, r22
    630a:	6a 2f       	mov	r22, r26
    630c:	11 24       	eor	r1, r1
    630e:	9f 57       	subi	r25, 0x7F	; 127
    6310:	50 40       	sbci	r21, 0x00	; 0
    6312:	8a f0       	brmi	.+34     	; 0x6336 <__mulsf3_pse+0x84>
    6314:	e1 f0       	breq	.+56     	; 0x634e <__mulsf3_pse+0x9c>
    6316:	88 23       	and	r24, r24
    6318:	4a f0       	brmi	.+18     	; 0x632c <__mulsf3_pse+0x7a>
    631a:	ee 0f       	add	r30, r30
    631c:	ff 1f       	adc	r31, r31
    631e:	bb 1f       	adc	r27, r27
    6320:	66 1f       	adc	r22, r22
    6322:	77 1f       	adc	r23, r23
    6324:	88 1f       	adc	r24, r24
    6326:	91 50       	subi	r25, 0x01	; 1
    6328:	50 40       	sbci	r21, 0x00	; 0
    632a:	a9 f7       	brne	.-22     	; 0x6316 <__mulsf3_pse+0x64>
    632c:	9e 3f       	cpi	r25, 0xFE	; 254
    632e:	51 05       	cpc	r21, r1
    6330:	70 f0       	brcs	.+28     	; 0x634e <__mulsf3_pse+0x9c>
    6332:	60 cf       	rjmp	.-320    	; 0x61f4 <__fp_inf>
    6334:	aa cf       	rjmp	.-172    	; 0x628a <__fp_szero>
    6336:	5f 3f       	cpi	r21, 0xFF	; 255
    6338:	ec f3       	brlt	.-6      	; 0x6334 <__mulsf3_pse+0x82>
    633a:	98 3e       	cpi	r25, 0xE8	; 232
    633c:	dc f3       	brlt	.-10     	; 0x6334 <__mulsf3_pse+0x82>
    633e:	86 95       	lsr	r24
    6340:	77 95       	ror	r23
    6342:	67 95       	ror	r22
    6344:	b7 95       	ror	r27
    6346:	f7 95       	ror	r31
    6348:	e7 95       	ror	r30
    634a:	9f 5f       	subi	r25, 0xFF	; 255
    634c:	c1 f7       	brne	.-16     	; 0x633e <__mulsf3_pse+0x8c>
    634e:	fe 2b       	or	r31, r30
    6350:	88 0f       	add	r24, r24
    6352:	91 1d       	adc	r25, r1
    6354:	96 95       	lsr	r25
    6356:	87 95       	ror	r24
    6358:	97 f9       	bld	r25, 7
    635a:	08 95       	ret

0000635c <__ftoa_engine>:
    635c:	28 30       	cpi	r18, 0x08	; 8
    635e:	08 f0       	brcs	.+2      	; 0x6362 <__ftoa_engine+0x6>
    6360:	27 e0       	ldi	r18, 0x07	; 7
    6362:	33 27       	eor	r19, r19
    6364:	da 01       	movw	r26, r20
    6366:	99 0f       	add	r25, r25
    6368:	31 1d       	adc	r19, r1
    636a:	87 fd       	sbrc	r24, 7
    636c:	91 60       	ori	r25, 0x01	; 1
    636e:	00 96       	adiw	r24, 0x00	; 0
    6370:	61 05       	cpc	r22, r1
    6372:	71 05       	cpc	r23, r1
    6374:	39 f4       	brne	.+14     	; 0x6384 <__ftoa_engine+0x28>
    6376:	32 60       	ori	r19, 0x02	; 2
    6378:	2e 5f       	subi	r18, 0xFE	; 254
    637a:	3d 93       	st	X+, r19
    637c:	30 e3       	ldi	r19, 0x30	; 48
    637e:	2a 95       	dec	r18
    6380:	e1 f7       	brne	.-8      	; 0x637a <__ftoa_engine+0x1e>
    6382:	08 95       	ret
    6384:	9f 3f       	cpi	r25, 0xFF	; 255
    6386:	30 f0       	brcs	.+12     	; 0x6394 <__ftoa_engine+0x38>
    6388:	80 38       	cpi	r24, 0x80	; 128
    638a:	71 05       	cpc	r23, r1
    638c:	61 05       	cpc	r22, r1
    638e:	09 f0       	breq	.+2      	; 0x6392 <__ftoa_engine+0x36>
    6390:	3c 5f       	subi	r19, 0xFC	; 252
    6392:	3c 5f       	subi	r19, 0xFC	; 252
    6394:	3d 93       	st	X+, r19
    6396:	91 30       	cpi	r25, 0x01	; 1
    6398:	08 f0       	brcs	.+2      	; 0x639c <__ftoa_engine+0x40>
    639a:	80 68       	ori	r24, 0x80	; 128
    639c:	91 1d       	adc	r25, r1
    639e:	df 93       	push	r29
    63a0:	cf 93       	push	r28
    63a2:	1f 93       	push	r17
    63a4:	0f 93       	push	r16
    63a6:	ff 92       	push	r15
    63a8:	ef 92       	push	r14
    63aa:	19 2f       	mov	r17, r25
    63ac:	98 7f       	andi	r25, 0xF8	; 248
    63ae:	96 95       	lsr	r25
    63b0:	e9 2f       	mov	r30, r25
    63b2:	96 95       	lsr	r25
    63b4:	96 95       	lsr	r25
    63b6:	e9 0f       	add	r30, r25
    63b8:	ff 27       	eor	r31, r31
    63ba:	ee 50       	subi	r30, 0x0E	; 14
    63bc:	fb 4f       	sbci	r31, 0xFB	; 251
    63be:	99 27       	eor	r25, r25
    63c0:	33 27       	eor	r19, r19
    63c2:	ee 24       	eor	r14, r14
    63c4:	ff 24       	eor	r15, r15
    63c6:	a7 01       	movw	r20, r14
    63c8:	e7 01       	movw	r28, r14
    63ca:	05 90       	lpm	r0, Z+
    63cc:	08 94       	sec
    63ce:	07 94       	ror	r0
    63d0:	28 f4       	brcc	.+10     	; 0x63dc <__ftoa_engine+0x80>
    63d2:	36 0f       	add	r19, r22
    63d4:	e7 1e       	adc	r14, r23
    63d6:	f8 1e       	adc	r15, r24
    63d8:	49 1f       	adc	r20, r25
    63da:	51 1d       	adc	r21, r1
    63dc:	66 0f       	add	r22, r22
    63de:	77 1f       	adc	r23, r23
    63e0:	88 1f       	adc	r24, r24
    63e2:	99 1f       	adc	r25, r25
    63e4:	06 94       	lsr	r0
    63e6:	a1 f7       	brne	.-24     	; 0x63d0 <__ftoa_engine+0x74>
    63e8:	05 90       	lpm	r0, Z+
    63ea:	07 94       	ror	r0
    63ec:	28 f4       	brcc	.+10     	; 0x63f8 <__ftoa_engine+0x9c>
    63ee:	e7 0e       	add	r14, r23
    63f0:	f8 1e       	adc	r15, r24
    63f2:	49 1f       	adc	r20, r25
    63f4:	56 1f       	adc	r21, r22
    63f6:	c1 1d       	adc	r28, r1
    63f8:	77 0f       	add	r23, r23
    63fa:	88 1f       	adc	r24, r24
    63fc:	99 1f       	adc	r25, r25
    63fe:	66 1f       	adc	r22, r22
    6400:	06 94       	lsr	r0
    6402:	a1 f7       	brne	.-24     	; 0x63ec <__ftoa_engine+0x90>
    6404:	05 90       	lpm	r0, Z+
    6406:	07 94       	ror	r0
    6408:	28 f4       	brcc	.+10     	; 0x6414 <__ftoa_engine+0xb8>
    640a:	f8 0e       	add	r15, r24
    640c:	49 1f       	adc	r20, r25
    640e:	56 1f       	adc	r21, r22
    6410:	c7 1f       	adc	r28, r23
    6412:	d1 1d       	adc	r29, r1
    6414:	88 0f       	add	r24, r24
    6416:	99 1f       	adc	r25, r25
    6418:	66 1f       	adc	r22, r22
    641a:	77 1f       	adc	r23, r23
    641c:	06 94       	lsr	r0
    641e:	a1 f7       	brne	.-24     	; 0x6408 <__ftoa_engine+0xac>
    6420:	05 90       	lpm	r0, Z+
    6422:	07 94       	ror	r0
    6424:	20 f4       	brcc	.+8      	; 0x642e <__ftoa_engine+0xd2>
    6426:	49 0f       	add	r20, r25
    6428:	56 1f       	adc	r21, r22
    642a:	c7 1f       	adc	r28, r23
    642c:	d8 1f       	adc	r29, r24
    642e:	99 0f       	add	r25, r25
    6430:	66 1f       	adc	r22, r22
    6432:	77 1f       	adc	r23, r23
    6434:	88 1f       	adc	r24, r24
    6436:	06 94       	lsr	r0
    6438:	a9 f7       	brne	.-22     	; 0x6424 <__ftoa_engine+0xc8>
    643a:	84 91       	lpm	r24, Z
    643c:	10 95       	com	r17
    643e:	17 70       	andi	r17, 0x07	; 7
    6440:	41 f0       	breq	.+16     	; 0x6452 <__ftoa_engine+0xf6>
    6442:	d6 95       	lsr	r29
    6444:	c7 95       	ror	r28
    6446:	57 95       	ror	r21
    6448:	47 95       	ror	r20
    644a:	f7 94       	ror	r15
    644c:	e7 94       	ror	r14
    644e:	1a 95       	dec	r17
    6450:	c1 f7       	brne	.-16     	; 0x6442 <__ftoa_engine+0xe6>
    6452:	e8 e9       	ldi	r30, 0x98	; 152
    6454:	f4 e0       	ldi	r31, 0x04	; 4
    6456:	68 94       	set
    6458:	15 90       	lpm	r1, Z+
    645a:	15 91       	lpm	r17, Z+
    645c:	35 91       	lpm	r19, Z+
    645e:	65 91       	lpm	r22, Z+
    6460:	95 91       	lpm	r25, Z+
    6462:	05 90       	lpm	r0, Z+
    6464:	7f e2       	ldi	r23, 0x2F	; 47
    6466:	73 95       	inc	r23
    6468:	e1 18       	sub	r14, r1
    646a:	f1 0a       	sbc	r15, r17
    646c:	43 0b       	sbc	r20, r19
    646e:	56 0b       	sbc	r21, r22
    6470:	c9 0b       	sbc	r28, r25
    6472:	d0 09       	sbc	r29, r0
    6474:	c0 f7       	brcc	.-16     	; 0x6466 <__ftoa_engine+0x10a>
    6476:	e1 0c       	add	r14, r1
    6478:	f1 1e       	adc	r15, r17
    647a:	43 1f       	adc	r20, r19
    647c:	56 1f       	adc	r21, r22
    647e:	c9 1f       	adc	r28, r25
    6480:	d0 1d       	adc	r29, r0
    6482:	7e f4       	brtc	.+30     	; 0x64a2 <__ftoa_engine+0x146>
    6484:	70 33       	cpi	r23, 0x30	; 48
    6486:	11 f4       	brne	.+4      	; 0x648c <__ftoa_engine+0x130>
    6488:	8a 95       	dec	r24
    648a:	e6 cf       	rjmp	.-52     	; 0x6458 <__ftoa_engine+0xfc>
    648c:	e8 94       	clt
    648e:	01 50       	subi	r16, 0x01	; 1
    6490:	30 f0       	brcs	.+12     	; 0x649e <__ftoa_engine+0x142>
    6492:	08 0f       	add	r16, r24
    6494:	0a f4       	brpl	.+2      	; 0x6498 <__ftoa_engine+0x13c>
    6496:	00 27       	eor	r16, r16
    6498:	02 17       	cp	r16, r18
    649a:	08 f4       	brcc	.+2      	; 0x649e <__ftoa_engine+0x142>
    649c:	20 2f       	mov	r18, r16
    649e:	23 95       	inc	r18
    64a0:	02 2f       	mov	r16, r18
    64a2:	7a 33       	cpi	r23, 0x3A	; 58
    64a4:	28 f0       	brcs	.+10     	; 0x64b0 <__ftoa_engine+0x154>
    64a6:	79 e3       	ldi	r23, 0x39	; 57
    64a8:	7d 93       	st	X+, r23
    64aa:	2a 95       	dec	r18
    64ac:	e9 f7       	brne	.-6      	; 0x64a8 <__ftoa_engine+0x14c>
    64ae:	10 c0       	rjmp	.+32     	; 0x64d0 <__ftoa_engine+0x174>
    64b0:	7d 93       	st	X+, r23
    64b2:	2a 95       	dec	r18
    64b4:	89 f6       	brne	.-94     	; 0x6458 <__ftoa_engine+0xfc>
    64b6:	06 94       	lsr	r0
    64b8:	97 95       	ror	r25
    64ba:	67 95       	ror	r22
    64bc:	37 95       	ror	r19
    64be:	17 95       	ror	r17
    64c0:	17 94       	ror	r1
    64c2:	e1 18       	sub	r14, r1
    64c4:	f1 0a       	sbc	r15, r17
    64c6:	43 0b       	sbc	r20, r19
    64c8:	56 0b       	sbc	r21, r22
    64ca:	c9 0b       	sbc	r28, r25
    64cc:	d0 09       	sbc	r29, r0
    64ce:	98 f0       	brcs	.+38     	; 0x64f6 <__ftoa_engine+0x19a>
    64d0:	23 95       	inc	r18
    64d2:	7e 91       	ld	r23, -X
    64d4:	73 95       	inc	r23
    64d6:	7a 33       	cpi	r23, 0x3A	; 58
    64d8:	08 f0       	brcs	.+2      	; 0x64dc <__ftoa_engine+0x180>
    64da:	70 e3       	ldi	r23, 0x30	; 48
    64dc:	7c 93       	st	X, r23
    64de:	20 13       	cpse	r18, r16
    64e0:	b8 f7       	brcc	.-18     	; 0x64d0 <__ftoa_engine+0x174>
    64e2:	7e 91       	ld	r23, -X
    64e4:	70 61       	ori	r23, 0x10	; 16
    64e6:	7d 93       	st	X+, r23
    64e8:	30 f0       	brcs	.+12     	; 0x64f6 <__ftoa_engine+0x19a>
    64ea:	83 95       	inc	r24
    64ec:	71 e3       	ldi	r23, 0x31	; 49
    64ee:	7d 93       	st	X+, r23
    64f0:	70 e3       	ldi	r23, 0x30	; 48
    64f2:	2a 95       	dec	r18
    64f4:	e1 f7       	brne	.-8      	; 0x64ee <__ftoa_engine+0x192>
    64f6:	11 24       	eor	r1, r1
    64f8:	ef 90       	pop	r14
    64fa:	ff 90       	pop	r15
    64fc:	0f 91       	pop	r16
    64fe:	1f 91       	pop	r17
    6500:	cf 91       	pop	r28
    6502:	df 91       	pop	r29
    6504:	99 27       	eor	r25, r25
    6506:	87 fd       	sbrc	r24, 7
    6508:	90 95       	com	r25
    650a:	08 95       	ret

0000650c <__strlen_P>:
    650c:	fc 01       	movw	r30, r24
    650e:	05 90       	lpm	r0, Z+
    6510:	00 20       	and	r0, r0
    6512:	e9 f7       	brne	.-6      	; 0x650e <__strlen_P+0x2>
    6514:	80 95       	com	r24
    6516:	90 95       	com	r25
    6518:	8e 0f       	add	r24, r30
    651a:	9f 1f       	adc	r25, r31
    651c:	08 95       	ret

0000651e <strnlen_P>:
    651e:	fc 01       	movw	r30, r24
    6520:	05 90       	lpm	r0, Z+
    6522:	61 50       	subi	r22, 0x01	; 1
    6524:	70 40       	sbci	r23, 0x00	; 0
    6526:	01 10       	cpse	r0, r1
    6528:	d8 f7       	brcc	.-10     	; 0x6520 <strnlen_P+0x2>
    652a:	80 95       	com	r24
    652c:	90 95       	com	r25
    652e:	8e 0f       	add	r24, r30
    6530:	9f 1f       	adc	r25, r31
    6532:	08 95       	ret

00006534 <strnlen>:
    6534:	fc 01       	movw	r30, r24
    6536:	61 50       	subi	r22, 0x01	; 1
    6538:	70 40       	sbci	r23, 0x00	; 0
    653a:	01 90       	ld	r0, Z+
    653c:	01 10       	cpse	r0, r1
    653e:	d8 f7       	brcc	.-10     	; 0x6536 <strnlen+0x2>
    6540:	80 95       	com	r24
    6542:	90 95       	com	r25
    6544:	8e 0f       	add	r24, r30
    6546:	9f 1f       	adc	r25, r31
    6548:	08 95       	ret

0000654a <fputc>:
    654a:	0f 93       	push	r16
    654c:	1f 93       	push	r17
    654e:	cf 93       	push	r28
    6550:	df 93       	push	r29
    6552:	fb 01       	movw	r30, r22
    6554:	23 81       	ldd	r18, Z+3	; 0x03
    6556:	21 fd       	sbrc	r18, 1
    6558:	03 c0       	rjmp	.+6      	; 0x6560 <fputc+0x16>
    655a:	8f ef       	ldi	r24, 0xFF	; 255
    655c:	9f ef       	ldi	r25, 0xFF	; 255
    655e:	28 c0       	rjmp	.+80     	; 0x65b0 <fputc+0x66>
    6560:	22 ff       	sbrs	r18, 2
    6562:	16 c0       	rjmp	.+44     	; 0x6590 <fputc+0x46>
    6564:	46 81       	ldd	r20, Z+6	; 0x06
    6566:	57 81       	ldd	r21, Z+7	; 0x07
    6568:	24 81       	ldd	r18, Z+4	; 0x04
    656a:	35 81       	ldd	r19, Z+5	; 0x05
    656c:	42 17       	cp	r20, r18
    656e:	53 07       	cpc	r21, r19
    6570:	44 f4       	brge	.+16     	; 0x6582 <fputc+0x38>
    6572:	a0 81       	ld	r26, Z
    6574:	b1 81       	ldd	r27, Z+1	; 0x01
    6576:	9d 01       	movw	r18, r26
    6578:	2f 5f       	subi	r18, 0xFF	; 255
    657a:	3f 4f       	sbci	r19, 0xFF	; 255
    657c:	31 83       	std	Z+1, r19	; 0x01
    657e:	20 83       	st	Z, r18
    6580:	8c 93       	st	X, r24
    6582:	26 81       	ldd	r18, Z+6	; 0x06
    6584:	37 81       	ldd	r19, Z+7	; 0x07
    6586:	2f 5f       	subi	r18, 0xFF	; 255
    6588:	3f 4f       	sbci	r19, 0xFF	; 255
    658a:	37 83       	std	Z+7, r19	; 0x07
    658c:	26 83       	std	Z+6, r18	; 0x06
    658e:	10 c0       	rjmp	.+32     	; 0x65b0 <fputc+0x66>
    6590:	eb 01       	movw	r28, r22
    6592:	09 2f       	mov	r16, r25
    6594:	18 2f       	mov	r17, r24
    6596:	00 84       	ldd	r0, Z+8	; 0x08
    6598:	f1 85       	ldd	r31, Z+9	; 0x09
    659a:	e0 2d       	mov	r30, r0
    659c:	09 95       	icall
    659e:	89 2b       	or	r24, r25
    65a0:	e1 f6       	brne	.-72     	; 0x655a <fputc+0x10>
    65a2:	8e 81       	ldd	r24, Y+6	; 0x06
    65a4:	9f 81       	ldd	r25, Y+7	; 0x07
    65a6:	01 96       	adiw	r24, 0x01	; 1
    65a8:	9f 83       	std	Y+7, r25	; 0x07
    65aa:	8e 83       	std	Y+6, r24	; 0x06
    65ac:	81 2f       	mov	r24, r17
    65ae:	90 2f       	mov	r25, r16
    65b0:	df 91       	pop	r29
    65b2:	cf 91       	pop	r28
    65b4:	1f 91       	pop	r17
    65b6:	0f 91       	pop	r16
    65b8:	08 95       	ret

000065ba <snprintf_P>:
    65ba:	ae e0       	ldi	r26, 0x0E	; 14
    65bc:	b0 e0       	ldi	r27, 0x00	; 0
    65be:	e2 ee       	ldi	r30, 0xE2	; 226
    65c0:	f2 e3       	ldi	r31, 0x32	; 50
    65c2:	0d cd       	rjmp	.-1510   	; 0x5fde <__prologue_saves__+0x1c>
    65c4:	0d 89       	ldd	r16, Y+21	; 0x15
    65c6:	1e 89       	ldd	r17, Y+22	; 0x16
    65c8:	8f 89       	ldd	r24, Y+23	; 0x17
    65ca:	98 8d       	ldd	r25, Y+24	; 0x18
    65cc:	2e e0       	ldi	r18, 0x0E	; 14
    65ce:	2c 83       	std	Y+4, r18	; 0x04
    65d0:	1a 83       	std	Y+2, r17	; 0x02
    65d2:	09 83       	std	Y+1, r16	; 0x01
    65d4:	97 ff       	sbrs	r25, 7
    65d6:	02 c0       	rjmp	.+4      	; 0x65dc <snprintf_P+0x22>
    65d8:	80 e0       	ldi	r24, 0x00	; 0
    65da:	90 e8       	ldi	r25, 0x80	; 128
    65dc:	01 97       	sbiw	r24, 0x01	; 1
    65de:	9e 83       	std	Y+6, r25	; 0x06
    65e0:	8d 83       	std	Y+5, r24	; 0x05
    65e2:	ae 01       	movw	r20, r28
    65e4:	45 5e       	subi	r20, 0xE5	; 229
    65e6:	5f 4f       	sbci	r21, 0xFF	; 255
    65e8:	69 8d       	ldd	r22, Y+25	; 0x19
    65ea:	7a 8d       	ldd	r23, Y+26	; 0x1a
    65ec:	ce 01       	movw	r24, r28
    65ee:	01 96       	adiw	r24, 0x01	; 1
    65f0:	0e 94 4e 03 	call	0x69c	; 0x69c <vfprintf>
    65f4:	4d 81       	ldd	r20, Y+5	; 0x05
    65f6:	5e 81       	ldd	r21, Y+6	; 0x06
    65f8:	57 fd       	sbrc	r21, 7
    65fa:	0a c0       	rjmp	.+20     	; 0x6610 <snprintf_P+0x56>
    65fc:	2f 81       	ldd	r18, Y+7	; 0x07
    65fe:	38 85       	ldd	r19, Y+8	; 0x08
    6600:	42 17       	cp	r20, r18
    6602:	53 07       	cpc	r21, r19
    6604:	0c f4       	brge	.+2      	; 0x6608 <snprintf_P+0x4e>
    6606:	9a 01       	movw	r18, r20
    6608:	f8 01       	movw	r30, r16
    660a:	e2 0f       	add	r30, r18
    660c:	f3 1f       	adc	r31, r19
    660e:	10 82       	st	Z, r1
    6610:	2e 96       	adiw	r28, 0x0e	; 14
    6612:	e4 e0       	ldi	r30, 0x04	; 4
    6614:	00 cd       	rjmp	.-1536   	; 0x6016 <__epilogue_restores__+0x1c>

00006616 <vsnprintf_P>:
    6616:	ae e0       	ldi	r26, 0x0E	; 14
    6618:	b0 e0       	ldi	r27, 0x00	; 0
    661a:	e0 e1       	ldi	r30, 0x10	; 16
    661c:	f3 e3       	ldi	r31, 0x33	; 51
    661e:	df cc       	rjmp	.-1602   	; 0x5fde <__prologue_saves__+0x1c>
    6620:	8c 01       	movw	r16, r24
    6622:	ca 01       	movw	r24, r20
    6624:	4e e0       	ldi	r20, 0x0E	; 14
    6626:	4c 83       	std	Y+4, r20	; 0x04
    6628:	1a 83       	std	Y+2, r17	; 0x02
    662a:	09 83       	std	Y+1, r16	; 0x01
    662c:	77 ff       	sbrs	r23, 7
    662e:	02 c0       	rjmp	.+4      	; 0x6634 <vsnprintf_P+0x1e>
    6630:	60 e0       	ldi	r22, 0x00	; 0
    6632:	70 e8       	ldi	r23, 0x80	; 128
    6634:	fb 01       	movw	r30, r22
    6636:	31 97       	sbiw	r30, 0x01	; 1
    6638:	fe 83       	std	Y+6, r31	; 0x06
    663a:	ed 83       	std	Y+5, r30	; 0x05
    663c:	a9 01       	movw	r20, r18
    663e:	bc 01       	movw	r22, r24
    6640:	ce 01       	movw	r24, r28
    6642:	01 96       	adiw	r24, 0x01	; 1
    6644:	0e 94 4e 03 	call	0x69c	; 0x69c <vfprintf>
    6648:	4d 81       	ldd	r20, Y+5	; 0x05
    664a:	5e 81       	ldd	r21, Y+6	; 0x06
    664c:	57 fd       	sbrc	r21, 7
    664e:	0a c0       	rjmp	.+20     	; 0x6664 <vsnprintf_P+0x4e>
    6650:	2f 81       	ldd	r18, Y+7	; 0x07
    6652:	38 85       	ldd	r19, Y+8	; 0x08
    6654:	42 17       	cp	r20, r18
    6656:	53 07       	cpc	r21, r19
    6658:	0c f4       	brge	.+2      	; 0x665c <vsnprintf_P+0x46>
    665a:	9a 01       	movw	r18, r20
    665c:	f8 01       	movw	r30, r16
    665e:	e2 0f       	add	r30, r18
    6660:	f3 1f       	adc	r31, r19
    6662:	10 82       	st	Z, r1
    6664:	2e 96       	adiw	r28, 0x0e	; 14
    6666:	e4 e0       	ldi	r30, 0x04	; 4
    6668:	d6 cc       	rjmp	.-1620   	; 0x6016 <__epilogue_restores__+0x1c>

0000666a <__ultoa_invert>:
    666a:	fa 01       	movw	r30, r20
    666c:	aa 27       	eor	r26, r26
    666e:	28 30       	cpi	r18, 0x08	; 8
    6670:	51 f1       	breq	.+84     	; 0x66c6 <__ultoa_invert+0x5c>
    6672:	20 31       	cpi	r18, 0x10	; 16
    6674:	81 f1       	breq	.+96     	; 0x66d6 <__ultoa_invert+0x6c>
    6676:	e8 94       	clt
    6678:	6f 93       	push	r22
    667a:	6e 7f       	andi	r22, 0xFE	; 254
    667c:	6e 5f       	subi	r22, 0xFE	; 254
    667e:	7f 4f       	sbci	r23, 0xFF	; 255
    6680:	8f 4f       	sbci	r24, 0xFF	; 255
    6682:	9f 4f       	sbci	r25, 0xFF	; 255
    6684:	af 4f       	sbci	r26, 0xFF	; 255
    6686:	b1 e0       	ldi	r27, 0x01	; 1
    6688:	3e d0       	rcall	.+124    	; 0x6706 <__ultoa_invert+0x9c>
    668a:	b4 e0       	ldi	r27, 0x04	; 4
    668c:	3c d0       	rcall	.+120    	; 0x6706 <__ultoa_invert+0x9c>
    668e:	67 0f       	add	r22, r23
    6690:	78 1f       	adc	r23, r24
    6692:	89 1f       	adc	r24, r25
    6694:	9a 1f       	adc	r25, r26
    6696:	a1 1d       	adc	r26, r1
    6698:	68 0f       	add	r22, r24
    669a:	79 1f       	adc	r23, r25
    669c:	8a 1f       	adc	r24, r26
    669e:	91 1d       	adc	r25, r1
    66a0:	a1 1d       	adc	r26, r1
    66a2:	6a 0f       	add	r22, r26
    66a4:	71 1d       	adc	r23, r1
    66a6:	81 1d       	adc	r24, r1
    66a8:	91 1d       	adc	r25, r1
    66aa:	a1 1d       	adc	r26, r1
    66ac:	20 d0       	rcall	.+64     	; 0x66ee <__ultoa_invert+0x84>
    66ae:	09 f4       	brne	.+2      	; 0x66b2 <__ultoa_invert+0x48>
    66b0:	68 94       	set
    66b2:	3f 91       	pop	r19
    66b4:	2a e0       	ldi	r18, 0x0A	; 10
    66b6:	26 9f       	mul	r18, r22
    66b8:	11 24       	eor	r1, r1
    66ba:	30 19       	sub	r19, r0
    66bc:	30 5d       	subi	r19, 0xD0	; 208
    66be:	31 93       	st	Z+, r19
    66c0:	de f6       	brtc	.-74     	; 0x6678 <__ultoa_invert+0xe>
    66c2:	cf 01       	movw	r24, r30
    66c4:	08 95       	ret
    66c6:	46 2f       	mov	r20, r22
    66c8:	47 70       	andi	r20, 0x07	; 7
    66ca:	40 5d       	subi	r20, 0xD0	; 208
    66cc:	41 93       	st	Z+, r20
    66ce:	b3 e0       	ldi	r27, 0x03	; 3
    66d0:	0f d0       	rcall	.+30     	; 0x66f0 <__ultoa_invert+0x86>
    66d2:	c9 f7       	brne	.-14     	; 0x66c6 <__ultoa_invert+0x5c>
    66d4:	f6 cf       	rjmp	.-20     	; 0x66c2 <__ultoa_invert+0x58>
    66d6:	46 2f       	mov	r20, r22
    66d8:	4f 70       	andi	r20, 0x0F	; 15
    66da:	40 5d       	subi	r20, 0xD0	; 208
    66dc:	4a 33       	cpi	r20, 0x3A	; 58
    66de:	18 f0       	brcs	.+6      	; 0x66e6 <__ultoa_invert+0x7c>
    66e0:	49 5d       	subi	r20, 0xD9	; 217
    66e2:	31 fd       	sbrc	r19, 1
    66e4:	40 52       	subi	r20, 0x20	; 32
    66e6:	41 93       	st	Z+, r20
    66e8:	02 d0       	rcall	.+4      	; 0x66ee <__ultoa_invert+0x84>
    66ea:	a9 f7       	brne	.-22     	; 0x66d6 <__ultoa_invert+0x6c>
    66ec:	ea cf       	rjmp	.-44     	; 0x66c2 <__ultoa_invert+0x58>
    66ee:	b4 e0       	ldi	r27, 0x04	; 4
    66f0:	a6 95       	lsr	r26
    66f2:	97 95       	ror	r25
    66f4:	87 95       	ror	r24
    66f6:	77 95       	ror	r23
    66f8:	67 95       	ror	r22
    66fa:	ba 95       	dec	r27
    66fc:	c9 f7       	brne	.-14     	; 0x66f0 <__ultoa_invert+0x86>
    66fe:	00 97       	sbiw	r24, 0x00	; 0
    6700:	61 05       	cpc	r22, r1
    6702:	71 05       	cpc	r23, r1
    6704:	08 95       	ret
    6706:	9b 01       	movw	r18, r22
    6708:	ac 01       	movw	r20, r24
    670a:	0a 2e       	mov	r0, r26
    670c:	06 94       	lsr	r0
    670e:	57 95       	ror	r21
    6710:	47 95       	ror	r20
    6712:	37 95       	ror	r19
    6714:	27 95       	ror	r18
    6716:	ba 95       	dec	r27
    6718:	c9 f7       	brne	.-14     	; 0x670c <__ultoa_invert+0xa2>
    671a:	62 0f       	add	r22, r18
    671c:	73 1f       	adc	r23, r19
    671e:	84 1f       	adc	r24, r20
    6720:	95 1f       	adc	r25, r21
    6722:	a0 1d       	adc	r26, r0
    6724:	08 95       	ret

00006726 <_exit>:
    6726:	f8 94       	cli

00006728 <__stop_program>:
    6728:	ff cf       	rjmp	.-2      	; 0x6728 <__stop_program>
